
/Users/cademissner/Desktop/IoT/Lab8-I2C-Stretch/target/3.3.0/argon/Lab8-I2C-Stretch.elf:     file format elf32-littlearm

Sections:
Idx Name          Size      VMA       LMA       File off  Algn
  0 .module_info  00000018  000b4000  000b4000  00004000  2**0
                  CONTENTS, ALLOC, LOAD, READONLY, DATA
  1 .dynalib      00000004  000b4018  000b4018  00004018  2**2
                  CONTENTS, ALLOC, LOAD, READONLY, DATA
  2 .text         00005264  000b401c  000b401c  0000401c  2**2
                  CONTENTS, ALLOC, LOAD, READONLY, CODE
  3 .note.gnu.build-id 00000024  000b9280  000b9280  00009280  2**2
                  CONTENTS, ALLOC, LOAD, READONLY, DATA
  4 .backup       00000004  2003f400  000b92a4  0000f400  2**2
                  CONTENTS, ALLOC, LOAD, DATA
  5 .data         0000006c  2003e57c  000b92a8  0001e57c  2**2
                  CONTENTS, ALLOC, LOAD, DATA
  6 .bss          00000208  2003e5e8  2003e5e8  0002e5e8  2**2
                  ALLOC
  7 .module_info_suffix 00000028  000b9314  000b9314  00029314  2**0
                  CONTENTS, ALLOC, LOAD, READONLY, DATA
  8 .module_info_crc 00000004  000b933c  000b933c  0002933c  2**0
                  CONTENTS, ALLOC, LOAD, READONLY, DATA
  9 .debug_info   0014ca5c  00000000  00000000  00029340  2**0
                  CONTENTS, READONLY, DEBUGGING, OCTETS
 10 .debug_abbrev 0001756b  00000000  00000000  00175d9c  2**0
                  CONTENTS, READONLY, DEBUGGING, OCTETS
 11 .debug_loc    00043be4  00000000  00000000  0018d307  2**0
                  CONTENTS, READONLY, DEBUGGING, OCTETS
 12 .debug_aranges 00003160  00000000  00000000  001d0eeb  2**0
                  CONTENTS, READONLY, DEBUGGING, OCTETS
 13 .debug_ranges 0000b0b0  00000000  00000000  001d404b  2**0
                  CONTENTS, READONLY, DEBUGGING, OCTETS
 14 .debug_macro  0004321b  00000000  00000000  001df0fb  2**0
                  CONTENTS, READONLY, DEBUGGING, OCTETS
 15 .debug_line   00051d1b  00000000  00000000  00222316  2**0
                  CONTENTS, READONLY, DEBUGGING, OCTETS
 16 .debug_str    0013a2e2  00000000  00000000  00274031  2**0
                  CONTENTS, READONLY, DEBUGGING, OCTETS
 17 .debug_frame  0000904c  00000000  00000000  003ae314  2**2
                  CONTENTS, READONLY, DEBUGGING, OCTETS

Disassembly of section .text:

000b401c <module_user_pre_init>:
/**
 * Initializes this user module. Returns the start of the heap.
 */
void* module_user_pre_init() {

    if ( (&link_global_data_start!=&link_global_data_initial_values) && (link_global_data_size != 0))
   b401c:	4809      	ldr	r0, [pc, #36]	; (b4044 <module_user_pre_init+0x28>)
   b401e:	490a      	ldr	r1, [pc, #40]	; (b4048 <module_user_pre_init+0x2c>)
   b4020:	4288      	cmp	r0, r1
void* module_user_pre_init() {
   b4022:	b508      	push	{r3, lr}
    if ( (&link_global_data_start!=&link_global_data_initial_values) && (link_global_data_size != 0))
   b4024:	d005      	beq.n	b4032 <module_user_pre_init+0x16>
   b4026:	4a09      	ldr	r2, [pc, #36]	; (b404c <module_user_pre_init+0x30>)
   b4028:	4282      	cmp	r2, r0
   b402a:	d002      	beq.n	b4032 <module_user_pre_init+0x16>
    {
        memcpy(&link_global_data_start, &link_global_data_initial_values, link_global_data_size);
   b402c:	1a12      	subs	r2, r2, r0
   b402e:	f003 fd83 	bl	b7b38 <memcpy>
    }

    memset(&link_bss_location, 0, link_bss_size );
   b4032:	4807      	ldr	r0, [pc, #28]	; (b4050 <module_user_pre_init+0x34>)
   b4034:	4a07      	ldr	r2, [pc, #28]	; (b4054 <module_user_pre_init+0x38>)
   b4036:	2100      	movs	r1, #0
   b4038:	1a12      	subs	r2, r2, r0
   b403a:	f003 fd8b 	bl	b7b54 <memset>
    return &link_global_data_start;
}
   b403e:	4801      	ldr	r0, [pc, #4]	; (b4044 <module_user_pre_init+0x28>)
   b4040:	bd08      	pop	{r3, pc}
   b4042:	bf00      	nop
   b4044:	2003e57c 	.word	0x2003e57c
   b4048:	000b92a8 	.word	0x000b92a8
   b404c:	2003e5e8 	.word	0x2003e5e8
   b4050:	2003e5e8 	.word	0x2003e5e8
   b4054:	2003e7ed 	.word	0x2003e7ed

000b4058 <module_user_init>:
extern constructor_ptr_t link_constructors_location[];
extern constructor_ptr_t link_constructors_end;
#define link_constructors_size   ((unsigned long)&link_constructors_end  -  (unsigned long)&link_constructors_location )

void module_user_init()
{
   b4058:	b570      	push	{r4, r5, r6, lr}
    module_user_init_hook();

    // invoke constructors
    for (size_t ctor_num=0; ctor_num < link_constructors_size/sizeof(constructor_ptr_t); ctor_num++ )
   b405a:	4e07      	ldr	r6, [pc, #28]	; (b4078 <module_user_init+0x20>)
   b405c:	4c07      	ldr	r4, [pc, #28]	; (b407c <module_user_init+0x24>)
    module_user_init_hook();
   b405e:	f003 fae3 	bl	b7628 <module_user_init_hook>
    for (size_t ctor_num=0; ctor_num < link_constructors_size/sizeof(constructor_ptr_t); ctor_num++ )
   b4062:	1ba4      	subs	r4, r4, r6
   b4064:	08a4      	lsrs	r4, r4, #2
   b4066:	2500      	movs	r5, #0
   b4068:	42ac      	cmp	r4, r5
   b406a:	d100      	bne.n	b406e <module_user_init+0x16>
    {
        link_constructors_location[ctor_num]();
    }
}
   b406c:	bd70      	pop	{r4, r5, r6, pc}
        link_constructors_location[ctor_num]();
   b406e:	f856 3b04 	ldr.w	r3, [r6], #4
   b4072:	4798      	blx	r3
    for (size_t ctor_num=0; ctor_num < link_constructors_size/sizeof(constructor_ptr_t); ctor_num++ )
   b4074:	3501      	adds	r5, #1
   b4076:	e7f7      	b.n	b4068 <module_user_init+0x10>
   b4078:	000b9250 	.word	0x000b9250
   b407c:	000b9274 	.word	0x000b9274

000b4080 <module_user_setup>:

/**
 * Export these functions with a fuller name so they don't clash with the setup/loop wrappers in the system module.
 */
void module_user_setup() {
    setup();
   b4080:	f000 bd74 	b.w	b4b6c <setup>

000b4084 <module_user_loop>:
}

void module_user_loop() {
   b4084:	b508      	push	{r3, lr}
    loop();
   b4086:	f000 fce9 	bl	b4a5c <loop>
    _post_loop();
}
   b408a:	e8bd 4008 	ldmia.w	sp!, {r3, lr}
    _post_loop();
   b408e:	f003 ba83 	b.w	b7598 <_post_loop>

000b4092 <_Znwj>:
 * Implement C++ new/delete operators using the heap
 */

void *operator new(size_t size)
{
	return malloc(size);
   b4092:	f002 ba7b 	b.w	b658c <malloc>

000b4096 <_Znaj>:
   b4096:	f002 ba79 	b.w	b658c <malloc>

000b409a <_ZdlPvj>:
	free(p);
}

void operator delete(void *p, size_t size)
{
	free(p);
   b409a:	f002 ba7f 	b.w	b659c <free>
	...

000b40a0 <__cxa_pure_virtual>:
char* strerror(int errnum) {
    return (char*)"";
}

/* Default implementation for call made to pure virtual function. */
void __cxa_pure_virtual() {
   b40a0:	b508      	push	{r3, lr}
  PANIC(PureVirtualCall,"Call on pure virtual");
   b40a2:	4a03      	ldr	r2, [pc, #12]	; (b40b0 <__cxa_pure_virtual+0x10>)
   b40a4:	4903      	ldr	r1, [pc, #12]	; (b40b4 <__cxa_pure_virtual+0x14>)
   b40a6:	200c      	movs	r0, #12
   b40a8:	f002 f9c4 	bl	b6434 <panic_>
  while (1);
   b40ac:	e7fe      	b.n	b40ac <__cxa_pure_virtual+0xc>
   b40ae:	bf00      	nop
   b40b0:	000b60a5 	.word	0x000b60a5
   b40b4:	000b7e04 	.word	0x000b7e04

000b40b8 <__cxa_guard_acquire>:

/* Provide default implemenation for __cxa_guard_acquire() and
 * __cxa_guard_release(). Note: these must be revisited if a multitasking
 * OS is ported to this platform. */
__extension__ typedef int __guard __attribute__((mode (__DI__)));
int __cxa_guard_acquire(__guard *g) {return !*(char *)(g);};
   b40b8:	7800      	ldrb	r0, [r0, #0]
   b40ba:	fab0 f080 	clz	r0, r0
   b40be:	0940      	lsrs	r0, r0, #5
   b40c0:	4770      	bx	lr

000b40c2 <__cxa_guard_release>:
void __cxa_guard_release (__guard *g) {*(char *)g = 1;};
   b40c2:	2301      	movs	r3, #1
   b40c4:	7003      	strb	r3, [r0, #0]
   b40c6:	4770      	bx	lr

000b40c8 <_ZN10CloudClass7processEv>:
    static bool disconnected(void) { return !connected(); }
    static void connect(void) {
        spark_cloud_flag_connect();
    }
    static void disconnect(const CloudDisconnectOptions& options = CloudDisconnectOptions());
    static void process(void) {
   b40c8:	b508      	push	{r3, lr}
		return !timeout_fn;
	}

	static inline system_tick_t current_time()
	{
		return HAL_Timer_Get_Milli_Seconds();
   b40ca:	f001 fff3 	bl	b60b4 <HAL_Timer_Get_Milli_Seconds>
	/**
	 * Lifesign that the application is still working normally.
	 */
	static void checkin()
	{
		last_checkin = current_time();
   b40ce:	4b03      	ldr	r3, [pc, #12]	; (b40dc <_ZN10CloudClass7processEv+0x14>)
   b40d0:	6018      	str	r0, [r3, #0]
    		application_checkin();
    		spark_process();
    }
   b40d2:	e8bd 4008 	ldmia.w	sp!, {r3, lr}
    		spark_process();
   b40d6:	f002 b9e9 	b.w	b64ac <spark_process>
   b40da:	bf00      	nop
   b40dc:	2003e728 	.word	0x2003e728

000b40e0 <_ZNK10BlynkParam8iterator5asIntEv>:
#endif
#if !defined(BLYNK_NO_FLOAT)
        double      asDouble() const    { if(!isValid()) return 0; return atof(ptr); }
        float       asFloat() const     { if(!isValid()) return 0; return atof(ptr); }
#endif
        bool isValid() const            { return ptr != NULL && ptr < limit; }
   b40e0:	6803      	ldr	r3, [r0, #0]
   b40e2:	b12b      	cbz	r3, b40f0 <_ZNK10BlynkParam8iterator5asIntEv+0x10>
   b40e4:	6842      	ldr	r2, [r0, #4]
   b40e6:	4293      	cmp	r3, r2
   b40e8:	d202      	bcs.n	b40f0 <_ZNK10BlynkParam8iterator5asIntEv+0x10>
        int         asInt() const       { if(!isValid()) return 0; return atoi(ptr); }
   b40ea:	4618      	mov	r0, r3
   b40ec:	f003 bd1c 	b.w	b7b28 <atoi>
   b40f0:	2000      	movs	r0, #0
   b40f2:	4770      	bx	lr

000b40f4 <_ZN10BlynkParam8iteratorppEv>:
        bool isEmpty() const            { if(!isValid()) return true; return *ptr == '\0'; }

        bool operator <  (const iterator& it) const { return ptr < it.ptr; }
        bool operator >= (const iterator& it) const { return ptr >= it.ptr; }

        iterator& operator ++() {
   b40f4:	b538      	push	{r3, r4, r5, lr}
        bool isValid() const            { return ptr != NULL && ptr < limit; }
   b40f6:	6805      	ldr	r5, [r0, #0]
        iterator& operator ++() {
   b40f8:	4604      	mov	r4, r0
        bool isValid() const            { return ptr != NULL && ptr < limit; }
   b40fa:	b145      	cbz	r5, b410e <_ZN10BlynkParam8iteratorppEv+0x1a>
   b40fc:	6843      	ldr	r3, [r0, #4]
   b40fe:	429d      	cmp	r5, r3
   b4100:	d205      	bcs.n	b410e <_ZN10BlynkParam8iteratorppEv+0x1a>
            if(isValid()) {
                ptr += strlen(ptr) + 1;
   b4102:	4628      	mov	r0, r5
   b4104:	f003 fd66 	bl	b7bd4 <strlen>
   b4108:	3001      	adds	r0, #1
   b410a:	4405      	add	r5, r0
   b410c:	6025      	str	r5, [r4, #0]
            }
            return *this;
        }
   b410e:	4620      	mov	r0, r4
   b4110:	bd38      	pop	{r3, r4, r5, pc}

000b4112 <_ZN10BlynkParam3addEPKc>:
    len += l;
}

inline
void BlynkParam::add(const char* str)
{
   b4112:	b5f8      	push	{r3, r4, r5, r6, r7, lr}
   b4114:	4604      	mov	r4, r0
   b4116:	6847      	ldr	r7, [r0, #4]
    if (str == NULL) {
   b4118:	460d      	mov	r5, r1
   b411a:	b921      	cbnz	r1, b4126 <_ZN10BlynkParam3addEPKc+0x14>
        buff[len++] = '\0';
   b411c:	6803      	ldr	r3, [r0, #0]
   b411e:	1c7a      	adds	r2, r7, #1
   b4120:	6042      	str	r2, [r0, #4]
   b4122:	55d9      	strb	r1, [r3, r7]
        return;
    }
    add(str, strlen(str)+1);
}
   b4124:	bdf8      	pop	{r3, r4, r5, r6, r7, pc}
    add(str, strlen(str)+1);
   b4126:	4608      	mov	r0, r1
   b4128:	f003 fd54 	bl	b7bd4 <strlen>
    if (len + l > buff_size)
   b412c:	68a3      	ldr	r3, [r4, #8]
    add(str, strlen(str)+1);
   b412e:	1c46      	adds	r6, r0, #1
    if (len + l > buff_size)
   b4130:	19f2      	adds	r2, r6, r7
   b4132:	429a      	cmp	r2, r3
   b4134:	d8f6      	bhi.n	b4124 <_ZN10BlynkParam3addEPKc+0x12>
    memcpy(buff+len, b, l);
   b4136:	6820      	ldr	r0, [r4, #0]
   b4138:	4632      	mov	r2, r6
   b413a:	4629      	mov	r1, r5
   b413c:	4438      	add	r0, r7
   b413e:	f003 fcfb 	bl	b7b38 <memcpy>
    len += l;
   b4142:	6860      	ldr	r0, [r4, #4]
   b4144:	4430      	add	r0, r6
   b4146:	6060      	str	r0, [r4, #4]
   b4148:	e7ec      	b.n	b4124 <_ZN10BlynkParam3addEPKc+0x12>
	...

000b414c <_ZN10BlynkParam3addEi>:

    #include <stdio.h>

    inline
    void BlynkParam::add(int value)
    {
   b414c:	b538      	push	{r3, r4, r5, lr}
   b414e:	4604      	mov	r4, r0
   b4150:	460b      	mov	r3, r1
        len += snprintf(buff+len, buff_size-len, "%i", value)+1;
   b4152:	e9d0 0101 	ldrd	r0, r1, [r0, #4]
   b4156:	6825      	ldr	r5, [r4, #0]
   b4158:	4a04      	ldr	r2, [pc, #16]	; (b416c <_ZN10BlynkParam3addEi+0x20>)
   b415a:	1a09      	subs	r1, r1, r0
   b415c:	4428      	add	r0, r5
   b415e:	f002 fa25 	bl	b65ac <snprintf>
   b4162:	6863      	ldr	r3, [r4, #4]
   b4164:	3001      	adds	r0, #1
   b4166:	4403      	add	r3, r0
   b4168:	6063      	str	r3, [r4, #4]
    }
   b416a:	bd38      	pop	{r3, r4, r5, pc}
   b416c:	000b7e19 	.word	0x000b7e19

000b4170 <_ZN10BlynkParam3addEl>:
        len += snprintf(buff+len, buff_size-len, "%u", value)+1;
    }

    inline
    void BlynkParam::add(long value)
    {
   b4170:	b538      	push	{r3, r4, r5, lr}
   b4172:	4604      	mov	r4, r0
   b4174:	460b      	mov	r3, r1
        len += snprintf(buff+len, buff_size-len, "%li", value)+1;
   b4176:	e9d0 0101 	ldrd	r0, r1, [r0, #4]
   b417a:	6825      	ldr	r5, [r4, #0]
   b417c:	4a04      	ldr	r2, [pc, #16]	; (b4190 <_ZN10BlynkParam3addEl+0x20>)
   b417e:	1a09      	subs	r1, r1, r0
   b4180:	4428      	add	r0, r5
   b4182:	f002 fa13 	bl	b65ac <snprintf>
   b4186:	6863      	ldr	r3, [r4, #4]
   b4188:	3001      	adds	r0, #1
   b418a:	4403      	add	r3, r0
   b418c:	6063      	str	r3, [r4, #4]
    }
   b418e:	bd38      	pop	{r3, r4, r5, pc}
   b4190:	000b7e1c 	.word	0x000b7e1c

000b4194 <_Z4readhh>:
const uint8_t PROXIMITY_COMMAND = 0x08;
const uint8_t LIGHT_COMMAND = 0x09;
const uint8_t LIGHT_ENABLE = 0x00;
const uint8_t PROX_ENABLE = 0x03;

unsigned int read(uint8_t address, uint8_t command) {
   b4194:	b538      	push	{r3, r4, r5, lr}
   b4196:	4604      	mov	r4, r0
   b4198:	460d      	mov	r5, r1
  Wire.beginTransmission(address);
   b419a:	f003 fb47 	bl	b782c <_Z19__fetch_global_Wirev>
   b419e:	4621      	mov	r1, r4
   b41a0:	f002 faea 	bl	b6778 <_ZN7TwoWire17beginTransmissionEh>
  Wire.write(command);
   b41a4:	f003 fb42 	bl	b782c <_Z19__fetch_global_Wirev>
   b41a8:	6803      	ldr	r3, [r0, #0]
   b41aa:	4629      	mov	r1, r5
   b41ac:	689b      	ldr	r3, [r3, #8]
   b41ae:	4798      	blx	r3
  Wire.endTransmission(false);
   b41b0:	f003 fb3c 	bl	b782c <_Z19__fetch_global_Wirev>
   b41b4:	2100      	movs	r1, #0
   b41b6:	f002 fae6 	bl	b6786 <_ZN7TwoWire15endTransmissionEh>

  Wire.requestFrom(address, 2);
   b41ba:	f003 fb37 	bl	b782c <_Z19__fetch_global_Wirev>
   b41be:	4621      	mov	r1, r4
   b41c0:	2202      	movs	r2, #2
   b41c2:	f002 fad6 	bl	b6772 <_ZN7TwoWire11requestFromEhj>
  uint8_t lsb = Wire.read();
   b41c6:	f003 fb31 	bl	b782c <_Z19__fetch_global_Wirev>
   b41ca:	6803      	ldr	r3, [r0, #0]
   b41cc:	695b      	ldr	r3, [r3, #20]
   b41ce:	4798      	blx	r3
   b41d0:	4604      	mov	r4, r0
  uint8_t msb = Wire.read();
   b41d2:	f003 fb2b 	bl	b782c <_Z19__fetch_global_Wirev>
   b41d6:	6803      	ldr	r3, [r0, #0]
   b41d8:	695b      	ldr	r3, [r3, #20]
   b41da:	4798      	blx	r3

  return (unsigned int)((uint16_t)msb << 8 | lsb);
   b41dc:	0200      	lsls	r0, r0, #8
   b41de:	b2e4      	uxtb	r4, r4
   b41e0:	b280      	uxth	r0, r0
}
   b41e2:	4320      	orrs	r0, r4
   b41e4:	bd38      	pop	{r3, r4, r5, pc}

000b41e6 <_ZN13BlynkProtocolI22BlynkTransportParticleE17internalReconnectEv>:
#endif
    }

private:

    void internalReconnect() {
   b41e6:	b508      	push	{r3, lr}
        state = CONNECTING;
   b41e8:	2300      	movs	r3, #0
   b41ea:	7743      	strb	r3, [r0, #29]
            return (1 == client.connect(addr, port));
        }
        return 0;
    }

    void disconnect() { client.stop(); }
   b41ec:	6800      	ldr	r0, [r0, #0]
   b41ee:	f003 f835 	bl	b725c <_ZN9TCPClient4stopEv>
        conn.disconnect();
        BlynkOnDisconnected();
    }
   b41f2:	e8bd 4008 	ldmia.w	sp!, {r3, lr}
        BlynkOnDisconnected();
   b41f6:	f001 be78 	b.w	b5eea <BlynkNoOpCbk>
	...

000b41fc <_ZN8BlynkApiI13BlynkProtocolI22BlynkTransportParticleEE10processCmdEPKvj>:
    #endif
#endif

template<class Proto>
BLYNK_FORCE_INLINE
void BlynkApi<Proto>::processCmd(const void* buff, size_t len)
   b41fc:	e92d 43f0 	stmdb	sp!, {r4, r5, r6, r7, r8, r9, lr}
    iterator begin() const { return iterator(buff, buff+len); }
   b4200:	188f      	adds	r7, r1, r2
   b4202:	b08f      	sub	sp, #60	; 0x3c
{
    BlynkParam param((void*)buff, len);
    BlynkParam::iterator it = param.begin();
    if (it >= param.end())
   b4204:	42b9      	cmp	r1, r7
        iterator(const char* c, const char* l) : ptr(c), limit(l) {}
   b4206:	e9cd 1705 	strd	r1, r7, [sp, #20]
void BlynkApi<Proto>::processCmd(const void* buff, size_t len)
   b420a:	4606      	mov	r6, r0
   b420c:	4689      	mov	r9, r1
   b420e:	4690      	mov	r8, r2
    if (it >= param.end())
   b4210:	f080 80c2 	bcs.w	b4398 <_ZN8BlynkApiI13BlynkProtocolI22BlynkTransportParticleEE10processCmdEPKvj+0x19c>
        return;
    const char* cmd = it.asStr();
    uint16_t cmd16;
    memcpy(&cmd16, cmd, sizeof(cmd16));
    if (++it >= param.end())
   b4214:	a805      	add	r0, sp, #20
   b4216:	880d      	ldrh	r5, [r1, #0]
   b4218:	f7ff ff6c 	bl	b40f4 <_ZN10BlynkParam8iteratorppEv>
   b421c:	6803      	ldr	r3, [r0, #0]
   b421e:	42bb      	cmp	r3, r7
   b4220:	f080 80ba 	bcs.w	b4398 <_ZN8BlynkApiI13BlynkProtocolI22BlynkTransportParticleEE10processCmdEPKvj+0x19c>
        const char* asStr() const       { return ptr; }
   b4224:	9805      	ldr	r0, [sp, #20]
        return;

    const uint8_t pin = BLYNK_DECODE_PIN(it);
   b4226:	7803      	ldrb	r3, [r0, #0]
   b4228:	2b41      	cmp	r3, #65	; 0x41
   b422a:	d149      	bne.n	b42c0 <_ZN8BlynkApiI13BlynkProtocolI22BlynkTransportParticleEE10processCmdEPKvj+0xc4>
   b422c:	3001      	adds	r0, #1
   b422e:	f003 fc7b 	bl	b7b28 <atoi>
   b4232:	2805      	cmp	r0, #5
   b4234:	dd37      	ble.n	b42a6 <_ZN8BlynkApiI13BlynkProtocolI22BlynkTransportParticleEE10processCmdEPKvj+0xaa>
   b4236:	24ff      	movs	r4, #255	; 0xff

    switch(cmd16) {
   b4238:	f247 2376 	movw	r3, #29302	; 0x7276
   b423c:	429d      	cmp	r5, r3
   b423e:	f000 80d3 	beq.w	b43e8 <_ZN8BlynkApiI13BlynkProtocolI22BlynkTransportParticleEE10processCmdEPKvj+0x1ec>
   b4242:	d841      	bhi.n	b42c8 <_ZN8BlynkApiI13BlynkProtocolI22BlynkTransportParticleEE10processCmdEPKvj+0xcc>
   b4244:	f247 2361 	movw	r3, #29281	; 0x7261
   b4248:	429d      	cmp	r5, r3
   b424a:	f000 80a8 	beq.w	b439e <_ZN8BlynkApiI13BlynkProtocolI22BlynkTransportParticleEE10processCmdEPKvj+0x1a2>
   b424e:	f247 2364 	movw	r3, #29284	; 0x7264
   b4252:	429d      	cmp	r5, r3
   b4254:	d06b      	beq.n	b432e <_ZN8BlynkApiI13BlynkProtocolI22BlynkTransportParticleEE10processCmdEPKvj+0x132>
   b4256:	f646 5370 	movw	r3, #28016	; 0x6d70
   b425a:	429d      	cmp	r5, r3
   b425c:	d141      	bne.n	b42e2 <_ZN8BlynkApiI13BlynkProtocolI22BlynkTransportParticleEE10processCmdEPKvj+0xe6>

    case BLYNK_HW_PM: {
        while (it < param.end()) {
            const uint8_t pin = BLYNK_DECODE_PIN(it);
            ++it;
            if (!strcmp(it.asStr(), "in")) {
   b425e:	4d78      	ldr	r5, [pc, #480]	; (b4440 <_ZN8BlynkApiI13BlynkProtocolI22BlynkTransportParticleEE10processCmdEPKvj+0x244>)
                pinMode(pin, INPUT);
            } else if (!strcmp(it.asStr(), "out") || !strcmp(it.asStr(), "pwm")) {
   b4260:	4e78      	ldr	r6, [pc, #480]	; (b4444 <_ZN8BlynkApiI13BlynkProtocolI22BlynkTransportParticleEE10processCmdEPKvj+0x248>)
   b4262:	f8df 81f4 	ldr.w	r8, [pc, #500]	; b4458 <_ZN8BlynkApiI13BlynkProtocolI22BlynkTransportParticleEE10processCmdEPKvj+0x25c>
        bool operator <  (const iterator& it) const { return ptr < it.ptr; }
   b4266:	9805      	ldr	r0, [sp, #20]
        while (it < param.end()) {
   b4268:	42b8      	cmp	r0, r7
   b426a:	f080 8095 	bcs.w	b4398 <_ZN8BlynkApiI13BlynkProtocolI22BlynkTransportParticleEE10processCmdEPKvj+0x19c>
            const uint8_t pin = BLYNK_DECODE_PIN(it);
   b426e:	7803      	ldrb	r3, [r0, #0]
   b4270:	2b41      	cmp	r3, #65	; 0x41
   b4272:	d14b      	bne.n	b430c <_ZN8BlynkApiI13BlynkProtocolI22BlynkTransportParticleEE10processCmdEPKvj+0x110>
   b4274:	3001      	adds	r0, #1
   b4276:	f003 fc57 	bl	b7b28 <atoi>
   b427a:	2805      	cmp	r0, #5
   b427c:	dd39      	ble.n	b42f2 <_ZN8BlynkApiI13BlynkProtocolI22BlynkTransportParticleEE10processCmdEPKvj+0xf6>
   b427e:	24ff      	movs	r4, #255	; 0xff
            ++it;
   b4280:	a805      	add	r0, sp, #20
   b4282:	f7ff ff37 	bl	b40f4 <_ZN10BlynkParam8iteratorppEv>
        const char* asStr() const       { return ptr; }
   b4286:	f8dd 9014 	ldr.w	r9, [sp, #20]
            if (!strcmp(it.asStr(), "in")) {
   b428a:	4629      	mov	r1, r5
   b428c:	4648      	mov	r0, r9
   b428e:	f003 fc97 	bl	b7bc0 <strcmp>
   b4292:	4601      	mov	r1, r0
   b4294:	2800      	cmp	r0, #0
   b4296:	d13d      	bne.n	b4314 <_ZN8BlynkApiI13BlynkProtocolI22BlynkTransportParticleEE10processCmdEPKvj+0x118>
                pinMode(pin, OUTPUT);
   b4298:	4620      	mov	r0, r4
   b429a:	f003 fa35 	bl	b7708 <pinMode>
            } else {
#ifdef BLYNK_DEBUG
                BLYNK_LOG4(BLYNK_F("Invalid pin "), pin, BLYNK_F(" mode "), it.asStr());
#endif
            }
            ++it;
   b429e:	a805      	add	r0, sp, #20
   b42a0:	f7ff ff28 	bl	b40f4 <_ZN10BlynkParam8iteratorppEv>
        while (it < param.end()) {
   b42a4:	e7df      	b.n	b4266 <_ZN8BlynkApiI13BlynkProtocolI22BlynkTransportParticleEE10processCmdEPKvj+0x6a>
    const uint8_t pin = BLYNK_DECODE_PIN(it);
   b42a6:	9805      	ldr	r0, [sp, #20]
   b42a8:	3001      	adds	r0, #1
   b42aa:	f003 fc3d 	bl	b7b28 <atoi>
   b42ae:	2800      	cmp	r0, #0
   b42b0:	dbc1      	blt.n	b4236 <_ZN8BlynkApiI13BlynkProtocolI22BlynkTransportParticleEE10processCmdEPKvj+0x3a>
   b42b2:	9805      	ldr	r0, [sp, #20]
   b42b4:	3001      	adds	r0, #1
   b42b6:	f003 fc37 	bl	b7b28 <atoi>
   b42ba:	300e      	adds	r0, #14
   b42bc:	b2c4      	uxtb	r4, r0
   b42be:	e7bb      	b.n	b4238 <_ZN8BlynkApiI13BlynkProtocolI22BlynkTransportParticleEE10processCmdEPKvj+0x3c>
   b42c0:	a805      	add	r0, sp, #20
   b42c2:	f7ff ff0d 	bl	b40e0 <_ZNK10BlynkParam8iterator5asIntEv>
   b42c6:	e7f9      	b.n	b42bc <_ZN8BlynkApiI13BlynkProtocolI22BlynkTransportParticleEE10processCmdEPKvj+0xc0>
    switch(cmd16) {
   b42c8:	f247 7364 	movw	r3, #30564	; 0x7764
   b42cc:	429d      	cmp	r5, r3
   b42ce:	d04f      	beq.n	b4370 <_ZN8BlynkApiI13BlynkProtocolI22BlynkTransportParticleEE10processCmdEPKvj+0x174>
   b42d0:	f247 7376 	movw	r3, #30582	; 0x7776
   b42d4:	429d      	cmp	r5, r3
   b42d6:	f000 8097 	beq.w	b4408 <_ZN8BlynkApiI13BlynkProtocolI22BlynkTransportParticleEE10processCmdEPKvj+0x20c>
   b42da:	f247 7361 	movw	r3, #30561	; 0x7761
   b42de:	429d      	cmp	r5, r3
   b42e0:	d06f      	beq.n	b43c2 <_ZN8BlynkApiI13BlynkProtocolI22BlynkTransportParticleEE10processCmdEPKvj+0x1c6>
        BlynkParam param2(start, len - (start - (char*)buff));
        callWriteHandler(pin, param2);
    } break;
    default:
        BLYNK_LOG2(BLYNK_F("Invalid HW cmd: "), cmd);
        static_cast<Proto*>(this)->sendCmd(BLYNK_CMD_RESPONSE, static_cast<Proto*>(this)->msgIdOutOverride, NULL, BLYNK_ILLEGAL_COMMAND);
   b42e2:	2300      	movs	r3, #0
   b42e4:	e9cd 3301 	strd	r3, r3, [sp, #4]
   b42e8:	2202      	movs	r2, #2
   b42ea:	9200      	str	r2, [sp, #0]
   b42ec:	8b72      	ldrh	r2, [r6, #26]
   b42ee:	4619      	mov	r1, r3
   b42f0:	e03a      	b.n	b4368 <_ZN8BlynkApiI13BlynkProtocolI22BlynkTransportParticleEE10processCmdEPKvj+0x16c>
            const uint8_t pin = BLYNK_DECODE_PIN(it);
   b42f2:	9805      	ldr	r0, [sp, #20]
   b42f4:	3001      	adds	r0, #1
   b42f6:	f003 fc17 	bl	b7b28 <atoi>
   b42fa:	2800      	cmp	r0, #0
   b42fc:	dbbf      	blt.n	b427e <_ZN8BlynkApiI13BlynkProtocolI22BlynkTransportParticleEE10processCmdEPKvj+0x82>
   b42fe:	9805      	ldr	r0, [sp, #20]
   b4300:	3001      	adds	r0, #1
   b4302:	f003 fc11 	bl	b7b28 <atoi>
   b4306:	300e      	adds	r0, #14
   b4308:	b2c4      	uxtb	r4, r0
   b430a:	e7b9      	b.n	b4280 <_ZN8BlynkApiI13BlynkProtocolI22BlynkTransportParticleEE10processCmdEPKvj+0x84>
   b430c:	a805      	add	r0, sp, #20
   b430e:	f7ff fee7 	bl	b40e0 <_ZNK10BlynkParam8iterator5asIntEv>
   b4312:	e7f9      	b.n	b4308 <_ZN8BlynkApiI13BlynkProtocolI22BlynkTransportParticleEE10processCmdEPKvj+0x10c>
            } else if (!strcmp(it.asStr(), "out") || !strcmp(it.asStr(), "pwm")) {
   b4314:	4631      	mov	r1, r6
   b4316:	4648      	mov	r0, r9
   b4318:	f003 fc52 	bl	b7bc0 <strcmp>
   b431c:	b128      	cbz	r0, b432a <_ZN8BlynkApiI13BlynkProtocolI22BlynkTransportParticleEE10processCmdEPKvj+0x12e>
   b431e:	4641      	mov	r1, r8
   b4320:	4648      	mov	r0, r9
   b4322:	f003 fc4d 	bl	b7bc0 <strcmp>
   b4326:	2800      	cmp	r0, #0
   b4328:	d1b9      	bne.n	b429e <_ZN8BlynkApiI13BlynkProtocolI22BlynkTransportParticleEE10processCmdEPKvj+0xa2>
                pinMode(pin, OUTPUT);
   b432a:	2101      	movs	r1, #1
   b432c:	e7b4      	b.n	b4298 <_ZN8BlynkApiI13BlynkProtocolI22BlynkTransportParticleEE10processCmdEPKvj+0x9c>
        : buff((char*)addr), len(length), buff_size(buffsize)
   b432e:	ab0a      	add	r3, sp, #40	; 0x28
        rsp.add("dw");
   b4330:	4945      	ldr	r1, [pc, #276]	; (b4448 <_ZN8BlynkApiI13BlynkProtocolI22BlynkTransportParticleEE10processCmdEPKvj+0x24c>)
   b4332:	9307      	str	r3, [sp, #28]
   b4334:	a807      	add	r0, sp, #28
   b4336:	2310      	movs	r3, #16
   b4338:	2500      	movs	r5, #0
   b433a:	e9cd 5308 	strd	r5, r3, [sp, #32]
   b433e:	f7ff fee8 	bl	b4112 <_ZN10BlynkParam3addEPKc>
        rsp.add(pin);
   b4342:	a807      	add	r0, sp, #28
   b4344:	4621      	mov	r1, r4
   b4346:	f7ff ff01 	bl	b414c <_ZN10BlynkParam3addEi>
        rsp.add(digitalRead(pin));
   b434a:	4620      	mov	r0, r4
   b434c:	f003 fa06 	bl	b775c <digitalRead>
        rsp.add(analogRead(pin));
   b4350:	4601      	mov	r1, r0
   b4352:	a807      	add	r0, sp, #28
   b4354:	f7ff ff0c 	bl	b4170 <_ZN10BlynkParam3addEl>
        static_cast<Proto*>(this)->sendCmd(BLYNK_CMD_HARDWARE, 0, rsp.getBuffer(), rsp.getLength()-1);
   b4358:	9b08      	ldr	r3, [sp, #32]
   b435a:	e9cd 5501 	strd	r5, r5, [sp, #4]
   b435e:	3b01      	subs	r3, #1
   b4360:	9300      	str	r3, [sp, #0]
   b4362:	9b07      	ldr	r3, [sp, #28]
   b4364:	462a      	mov	r2, r5
   b4366:	2114      	movs	r1, #20
        static_cast<Proto*>(this)->sendCmd(BLYNK_CMD_RESPONSE, static_cast<Proto*>(this)->msgIdOutOverride, NULL, BLYNK_ILLEGAL_COMMAND);
   b4368:	4630      	mov	r0, r6
   b436a:	f000 fa83 	bl	b4874 <_ZN13BlynkProtocolI22BlynkTransportParticleE7sendCmdEhtPKvjS3_j>
   b436e:	e013      	b.n	b4398 <_ZN8BlynkApiI13BlynkProtocolI22BlynkTransportParticleEE10processCmdEPKvj+0x19c>
        if (++it >= param.end())
   b4370:	a805      	add	r0, sp, #20
   b4372:	f7ff febf 	bl	b40f4 <_ZN10BlynkParam8iteratorppEv>
   b4376:	6803      	ldr	r3, [r0, #0]
   b4378:	429f      	cmp	r7, r3
   b437a:	d90d      	bls.n	b4398 <_ZN8BlynkApiI13BlynkProtocolI22BlynkTransportParticleEE10processCmdEPKvj+0x19c>
        pinMode(pin, OUTPUT);
   b437c:	b2a4      	uxth	r4, r4
   b437e:	2101      	movs	r1, #1
   b4380:	4620      	mov	r0, r4
   b4382:	f003 f9c1 	bl	b7708 <pinMode>
        digitalWrite(pin, it.asInt() ? HIGH : LOW);
   b4386:	a805      	add	r0, sp, #20
   b4388:	f7ff feaa 	bl	b40e0 <_ZNK10BlynkParam8iterator5asIntEv>
   b438c:	1e01      	subs	r1, r0, #0
   b438e:	bf18      	it	ne
   b4390:	2101      	movne	r1, #1
   b4392:	4620      	mov	r0, r4
   b4394:	f003 f9c9 	bl	b772a <digitalWrite>
    }
}
   b4398:	b00f      	add	sp, #60	; 0x3c
   b439a:	e8bd 83f0 	ldmia.w	sp!, {r4, r5, r6, r7, r8, r9, pc}
   b439e:	ab0a      	add	r3, sp, #40	; 0x28
   b43a0:	9307      	str	r3, [sp, #28]
        rsp.add("aw");
   b43a2:	a807      	add	r0, sp, #28
   b43a4:	2310      	movs	r3, #16
   b43a6:	4929      	ldr	r1, [pc, #164]	; (b444c <_ZN8BlynkApiI13BlynkProtocolI22BlynkTransportParticleEE10processCmdEPKvj+0x250>)
   b43a8:	2500      	movs	r5, #0
   b43aa:	e9cd 5308 	strd	r5, r3, [sp, #32]
   b43ae:	f7ff feb0 	bl	b4112 <_ZN10BlynkParam3addEPKc>
        rsp.add(pin);
   b43b2:	a807      	add	r0, sp, #28
   b43b4:	4621      	mov	r1, r4
   b43b6:	f7ff fec9 	bl	b414c <_ZN10BlynkParam3addEi>
        rsp.add(analogRead(pin));
   b43ba:	4620      	mov	r0, r4
   b43bc:	f003 f9e1 	bl	b7782 <analogRead>
   b43c0:	e7c6      	b.n	b4350 <_ZN8BlynkApiI13BlynkProtocolI22BlynkTransportParticleEE10processCmdEPKvj+0x154>
        if (++it >= param.end())
   b43c2:	a805      	add	r0, sp, #20
   b43c4:	f7ff fe96 	bl	b40f4 <_ZN10BlynkParam8iteratorppEv>
   b43c8:	6803      	ldr	r3, [r0, #0]
   b43ca:	429f      	cmp	r7, r3
   b43cc:	d9e4      	bls.n	b4398 <_ZN8BlynkApiI13BlynkProtocolI22BlynkTransportParticleEE10processCmdEPKvj+0x19c>
        pinMode(pin, OUTPUT);
   b43ce:	b2a4      	uxth	r4, r4
   b43d0:	2101      	movs	r1, #1
   b43d2:	4620      	mov	r0, r4
   b43d4:	f003 f998 	bl	b7708 <pinMode>
        analogWrite(pin, it.asInt());
   b43d8:	a805      	add	r0, sp, #20
   b43da:	f7ff fe81 	bl	b40e0 <_ZNK10BlynkParam8iterator5asIntEv>
   b43de:	4601      	mov	r1, r0
   b43e0:	4620      	mov	r0, r4
   b43e2:	f003 f9e5 	bl	b77b0 <_Z11analogWritetm>
    } break;
   b43e6:	e7d7      	b.n	b4398 <_ZN8BlynkApiI13BlynkProtocolI22BlynkTransportParticleEE10processCmdEPKvj+0x19c>
        }
    }

    void callReadHandler(int pin) {
        BlynkReq req = { (uint8_t)pin };
        WidgetReadHandler handler = GetReadHandler(pin);
   b43e8:	4620      	mov	r0, r4
        BlynkReq req = { (uint8_t)pin };
   b43ea:	f88d 4028 	strb.w	r4, [sp, #40]	; 0x28
        WidgetReadHandler handler = GetReadHandler(pin);
   b43ee:	f001 fd7d 	bl	b5eec <GetReadHandler>
        if (handler && (handler != BlynkWidgetRead)) {
   b43f2:	4603      	mov	r3, r0
            handler(req);
   b43f4:	a80a      	add	r0, sp, #40	; 0x28
        if (handler && (handler != BlynkWidgetRead)) {
   b43f6:	b123      	cbz	r3, b4402 <_ZN8BlynkApiI13BlynkProtocolI22BlynkTransportParticleEE10processCmdEPKvj+0x206>
   b43f8:	4a15      	ldr	r2, [pc, #84]	; (b4450 <_ZN8BlynkApiI13BlynkProtocolI22BlynkTransportParticleEE10processCmdEPKvj+0x254>)
   b43fa:	4293      	cmp	r3, r2
   b43fc:	d001      	beq.n	b4402 <_ZN8BlynkApiI13BlynkProtocolI22BlynkTransportParticleEE10processCmdEPKvj+0x206>
            handler(req);
   b43fe:	4798      	blx	r3
   b4400:	e7ca      	b.n	b4398 <_ZN8BlynkApiI13BlynkProtocolI22BlynkTransportParticleEE10processCmdEPKvj+0x19c>
        } else {
            BlynkWidgetReadDefault(req);
   b4402:	f001 fd70 	bl	b5ee6 <BlynkWidgetRead>
        }
    }
   b4406:	e7c7      	b.n	b4398 <_ZN8BlynkApiI13BlynkProtocolI22BlynkTransportParticleEE10processCmdEPKvj+0x19c>
        ++it;
   b4408:	a805      	add	r0, sp, #20
   b440a:	f7ff fe73 	bl	b40f4 <_ZN10BlynkParam8iteratorppEv>
        const char* asStr() const       { return ptr; }
   b440e:	9b05      	ldr	r3, [sp, #20]
        BlynkReq req = { (uint8_t)pin };
   b4410:	f88d 401c 	strb.w	r4, [sp, #28]
        BlynkParam param2(start, len - (start - (char*)buff));
   b4414:	eba3 0109 	sub.w	r1, r3, r9
   b4418:	eba8 0101 	sub.w	r1, r8, r1
        WidgetWriteHandler handler = GetWriteHandler(pin);
   b441c:	4620      	mov	r0, r4
        : buff((char*)addr), len(length), buff_size(length)
   b441e:	e9cd 310a 	strd	r3, r1, [sp, #40]	; 0x28
   b4422:	910c      	str	r1, [sp, #48]	; 0x30
   b4424:	f001 fd6c 	bl	b5f00 <GetWriteHandler>
        if (handler && (handler != BlynkWidgetWrite)) {
   b4428:	4603      	mov	r3, r0
            handler(req, param);
   b442a:	a90a      	add	r1, sp, #40	; 0x28
   b442c:	a807      	add	r0, sp, #28
        if (handler && (handler != BlynkWidgetWrite)) {
   b442e:	b123      	cbz	r3, b443a <_ZN8BlynkApiI13BlynkProtocolI22BlynkTransportParticleEE10processCmdEPKvj+0x23e>
   b4430:	4a08      	ldr	r2, [pc, #32]	; (b4454 <_ZN8BlynkApiI13BlynkProtocolI22BlynkTransportParticleEE10processCmdEPKvj+0x258>)
   b4432:	4293      	cmp	r3, r2
   b4434:	d001      	beq.n	b443a <_ZN8BlynkApiI13BlynkProtocolI22BlynkTransportParticleEE10processCmdEPKvj+0x23e>
            handler(req, param);
   b4436:	4798      	blx	r3
   b4438:	e7ae      	b.n	b4398 <_ZN8BlynkApiI13BlynkProtocolI22BlynkTransportParticleEE10processCmdEPKvj+0x19c>
            BlynkWidgetWriteDefault(req, param);
   b443a:	f001 fd55 	bl	b5ee8 <BlynkWidgetWrite>
    } break;
   b443e:	e7ab      	b.n	b4398 <_ZN8BlynkApiI13BlynkProtocolI22BlynkTransportParticleEE10processCmdEPKvj+0x19c>
   b4440:	000b7e20 	.word	0x000b7e20
   b4444:	000b7e23 	.word	0x000b7e23
   b4448:	000b7e2b 	.word	0x000b7e2b
   b444c:	000b7e2e 	.word	0x000b7e2e
   b4450:	000b5ee7 	.word	0x000b5ee7
   b4454:	000b5ee9 	.word	0x000b5ee9
   b4458:	000b7e27 	.word	0x000b7e27

000b445c <_ZN13BlynkProtocolI22BlynkTransportParticleE12processInputEv>:
    return true;
}

template <class Transp>
BLYNK_FORCE_INLINE
bool BlynkProtocol<Transp>::processInput(void)
   b445c:	e92d 41f0 	stmdb	sp!, {r4, r5, r6, r7, r8, lr}
   b4460:	b08c      	sub	sp, #48	; 0x30
   b4462:	af04      	add	r7, sp, #16
   b4464:	4604      	mov	r4, r0

    size_t read(void* buf, size_t len) {
        return client.readBytes((char*)buf, len);
   b4466:	2205      	movs	r2, #5
   b4468:	6800      	ldr	r0, [r0, #0]
   b446a:	1d39      	adds	r1, r7, #4
   b446c:	f002 fc3d 	bl	b6cea <_ZN6Stream9readBytesEPcj>

template <class Transp>
int BlynkProtocol<Transp>::readHeader(BlynkHeader& hdr)
{
    size_t rlen = conn.read(&hdr, sizeof(hdr));
    if (rlen == 0) {
   b4470:	b398      	cbz	r0, b44da <_ZN13BlynkProtocolI22BlynkTransportParticleE12processInputEv+0x7e>
        return 0;
    }

    if (sizeof(hdr) != rlen) {
   b4472:	2805      	cmp	r0, #5
   b4474:	d004      	beq.n	b4480 <_ZN13BlynkProtocolI22BlynkTransportParticleE12processInputEv+0x24>
        return false;
   b4476:	2000      	movs	r0, #0
}
   b4478:	3720      	adds	r7, #32
   b447a:	46bd      	mov	sp, r7
   b447c:	e8bd 81f0 	ldmia.w	sp!, {r4, r5, r6, r7, r8, pc}
int BlynkProtocol<Transp>::readHeader(BlynkHeader& hdr)
   b4480:	f8b7 3005 	ldrh.w	r3, [r7, #5]
   b4484:	ba5b      	rev16	r3, r3
   b4486:	b29a      	uxth	r2, r3
        return -1;
    }

    BLYNK_DBG_DUMP(">", &hdr, sizeof(BlynkHeader));

    hdr.msg_id = ntohs(hdr.msg_id);
   b4488:	f8a7 3005 	strh.w	r3, [r7, #5]
   b448c:	f8b7 3007 	ldrh.w	r3, [r7, #7]
   b4490:	ba5b      	rev16	r3, r3
   b4492:	fa1f f883 	uxth.w	r8, r3
    hdr.length = ntohs(hdr.length);
   b4496:	f8a7 3007 	strh.w	r3, [r7, #7]
    if (ret < 0 || hdr.msg_id == 0) {
   b449a:	2a00      	cmp	r2, #0
   b449c:	d0eb      	beq.n	b4476 <_ZN13BlynkProtocolI22BlynkTransportParticleE12processInputEv+0x1a>
    if (hdr.type == BLYNK_CMD_RESPONSE) {
   b449e:	793b      	ldrb	r3, [r7, #4]
   b44a0:	bb23      	cbnz	r3, b44ec <_ZN13BlynkProtocolI22BlynkTransportParticleE12processInputEv+0x90>
        lastActivityIn = BlynkMillis();
   b44a2:	f001 fd1e 	bl	b5ee2 <_Z11BlynkMillisv>
   b44a6:	4602      	mov	r2, r0
   b44a8:	60e0      	str	r0, [r4, #12]
        if (state == CONNECTING && (1 == hdr.msg_id)) {
   b44aa:	7f60      	ldrb	r0, [r4, #29]
   b44ac:	f8b7 3007 	ldrh.w	r3, [r7, #7]
   b44b0:	b9c0      	cbnz	r0, b44e4 <_ZN13BlynkProtocolI22BlynkTransportParticleE12processInputEv+0x88>
   b44b2:	f8b7 1005 	ldrh.w	r1, [r7, #5]
   b44b6:	2901      	cmp	r1, #1
   b44b8:	d114      	bne.n	b44e4 <_ZN13BlynkProtocolI22BlynkTransportParticleE12processInputEv+0x88>
            switch (hdr.length) {
   b44ba:	2b09      	cmp	r3, #9
   b44bc:	d00f      	beq.n	b44de <_ZN13BlynkProtocolI22BlynkTransportParticleE12processInputEv+0x82>
   b44be:	2bc8      	cmp	r3, #200	; 0xc8
   b44c0:	d001      	beq.n	b44c6 <_ZN13BlynkProtocolI22BlynkTransportParticleE12processInputEv+0x6a>
   b44c2:	2b04      	cmp	r3, #4
   b44c4:	d1d8      	bne.n	b4478 <_ZN13BlynkProtocolI22BlynkTransportParticleE12processInputEv+0x1c>
                state = CONNECTED;
   b44c6:	2501      	movs	r5, #1
                lastHeartbeat = lastActivityIn;
   b44c8:	6162      	str	r2, [r4, #20]
                this->sendInfo();
   b44ca:	4620      	mov	r0, r4
                state = CONNECTED;
   b44cc:	7765      	strb	r5, [r4, #29]
                this->sendInfo();
   b44ce:	f000 fa7f 	bl	b49d0 <_ZN8BlynkApiI13BlynkProtocolI22BlynkTransportParticleEE8sendInfoEv>
                BLYNK_RUN_YIELD();
   b44d2:	f7ff fdf9 	bl	b40c8 <_ZN10CloudClass7processEv>
                BlynkOnConnected();
   b44d6:	f001 fd08 	bl	b5eea <BlynkNoOpCbk>
        return true; // Considered OK (no data on input)
   b44da:	2001      	movs	r0, #1
   b44dc:	e7cc      	b.n	b4478 <_ZN13BlynkProtocolI22BlynkTransportParticleE12processInputEv+0x1c>
                state = TOKEN_INVALID;
   b44de:	2303      	movs	r3, #3
   b44e0:	7763      	strb	r3, [r4, #29]
                break;
   b44e2:	e7c9      	b.n	b4478 <_ZN13BlynkProtocolI22BlynkTransportParticleE12processInputEv+0x1c>
        if (BLYNK_NOT_AUTHENTICATED == hdr.length) {
   b44e4:	1f58      	subs	r0, r3, #5
   b44e6:	bf18      	it	ne
   b44e8:	2001      	movne	r0, #1
   b44ea:	e7c5      	b.n	b4478 <_ZN13BlynkProtocolI22BlynkTransportParticleE12processInputEv+0x1c>
    if (hdr.length > BLYNK_MAX_READBYTES) {
   b44ec:	f5b8 6f80 	cmp.w	r8, #1024	; 0x400
   b44f0:	d903      	bls.n	b44fa <_ZN13BlynkProtocolI22BlynkTransportParticleE12processInputEv+0x9e>
        internalReconnect();
   b44f2:	4620      	mov	r0, r4
   b44f4:	f7ff fe77 	bl	b41e6 <_ZN13BlynkProtocolI22BlynkTransportParticleE17internalReconnectEv>
   b44f8:	e7ef      	b.n	b44da <_ZN13BlynkProtocolI22BlynkTransportParticleE12processInputEv+0x7e>
    uint8_t inputBuffer[hdr.length+1]; // Add 1 to zero-terminate
   b44fa:	f108 0308 	add.w	r3, r8, #8
   b44fe:	466e      	mov	r6, sp
   b4500:	08db      	lsrs	r3, r3, #3
   b4502:	eba6 03c3 	sub.w	r3, r6, r3, lsl #3
   b4506:	469d      	mov	sp, r3
   b4508:	ad04      	add	r5, sp, #16
   b450a:	6820      	ldr	r0, [r4, #0]
   b450c:	4642      	mov	r2, r8
   b450e:	4629      	mov	r1, r5
   b4510:	f002 fbeb 	bl	b6cea <_ZN6Stream9readBytesEPcj>
    if (hdr.length != conn.read(inputBuffer, hdr.length)) {
   b4514:	4580      	cmp	r8, r0
   b4516:	f04f 0000 	mov.w	r0, #0
   b451a:	d17f      	bne.n	b461c <_ZN13BlynkProtocolI22BlynkTransportParticleE12processInputEv+0x1c0>
    inputBuffer[hdr.length] = '\0';
   b451c:	f8b7 3007 	ldrh.w	r3, [r7, #7]
   b4520:	54e8      	strb	r0, [r5, r3]
    lastActivityIn = BlynkMillis();
   b4522:	f001 fcde 	bl	b5ee2 <_Z11BlynkMillisv>
    switch (hdr.type)
   b4526:	793b      	ldrb	r3, [r7, #4]
    lastActivityIn = BlynkMillis();
   b4528:	60e0      	str	r0, [r4, #12]
    switch (hdr.type)
   b452a:	2b14      	cmp	r3, #20
   b452c:	f000 80a6 	beq.w	b467c <_ZN13BlynkProtocolI22BlynkTransportParticleE12processInputEv+0x220>
   b4530:	d848      	bhi.n	b45c4 <_ZN13BlynkProtocolI22BlynkTransportParticleE12processInputEv+0x168>
   b4532:	2b0f      	cmp	r3, #15
   b4534:	f000 80a2 	beq.w	b467c <_ZN13BlynkProtocolI22BlynkTransportParticleE12processInputEv+0x220>
   b4538:	d807      	bhi.n	b454a <_ZN13BlynkProtocolI22BlynkTransportParticleE12processInputEv+0xee>
   b453a:	2b02      	cmp	r3, #2
   b453c:	d048      	beq.n	b45d0 <_ZN13BlynkProtocolI22BlynkTransportParticleE12processInputEv+0x174>
   b453e:	2b06      	cmp	r3, #6
   b4540:	d051      	beq.n	b45e6 <_ZN13BlynkProtocolI22BlynkTransportParticleE12processInputEv+0x18a>
        internalReconnect();
   b4542:	4620      	mov	r0, r4
   b4544:	f7ff fe4f 	bl	b41e6 <_ZN13BlynkProtocolI22BlynkTransportParticleE17internalReconnectEv>
   b4548:	e058      	b.n	b45fc <_ZN13BlynkProtocolI22BlynkTransportParticleE12processInputEv+0x1a0>
    switch (hdr.type)
   b454a:	2b11      	cmp	r3, #17
   b454c:	d1f9      	bne.n	b4542 <_ZN13BlynkProtocolI22BlynkTransportParticleE12processInputEv+0xe6>
        BlynkReq req = { 0 };
   b454e:	2300      	movs	r3, #0
   b4550:	703b      	strb	r3, [r7, #0]
        BlynkParam param(inputBuffer, hdr.length);
   b4552:	f8b7 3007 	ldrh.w	r3, [r7, #7]
    iterator begin() const { return iterator(buff, buff+len); }
   b4556:	442b      	add	r3, r5
        if (it >= param.end())
   b4558:	429d      	cmp	r5, r3
        iterator(const char* c, const char* l) : ptr(c), limit(l) {}
   b455a:	e9c7 5303 	strd	r5, r3, [r7, #12]
   b455e:	d24d      	bcs.n	b45fc <_ZN13BlynkProtocolI22BlynkTransportParticleE12processInputEv+0x1a0>
        ++it;
   b4560:	f107 000c 	add.w	r0, r7, #12
   b4564:	f8d5 8000 	ldr.w	r8, [r5]
   b4568:	f7ff fdc4 	bl	b40f4 <_ZN10BlynkParam8iteratorppEv>
        const char* asStr() const       { return ptr; }
   b456c:	68fb      	ldr	r3, [r7, #12]
        unsigned length = hdr.length - (start - (char*)inputBuffer);
   b456e:	f8b7 1007 	ldrh.w	r1, [r7, #7]
   b4572:	1b5d      	subs	r5, r3, r5
   b4574:	1b4d      	subs	r5, r1, r5
        : buff((char*)addr), len(length), buff_size(length)
   b4576:	e9c7 3505 	strd	r3, r5, [r7, #20]
        msgIdOutOverride = hdr.msg_id;
   b457a:	687b      	ldr	r3, [r7, #4]
   b457c:	61fd      	str	r5, [r7, #28]
   b457e:	f3c3 230f 	ubfx	r3, r3, #8, #16
   b4582:	8363      	strh	r3, [r4, #26]
   b4584:	4b64      	ldr	r3, [pc, #400]	; (b4718 <_ZN13BlynkProtocolI22BlynkTransportParticleE12processInputEv+0x2bc>)
   b4586:	4598      	cmp	r8, r3
   b4588:	f000 80bf 	beq.w	b470a <_ZN13BlynkProtocolI22BlynkTransportParticleE12processInputEv+0x2ae>
   b458c:	f200 808c 	bhi.w	b46a8 <_ZN13BlynkProtocolI22BlynkTransportParticleE12processInputEv+0x24c>
   b4590:	f5a3 237f 	sub.w	r3, r3, #1044480	; 0xff000
   b4594:	f46f 7200 	mvn.w	r2, #512	; 0x200
   b4598:	4413      	add	r3, r2
   b459a:	4598      	cmp	r8, r3
   b459c:	f000 809d 	beq.w	b46da <_ZN13BlynkProtocolI22BlynkTransportParticleE12processInputEv+0x27e>
   b45a0:	d879      	bhi.n	b4696 <_ZN13BlynkProtocolI22BlynkTransportParticleE12processInputEv+0x23a>
   b45a2:	f5a3 3300 	sub.w	r3, r3, #131072	; 0x20000
   b45a6:	3b06      	subs	r3, #6
   b45a8:	4598      	cmp	r8, r3
   b45aa:	f000 809c 	beq.w	b46e6 <_ZN13BlynkProtocolI22BlynkTransportParticleE12processInputEv+0x28a>
   b45ae:	f503 3300 	add.w	r3, r3, #131072	; 0x20000
   b45b2:	3303      	adds	r3, #3
   b45b4:	4598      	cmp	r8, r3
   b45b6:	d16b      	bne.n	b4690 <_ZN13BlynkProtocolI22BlynkTransportParticleE12processInputEv+0x234>
        case BLYNK_INT_RTC:  BlynkWidgetWriteInternalPinRTC(req, param2);    break;
   b45b8:	f107 0114 	add.w	r1, r7, #20
   b45bc:	4638      	mov	r0, r7
   b45be:	f001 fc93 	bl	b5ee8 <BlynkWidgetWrite>
   b45c2:	e065      	b.n	b4690 <_ZN13BlynkProtocolI22BlynkTransportParticleE12processInputEv+0x234>
    switch (hdr.type)
   b45c4:	2b29      	cmp	r3, #41	; 0x29
   b45c6:	d01b      	beq.n	b4600 <_ZN13BlynkProtocolI22BlynkTransportParticleE12processInputEv+0x1a4>
   b45c8:	2b37      	cmp	r3, #55	; 0x37
   b45ca:	d017      	beq.n	b45fc <_ZN13BlynkProtocolI22BlynkTransportParticleE12processInputEv+0x1a0>
   b45cc:	2b1d      	cmp	r3, #29
   b45ce:	d1b8      	bne.n	b4542 <_ZN13BlynkProtocolI22BlynkTransportParticleE12processInputEv+0xe6>
        if (state == CONNECTING) {
   b45d0:	7f63      	ldrb	r3, [r4, #29]
   b45d2:	b943      	cbnz	r3, b45e6 <_ZN13BlynkProtocolI22BlynkTransportParticleE12processInputEv+0x18a>
            state = CONNECTED;
   b45d4:	2301      	movs	r3, #1
   b45d6:	7763      	strb	r3, [r4, #29]
            this->sendInfo();
   b45d8:	4620      	mov	r0, r4
   b45da:	f000 f9f9 	bl	b49d0 <_ZN8BlynkApiI13BlynkProtocolI22BlynkTransportParticleEE8sendInfoEv>
            BLYNK_RUN_YIELD();
   b45de:	f7ff fd73 	bl	b40c8 <_ZN10CloudClass7processEv>
            BlynkOnConnected();
   b45e2:	f001 fc82 	bl	b5eea <BlynkNoOpCbk>
        sendCmd(BLYNK_CMD_RESPONSE, id, NULL, rsp);
   b45e6:	2300      	movs	r3, #0
   b45e8:	21c8      	movs	r1, #200	; 0xc8
   b45ea:	f8b7 2005 	ldrh.w	r2, [r7, #5]
   b45ee:	9100      	str	r1, [sp, #0]
   b45f0:	e9cd 3301 	strd	r3, r3, [sp, #4]
   b45f4:	4619      	mov	r1, r3
   b45f6:	4620      	mov	r0, r4
   b45f8:	f000 f93c 	bl	b4874 <_ZN13BlynkProtocolI22BlynkTransportParticleE7sendCmdEhtPKvjS3_j>
    switch (hdr.type)
   b45fc:	2001      	movs	r0, #1
   b45fe:	e00d      	b.n	b461c <_ZN13BlynkProtocolI22BlynkTransportParticleE12processInputEv+0x1c0>
        if (!redir_serv) {
   b4600:	68a3      	ldr	r3, [r4, #8]
   b4602:	b91b      	cbnz	r3, b460c <_ZN13BlynkProtocolI22BlynkTransportParticleE12processInputEv+0x1b0>
             redir_serv = (char*)malloc(64);
   b4604:	2040      	movs	r0, #64	; 0x40
   b4606:	f001 ffc1 	bl	b658c <malloc>
   b460a:	60a0      	str	r0, [r4, #8]
        BlynkParam param(inputBuffer, hdr.length);
   b460c:	f8b7 8007 	ldrh.w	r8, [r7, #7]
    iterator begin() const { return iterator(buff, buff+len); }
   b4610:	44a8      	add	r8, r5
        if (it >= param.end())
   b4612:	4545      	cmp	r5, r8
        iterator(const char* c, const char* l) : ptr(c), limit(l) {}
   b4614:	e9c7 5805 	strd	r5, r8, [r7, #20]
   b4618:	d302      	bcc.n	b4620 <_ZN13BlynkProtocolI22BlynkTransportParticleE12processInputEv+0x1c4>
            return false;
   b461a:	2000      	movs	r0, #0
   b461c:	46b5      	mov	sp, r6
   b461e:	e72b      	b.n	b4478 <_ZN13BlynkProtocolI22BlynkTransportParticleE12processInputEv+0x1c>
        strncpy(redir_serv, it.asStr(), 64);
   b4620:	4629      	mov	r1, r5
   b4622:	2240      	movs	r2, #64	; 0x40
   b4624:	68a0      	ldr	r0, [r4, #8]
   b4626:	f003 fadd 	bl	b7be4 <strncpy>
        redir_serv[63] = '\0';
   b462a:	68a3      	ldr	r3, [r4, #8]
   b462c:	2500      	movs	r5, #0
   b462e:	f883 503f 	strb.w	r5, [r3, #63]	; 0x3f
        if (++it < param.end())
   b4632:	f107 0014 	add.w	r0, r7, #20
   b4636:	f7ff fd5d 	bl	b40f4 <_ZN10BlynkParam8iteratorppEv>
   b463a:	6803      	ldr	r3, [r0, #0]
   b463c:	4598      	cmp	r8, r3
   b463e:	d91b      	bls.n	b4678 <_ZN13BlynkProtocolI22BlynkTransportParticleE12processInputEv+0x21c>
        bool isValid() const            { return ptr != NULL && ptr < limit; }
   b4640:	6978      	ldr	r0, [r7, #20]
   b4642:	b120      	cbz	r0, b464e <_ZN13BlynkProtocolI22BlynkTransportParticleE12processInputEv+0x1f2>
   b4644:	69bb      	ldr	r3, [r7, #24]
   b4646:	4298      	cmp	r0, r3
   b4648:	d214      	bcs.n	b4674 <_ZN13BlynkProtocolI22BlynkTransportParticleE12processInputEv+0x218>
        long        asLong() const      { if(!isValid()) return 0; return atol(ptr); }
   b464a:	f003 fa71 	bl	b7b30 <atol>
            redir_port = it.asLong();
   b464e:	b285      	uxth	r5, r0
    void disconnect() { client.stop(); }
   b4650:	6820      	ldr	r0, [r4, #0]
   b4652:	f002 fe03 	bl	b725c <_ZN9TCPClient4stopEv>
        conn.begin(redir_serv, redir_port);
   b4656:	6823      	ldr	r3, [r4, #0]
   b4658:	68a2      	ldr	r2, [r4, #8]
        domain = d;
   b465a:	635a      	str	r2, [r3, #52]	; 0x34
        port = p;
   b465c:	871d      	strh	r5, [r3, #56]	; 0x38
        state = CONNECTING;
   b465e:	2300      	movs	r3, #0
   b4660:	7763      	strb	r3, [r4, #29]
        lastHeartbeat = lastActivityIn = lastActivityOut = (BlynkMillis() - 5000UL);
   b4662:	f001 fc3e 	bl	b5ee2 <_Z11BlynkMillisv>
   b4666:	f5a0 509c 	sub.w	r0, r0, #4992	; 0x1380
   b466a:	3808      	subs	r0, #8
   b466c:	e9c4 0003 	strd	r0, r0, [r4, #12]
   b4670:	6160      	str	r0, [r4, #20]
   b4672:	e7c3      	b.n	b45fc <_ZN13BlynkProtocolI22BlynkTransportParticleE12processInputEv+0x1a0>
   b4674:	4628      	mov	r0, r5
   b4676:	e7ea      	b.n	b464e <_ZN13BlynkProtocolI22BlynkTransportParticleE12processInputEv+0x1f2>
        uint16_t redir_port = BLYNK_DEFAULT_PORT;
   b4678:	2550      	movs	r5, #80	; 0x50
   b467a:	e7e9      	b.n	b4650 <_ZN13BlynkProtocolI22BlynkTransportParticleE12processInputEv+0x1f4>
        msgIdOutOverride = hdr.msg_id;
   b467c:	687b      	ldr	r3, [r7, #4]
        this->processCmd(inputBuffer, hdr.length);
   b467e:	f8b7 2007 	ldrh.w	r2, [r7, #7]
        msgIdOutOverride = hdr.msg_id;
   b4682:	f3c3 230f 	ubfx	r3, r3, #8, #16
   b4686:	8363      	strh	r3, [r4, #26]
        this->processCmd(inputBuffer, hdr.length);
   b4688:	4629      	mov	r1, r5
   b468a:	4620      	mov	r0, r4
   b468c:	f7ff fdb6 	bl	b41fc <_ZN8BlynkApiI13BlynkProtocolI22BlynkTransportParticleEE10processCmdEPKvj>
        msgIdOutOverride = 0;
   b4690:	2300      	movs	r3, #0
   b4692:	8363      	strh	r3, [r4, #26]
   b4694:	e7b2      	b.n	b45fc <_ZN13BlynkProtocolI22BlynkTransportParticleE12processInputEv+0x1a0>
   b4696:	4b21      	ldr	r3, [pc, #132]	; (b471c <_ZN13BlynkProtocolI22BlynkTransportParticleE12processInputEv+0x2c0>)
   b4698:	4598      	cmp	r8, r3
   b469a:	d1f9      	bne.n	b4690 <_ZN13BlynkProtocolI22BlynkTransportParticleE12processInputEv+0x234>
        case BLYNK_INT_DBG:  BlynkWidgetWriteInternalPinDBG(req, param2);    break;
   b469c:	f107 0114 	add.w	r1, r7, #20
   b46a0:	4638      	mov	r0, r7
   b46a2:	f001 fc21 	bl	b5ee8 <BlynkWidgetWrite>
   b46a6:	e7f3      	b.n	b4690 <_ZN13BlynkProtocolI22BlynkTransportParticleE12processInputEv+0x234>
   b46a8:	4b1d      	ldr	r3, [pc, #116]	; (b4720 <_ZN13BlynkProtocolI22BlynkTransportParticleE12processInputEv+0x2c4>)
   b46aa:	4598      	cmp	r8, r3
   b46ac:	d021      	beq.n	b46f2 <_ZN13BlynkProtocolI22BlynkTransportParticleE12processInputEv+0x296>
   b46ae:	f103 639f 	add.w	r3, r3, #83361792	; 0x4f80000
   b46b2:	f503 3300 	add.w	r3, r3, #131072	; 0x20000
   b46b6:	f503 7380 	add.w	r3, r3, #256	; 0x100
   b46ba:	4598      	cmp	r8, r3
   b46bc:	d01f      	beq.n	b46fe <_ZN13BlynkProtocolI22BlynkTransportParticleE12processInputEv+0x2a2>
   b46be:	f103 436e 	add.w	r3, r3, #3992977408	; 0xee000000
   b46c2:	f503 2330 	add.w	r3, r3, #720896	; 0xb0000
   b46c6:	f503 7386 	add.w	r3, r3, #268	; 0x10c
   b46ca:	4598      	cmp	r8, r3
   b46cc:	d1e0      	bne.n	b4690 <_ZN13BlynkProtocolI22BlynkTransportParticleE12processInputEv+0x234>
        case BLYNK_INT_META: BlynkWidgetWriteInternalPinMETA(req, param2);   break;
   b46ce:	f107 0114 	add.w	r1, r7, #20
   b46d2:	4638      	mov	r0, r7
   b46d4:	f001 fc08 	bl	b5ee8 <BlynkWidgetWrite>
   b46d8:	e7da      	b.n	b4690 <_ZN13BlynkProtocolI22BlynkTransportParticleE12processInputEv+0x234>
        case BLYNK_INT_UTC:  BlynkWidgetWriteInternalPinUTC(req, param2);    break;
   b46da:	f107 0114 	add.w	r1, r7, #20
   b46de:	4638      	mov	r0, r7
   b46e0:	f001 fc02 	bl	b5ee8 <BlynkWidgetWrite>
   b46e4:	e7d4      	b.n	b4690 <_ZN13BlynkProtocolI22BlynkTransportParticleE12processInputEv+0x234>
        case BLYNK_INT_OTA:  BlynkWidgetWriteInternalPinOTA(req, param2);    break;
   b46e6:	f107 0114 	add.w	r1, r7, #20
   b46ea:	4638      	mov	r0, r7
   b46ec:	f001 fbfc 	bl	b5ee8 <BlynkWidgetWrite>
   b46f0:	e7ce      	b.n	b4690 <_ZN13BlynkProtocolI22BlynkTransportParticleE12processInputEv+0x234>
        case BLYNK_INT_ACON: BlynkWidgetWriteInternalPinACON(req, param2);   break;
   b46f2:	f107 0114 	add.w	r1, r7, #20
   b46f6:	4638      	mov	r0, r7
   b46f8:	f001 fbf6 	bl	b5ee8 <BlynkWidgetWrite>
   b46fc:	e7c8      	b.n	b4690 <_ZN13BlynkProtocolI22BlynkTransportParticleE12processInputEv+0x234>
        case BLYNK_INT_ADIS: BlynkWidgetWriteInternalPinADIS(req, param2);   break;
   b46fe:	f107 0114 	add.w	r1, r7, #20
   b4702:	4638      	mov	r0, r7
   b4704:	f001 fbf0 	bl	b5ee8 <BlynkWidgetWrite>
   b4708:	e7c2      	b.n	b4690 <_ZN13BlynkProtocolI22BlynkTransportParticleE12processInputEv+0x234>
        case BLYNK_INT_VFS:  BlynkWidgetWriteInternalPinVFS(req, param2);    break;
   b470a:	f107 0114 	add.w	r1, r7, #20
   b470e:	4638      	mov	r0, r7
   b4710:	f001 fbea 	bl	b5ee8 <BlynkWidgetWrite>
   b4714:	e7bc      	b.n	b4690 <_ZN13BlynkProtocolI22BlynkTransportParticleE12processInputEv+0x234>
   b4716:	bf00      	nop
   b4718:	00736676 	.word	0x00736676
   b471c:	00676264 	.word	0x00676264
   b4720:	6e6f6361 	.word	0x6e6f6361

000b4724 <_ZN13BlynkProtocolI22BlynkTransportParticleE3runEb.isra.0>:
bool BlynkProtocol<Transp>::run(bool avail)
   b4724:	e92d 41f0 	stmdb	sp!, {r4, r5, r6, r7, r8, lr}
   b4728:	4604      	mov	r4, r0
   b472a:	b08c      	sub	sp, #48	; 0x30
   b472c:	460d      	mov	r5, r1
    BLYNK_RUN_YIELD();
   b472e:	f7ff fccb 	bl	b40c8 <_ZN10CloudClass7processEv>
    if (state == DISCONNECTED) {
   b4732:	7f63      	ldrb	r3, [r4, #29]
   b4734:	2b02      	cmp	r3, #2
   b4736:	d01e      	beq.n	b4776 <_ZN13BlynkProtocolI22BlynkTransportParticleE3runEb.isra.0+0x52>
    return false;
}

class BlynkHelperAutoInc {
public:
    BlynkHelperAutoInc(uint8_t& counter) : c(counter) { ++c; }
   b4738:	7f23      	ldrb	r3, [r4, #28]
    if (msgIdOutOverride || nesting > 2) {
   b473a:	8b62      	ldrh	r2, [r4, #26]
   b473c:	3301      	adds	r3, #1
   b473e:	b2db      	uxtb	r3, r3
   b4740:	7723      	strb	r3, [r4, #28]
   b4742:	b9aa      	cbnz	r2, b4770 <_ZN13BlynkProtocolI22BlynkTransportParticleE3runEb.isra.0+0x4c>
   b4744:	2b02      	cmp	r3, #2
   b4746:	d813      	bhi.n	b4770 <_ZN13BlynkProtocolI22BlynkTransportParticleE3runEb.isra.0+0x4c>
    size_t write(const void* buf, size_t len) {
        return client.write((const uint8_t*)buf, len);
    }

    void flush() { client.flush(); }
    bool connected() { return client.connected(); }
   b4748:	6820      	ldr	r0, [r4, #0]
   b474a:	f002 fc4f 	bl	b6fec <_ZN9TCPClient9connectedEv>
    if (conn.connected()) {
   b474e:	b1a8      	cbz	r0, b477c <_ZN13BlynkProtocolI22BlynkTransportParticleE3runEb.isra.0+0x58>
        while (avail || conn.available() > 0) {
   b4750:	b925      	cbnz	r5, b475c <_ZN13BlynkProtocolI22BlynkTransportParticleE3runEb.isra.0+0x38>
    int available() { return client.available(); }
   b4752:	6820      	ldr	r0, [r4, #0]
   b4754:	f002 fd28 	bl	b71a8 <_ZN9TCPClient9availableEv>
   b4758:	2800      	cmp	r0, #0
   b475a:	dd0f      	ble.n	b477c <_ZN13BlynkProtocolI22BlynkTransportParticleE3runEb.isra.0+0x58>
            if (!processInput()) {
   b475c:	4620      	mov	r0, r4
   b475e:	f7ff fe7d 	bl	b445c <_ZN13BlynkProtocolI22BlynkTransportParticleE12processInputEv>
   b4762:	2800      	cmp	r0, #0
   b4764:	d1f5      	bne.n	b4752 <_ZN13BlynkProtocolI22BlynkTransportParticleE3runEb.isra.0+0x2e>
    void disconnect() { client.stop(); }
   b4766:	6820      	ldr	r0, [r4, #0]
   b4768:	f002 fd78 	bl	b725c <_ZN9TCPClient4stopEv>
                BlynkOnDisconnected();
   b476c:	f001 fbbd 	bl	b5eea <BlynkNoOpCbk>
    ~BlynkHelperAutoInc() { --c; }
   b4770:	7f23      	ldrb	r3, [r4, #28]
   b4772:	3b01      	subs	r3, #1
   b4774:	7723      	strb	r3, [r4, #28]
}
   b4776:	b00c      	add	sp, #48	; 0x30
   b4778:	e8bd 81f0 	ldmia.w	sp!, {r4, r5, r6, r7, r8, pc}
    const millis_time_t t = BlynkMillis();
   b477c:	f001 fbb1 	bl	b5ee2 <_Z11BlynkMillisv>
   b4780:	4605      	mov	r5, r0
    bool connected() { return client.connected(); }
   b4782:	6820      	ldr	r0, [r4, #0]
   b4784:	f002 fc32 	bl	b6fec <_ZN9TCPClient9connectedEv>
    if (state == CONNECTED) {
   b4788:	7f67      	ldrb	r7, [r4, #29]
   b478a:	2f01      	cmp	r7, #1
   b478c:	4606      	mov	r6, r0
   b478e:	d124      	bne.n	b47da <_ZN13BlynkProtocolI22BlynkTransportParticleE3runEb.isra.0+0xb6>
        if (!tconn) {
   b4790:	b920      	cbnz	r0, b479c <_ZN13BlynkProtocolI22BlynkTransportParticleE3runEb.isra.0+0x78>
            lastHeartbeat = t;
   b4792:	6165      	str	r5, [r4, #20]
            internalReconnect();
   b4794:	4620      	mov	r0, r4
   b4796:	f7ff fd26 	bl	b41e6 <_ZN13BlynkProtocolI22BlynkTransportParticleE17internalReconnectEv>
            return false;
   b479a:	e7e9      	b.n	b4770 <_ZN13BlynkProtocolI22BlynkTransportParticleE3runEb.isra.0+0x4c>
        if (t - lastActivityIn > (1000UL * BLYNK_HEARTBEAT + BLYNK_TIMEOUT_MS*3)) {
   b479c:	68e3      	ldr	r3, [r4, #12]
   b479e:	f24f 6218 	movw	r2, #63000	; 0xf618
   b47a2:	1aeb      	subs	r3, r5, r3
   b47a4:	4293      	cmp	r3, r2
   b47a6:	d8f5      	bhi.n	b4794 <_ZN13BlynkProtocolI22BlynkTransportParticleE3runEb.isra.0+0x70>
        } else if ((t - lastActivityIn  > 1000UL * BLYNK_HEARTBEAT ||
   b47a8:	f64a 72c8 	movw	r2, #45000	; 0xafc8
   b47ac:	4293      	cmp	r3, r2
   b47ae:	d803      	bhi.n	b47b8 <_ZN13BlynkProtocolI22BlynkTransportParticleE3runEb.isra.0+0x94>
                    t - lastActivityOut > 1000UL * BLYNK_HEARTBEAT) &&
   b47b0:	6923      	ldr	r3, [r4, #16]
   b47b2:	1aeb      	subs	r3, r5, r3
        } else if ((t - lastActivityIn  > 1000UL * BLYNK_HEARTBEAT ||
   b47b4:	4293      	cmp	r3, r2
   b47b6:	d9db      	bls.n	b4770 <_ZN13BlynkProtocolI22BlynkTransportParticleE3runEb.isra.0+0x4c>
                    t - lastHeartbeat   > BLYNK_TIMEOUT_MS)
   b47b8:	6963      	ldr	r3, [r4, #20]
                    t - lastActivityOut > 1000UL * BLYNK_HEARTBEAT) &&
   b47ba:	f241 7270 	movw	r2, #6000	; 0x1770
                    t - lastHeartbeat   > BLYNK_TIMEOUT_MS)
   b47be:	1aeb      	subs	r3, r5, r3
                    t - lastActivityOut > 1000UL * BLYNK_HEARTBEAT) &&
   b47c0:	4293      	cmp	r3, r2
   b47c2:	d9d5      	bls.n	b4770 <_ZN13BlynkProtocolI22BlynkTransportParticleE3runEb.isra.0+0x4c>
            sendCmd(BLYNK_CMD_PING);
   b47c4:	2300      	movs	r3, #0
   b47c6:	e9cd 3301 	strd	r3, r3, [sp, #4]
   b47ca:	9300      	str	r3, [sp, #0]
   b47cc:	461a      	mov	r2, r3
   b47ce:	2106      	movs	r1, #6
   b47d0:	4620      	mov	r0, r4
   b47d2:	f000 f84f 	bl	b4874 <_ZN13BlynkProtocolI22BlynkTransportParticleE7sendCmdEhtPKvjS3_j>
                lastLogin = t;
   b47d6:	6165      	str	r5, [r4, #20]
                return false;
   b47d8:	e7ca      	b.n	b4770 <_ZN13BlynkProtocolI22BlynkTransportParticleE3runEb.isra.0+0x4c>
    } else if (state == CONNECTING) {
   b47da:	2f00      	cmp	r7, #0
   b47dc:	d1c8      	bne.n	b4770 <_ZN13BlynkProtocolI22BlynkTransportParticleE3runEb.isra.0+0x4c>
                    t - lastHeartbeat   > BLYNK_TIMEOUT_MS)
   b47de:	6963      	ldr	r3, [r4, #20]
   b47e0:	1aeb      	subs	r3, r5, r3
        if (tconn && (t - lastLogin > BLYNK_TIMEOUT_MS)) {
   b47e2:	b140      	cbz	r0, b47f6 <_ZN13BlynkProtocolI22BlynkTransportParticleE3runEb.isra.0+0xd2>
   b47e4:	f241 7270 	movw	r2, #6000	; 0x1770
   b47e8:	4293      	cmp	r3, r2
   b47ea:	d9c1      	bls.n	b4770 <_ZN13BlynkProtocolI22BlynkTransportParticleE3runEb.isra.0+0x4c>
    void disconnect() { client.stop(); }
   b47ec:	6820      	ldr	r0, [r4, #0]
   b47ee:	f002 fd35 	bl	b725c <_ZN9TCPClient4stopEv>
            state = CONNECTING;
   b47f2:	7767      	strb	r7, [r4, #29]
            return false;
   b47f4:	e7bc      	b.n	b4770 <_ZN13BlynkProtocolI22BlynkTransportParticleE3runEb.isra.0+0x4c>
        } else if (!tconn && (t - lastLogin > 5000UL)) {
   b47f6:	f241 3288 	movw	r2, #5000	; 0x1388
   b47fa:	4293      	cmp	r3, r2
   b47fc:	d9b8      	bls.n	b4770 <_ZN13BlynkProtocolI22BlynkTransportParticleE3runEb.isra.0+0x4c>
   b47fe:	6820      	ldr	r0, [r4, #0]
   b4800:	f002 fd2c 	bl	b725c <_ZN9TCPClient4stopEv>
            if (!conn.connect()) {
   b4804:	f8d4 c000 	ldr.w	ip, [r4]
        if (domain) {
   b4808:	f8dc e034 	ldr.w	lr, [ip, #52]	; 0x34
   b480c:	f8bc 8038 	ldrh.w	r8, [ip, #56]	; 0x38
   b4810:	f1be 0f00 	cmp.w	lr, #0
   b4814:	d01b      	beq.n	b484e <_ZN13BlynkProtocolI22BlynkTransportParticleE3runEb.isra.0+0x12a>
            return (1 == client.connect(domain, port));
   b4816:	4633      	mov	r3, r6
   b4818:	4642      	mov	r2, r8
   b481a:	4671      	mov	r1, lr
   b481c:	4660      	mov	r0, ip
   b481e:	f002 fb67 	bl	b6ef0 <_ZN9TCPClient7connectEPKctm>
   b4822:	2801      	cmp	r0, #1
   b4824:	d1d7      	bne.n	b47d6 <_ZN13BlynkProtocolI22BlynkTransportParticleE3runEb.isra.0+0xb2>
            sendCmd(BLYNK_CMD_HW_LOGIN, 1, authkey, strlen(authkey));
   b4826:	6863      	ldr	r3, [r4, #4]
   b4828:	9305      	str	r3, [sp, #20]
            msgIdOut = 1;
   b482a:	2501      	movs	r5, #1
            sendCmd(BLYNK_CMD_HW_LOGIN, 1, authkey, strlen(authkey));
   b482c:	4618      	mov	r0, r3
            msgIdOut = 1;
   b482e:	8325      	strh	r5, [r4, #24]
            sendCmd(BLYNK_CMD_HW_LOGIN, 1, authkey, strlen(authkey));
   b4830:	f003 f9d0 	bl	b7bd4 <strlen>
   b4834:	2200      	movs	r2, #0
   b4836:	e9cd 2201 	strd	r2, r2, [sp, #4]
   b483a:	9b05      	ldr	r3, [sp, #20]
   b483c:	9000      	str	r0, [sp, #0]
   b483e:	462a      	mov	r2, r5
   b4840:	211d      	movs	r1, #29
   b4842:	4620      	mov	r0, r4
   b4844:	f000 f816 	bl	b4874 <_ZN13BlynkProtocolI22BlynkTransportParticleE7sendCmdEhtPKvjS3_j>
            lastLogin = lastActivityOut;
   b4848:	6923      	ldr	r3, [r4, #16]
   b484a:	6163      	str	r3, [r4, #20]
            return true;
   b484c:	e790      	b.n	b4770 <_ZN13BlynkProtocolI22BlynkTransportParticleE3runEb.isra.0+0x4c>

/**
 * The IP address stored in host order.
 *
 */
class IPAddress : public Printable {
   b484e:	4b08      	ldr	r3, [pc, #32]	; (b4870 <_ZN13BlynkProtocolI22BlynkTransportParticleE3runEb.isra.0+0x14c>)
   b4850:	9306      	str	r3, [sp, #24]
   b4852:	f10c 0720 	add.w	r7, ip, #32
   b4856:	cf0f      	ldmia	r7!, {r0, r1, r2, r3}
   b4858:	ae07      	add	r6, sp, #28
   b485a:	c60f      	stmia	r6!, {r0, r1, r2, r3}
   b485c:	683b      	ldr	r3, [r7, #0]
   b485e:	7033      	strb	r3, [r6, #0]
            return (1 == client.connect(addr, port));
   b4860:	4642      	mov	r2, r8
   b4862:	4673      	mov	r3, lr
   b4864:	a906      	add	r1, sp, #24
   b4866:	4660      	mov	r0, ip
   b4868:	f002 fc22 	bl	b70b0 <_ZN9TCPClient7connectE9IPAddresstm>
   b486c:	e7d9      	b.n	b4822 <_ZN13BlynkProtocolI22BlynkTransportParticleE3runEb.isra.0+0xfe>
   b486e:	bf00      	nop
   b4870:	000b8e5c 	.word	0x000b8e5c

000b4874 <_ZN13BlynkProtocolI22BlynkTransportParticleE7sendCmdEhtPKvjS3_j>:
#ifndef BLYNK_SEND_CHUNK
#define BLYNK_SEND_CHUNK 1024 // Just a big number
#endif

template <class Transp>
void BlynkProtocol<Transp>::sendCmd(uint8_t cmd, uint16_t id, const void* data, size_t length, const void* data2, size_t length2)
   b4874:	e92d 4ff0 	stmdb	sp!, {r4, r5, r6, r7, r8, r9, sl, fp, lr}
   b4878:	b083      	sub	sp, #12
   b487a:	af00      	add	r7, sp, #0
   b487c:	4604      	mov	r4, r0
    bool connected() { return client.connected(); }
   b487e:	6800      	ldr	r0, [r0, #0]
   b4880:	6b3d      	ldr	r5, [r7, #48]	; 0x30
   b4882:	4688      	mov	r8, r1
   b4884:	4616      	mov	r6, r2
   b4886:	4699      	mov	r9, r3
#endif
        internalReconnect();
        return;
    }

    lastActivityOut = BlynkMillis();
   b4888:	46eb      	mov	fp, sp
   b488a:	f002 fbaf 	bl	b6fec <_ZN9TCPClient9connectedEv>
    if (!conn.connected() || (cmd != BLYNK_CMD_RESPONSE && cmd != BLYNK_CMD_PING && cmd != BLYNK_CMD_LOGIN && cmd != BLYNK_CMD_HW_LOGIN && state != CONNECTED) ) {
   b488e:	2800      	cmp	r0, #0
   b4890:	d07f      	beq.n	b4992 <_ZN13BlynkProtocolI22BlynkTransportParticleE7sendCmdEhtPKvjS3_j+0x11e>
   b4892:	f1b8 0f1d 	cmp.w	r8, #29
   b4896:	d804      	bhi.n	b48a2 <_ZN13BlynkProtocolI22BlynkTransportParticleE7sendCmdEhtPKvjS3_j+0x2e>
   b4898:	4b4c      	ldr	r3, [pc, #304]	; (b49cc <_ZN13BlynkProtocolI22BlynkTransportParticleE7sendCmdEhtPKvjS3_j+0x158>)
   b489a:	fa23 f308 	lsr.w	r3, r3, r8
   b489e:	07db      	lsls	r3, r3, #31
   b48a0:	d402      	bmi.n	b48a8 <_ZN13BlynkProtocolI22BlynkTransportParticleE7sendCmdEhtPKvjS3_j+0x34>
   b48a2:	7f63      	ldrb	r3, [r4, #29]
   b48a4:	2b01      	cmp	r3, #1
   b48a6:	d174      	bne.n	b4992 <_ZN13BlynkProtocolI22BlynkTransportParticleE7sendCmdEhtPKvjS3_j+0x11e>
    if (0 == id) {
   b48a8:	b946      	cbnz	r6, b48bc <_ZN13BlynkProtocolI22BlynkTransportParticleE7sendCmdEhtPKvjS3_j+0x48>
}

template <class Transp>
uint16_t BlynkProtocol<Transp>::getNextMsgId()
{
    if (msgIdOutOverride != 0)
   b48aa:	8b66      	ldrh	r6, [r4, #26]
   b48ac:	b936      	cbnz	r6, b48bc <_ZN13BlynkProtocolI22BlynkTransportParticleE7sendCmdEhtPKvjS3_j+0x48>
        return msgIdOutOverride;
    if (++msgIdOut == 0)
   b48ae:	8b23      	ldrh	r3, [r4, #24]
   b48b0:	3301      	adds	r3, #1
   b48b2:	b29b      	uxth	r3, r3
   b48b4:	2b00      	cmp	r3, #0
   b48b6:	d071      	beq.n	b499c <_ZN13BlynkProtocolI22BlynkTransportParticleE7sendCmdEhtPKvjS3_j+0x128>
        msgIdOut = 1;
   b48b8:	8323      	strh	r3, [r4, #24]
    return msgIdOut;
   b48ba:	8b26      	ldrh	r6, [r4, #24]
    if (cmd >= BLYNK_CMD_TWEET && cmd <= BLYNK_CMD_HARDWARE) {
   b48bc:	f1a8 030c 	sub.w	r3, r8, #12
   b48c0:	2b08      	cmp	r3, #8
   b48c2:	d816      	bhi.n	b48f2 <_ZN13BlynkProtocolI22BlynkTransportParticleE7sendCmdEhtPKvjS3_j+0x7e>
        const millis_time_t allowed_time = BlynkMax(lastActivityOut, lastActivityIn) + 1000/BLYNK_MSG_LIMIT;
   b48c4:	e9d4 2303 	ldrd	r2, r3, [r4, #12]
   b48c8:	4293      	cmp	r3, r2
   b48ca:	bf38      	it	cc
   b48cc:	4613      	movcc	r3, r2
   b48ce:	f103 0a42 	add.w	sl, r3, #66	; 0x42
        int32_t wait_time = allowed_time - BlynkMillis();
   b48d2:	f001 fb06 	bl	b5ee2 <_Z11BlynkMillisv>
   b48d6:	ebaa 0000 	sub.w	r0, sl, r0
        if (wait_time >= 0) {
   b48da:	2800      	cmp	r0, #0
   b48dc:	db60      	blt.n	b49a0 <_ZN13BlynkProtocolI22BlynkTransportParticleE7sendCmdEhtPKvjS3_j+0x12c>
                run();
   b48de:	2100      	movs	r1, #0
   b48e0:	4620      	mov	r0, r4
   b48e2:	f7ff ff1f 	bl	b4724 <_ZN13BlynkProtocolI22BlynkTransportParticleE3runEb.isra.0>
                wait_time = allowed_time - BlynkMillis();
   b48e6:	f001 fafc 	bl	b5ee2 <_Z11BlynkMillisv>
   b48ea:	ebaa 0000 	sub.w	r0, sl, r0
            while (wait_time >= 0) {
   b48ee:	2800      	cmp	r0, #0
   b48f0:	daf5      	bge.n	b48de <_ZN13BlynkProtocolI22BlynkTransportParticleE7sendCmdEhtPKvjS3_j+0x6a>
    const size_t full_length = (sizeof(BlynkHeader)) +
   b48f2:	f1b9 0f00 	cmp.w	r9, #0
   b48f6:	d05a      	beq.n	b49ae <_ZN13BlynkProtocolI22BlynkTransportParticleE7sendCmdEhtPKvjS3_j+0x13a>
   b48f8:	1d6b      	adds	r3, r5, #5
                               (data2 ? length2 : 0);
   b48fa:	6b7a      	ldr	r2, [r7, #52]	; 0x34
   b48fc:	2a00      	cmp	r2, #0
   b48fe:	6bba      	ldr	r2, [r7, #56]	; 0x38
   b4900:	bf08      	it	eq
   b4902:	2200      	moveq	r2, #0
    const size_t full_length = (sizeof(BlynkHeader)) +
   b4904:	eb03 0a02 	add.w	sl, r3, r2
    uint8_t buff[full_length];
   b4908:	f10a 0307 	add.w	r3, sl, #7
   b490c:	f023 0307 	bic.w	r3, r3, #7
   b4910:	ebad 0d03 	sub.w	sp, sp, r3
    hdr->length = htons(length+length2);
   b4914:	6bbb      	ldr	r3, [r7, #56]	; 0x38
    uint8_t buff[full_length];
   b4916:	f8c7 d004 	str.w	sp, [r7, #4]
    hdr->length = htons(length+length2);
   b491a:	18ea      	adds	r2, r5, r3
   b491c:	f3c2 2307 	ubfx	r3, r2, #8, #8
    hdr->msg_id = htons(id);
   b4920:	ba76      	rev16	r6, r6
    hdr->length = htons(length+length2);
   b4922:	ea43 2302 	orr.w	r3, r3, r2, lsl #8
    hdr->type = cmd;
   b4926:	f88d 8000 	strb.w	r8, [sp]
    hdr->msg_id = htons(id);
   b492a:	f8ad 6001 	strh.w	r6, [sp, #1]
    hdr->length = htons(length+length2);
   b492e:	f8ad 3003 	strh.w	r3, [sp, #3]
    if (data && length) {
   b4932:	f1b9 0f00 	cmp.w	r9, #0
   b4936:	d03c      	beq.n	b49b2 <_ZN13BlynkProtocolI22BlynkTransportParticleE7sendCmdEhtPKvjS3_j+0x13e>
   b4938:	2d00      	cmp	r5, #0
   b493a:	d03a      	beq.n	b49b2 <_ZN13BlynkProtocolI22BlynkTransportParticleE7sendCmdEhtPKvjS3_j+0x13e>
        memcpy(buff + pos, data, length);
   b493c:	462a      	mov	r2, r5
   b493e:	4649      	mov	r1, r9
   b4940:	f10d 0005 	add.w	r0, sp, #5
   b4944:	f003 f8f8 	bl	b7b38 <memcpy>
        pos += length;
   b4948:	1d68      	adds	r0, r5, #5
    if (data2 && length2) {
   b494a:	6b7b      	ldr	r3, [r7, #52]	; 0x34
   b494c:	b13b      	cbz	r3, b495e <_ZN13BlynkProtocolI22BlynkTransportParticleE7sendCmdEhtPKvjS3_j+0xea>
   b494e:	6bbb      	ldr	r3, [r7, #56]	; 0x38
   b4950:	b12b      	cbz	r3, b495e <_ZN13BlynkProtocolI22BlynkTransportParticleE7sendCmdEhtPKvjS3_j+0xea>
        memcpy(buff + pos, data2, length2);
   b4952:	461a      	mov	r2, r3
   b4954:	687b      	ldr	r3, [r7, #4]
   b4956:	6b79      	ldr	r1, [r7, #52]	; 0x34
   b4958:	4418      	add	r0, r3
   b495a:	f003 f8ed 	bl	b7b38 <memcpy>
    size_t pos = sizeof(BlynkHeader);
   b495e:	2500      	movs	r5, #0
    while (wlen < full_length) {
   b4960:	4555      	cmp	r5, sl
   b4962:	d22a      	bcs.n	b49ba <_ZN13BlynkProtocolI22BlynkTransportParticleE7sendCmdEhtPKvjS3_j+0x146>
        const size_t chunk = BlynkMin(size_t(BLYNK_SEND_CHUNK), full_length - wlen);
   b4964:	ebaa 0205 	sub.w	r2, sl, r5
        return client.write((const uint8_t*)buf, len);
   b4968:	687b      	ldr	r3, [r7, #4]
   b496a:	6820      	ldr	r0, [r4, #0]
   b496c:	f5b2 6f80 	cmp.w	r2, #1024	; 0x400
   b4970:	bf28      	it	cs
   b4972:	f44f 6280 	movcs.w	r2, #1024	; 0x400
   b4976:	1959      	adds	r1, r3, r5
   b4978:	f002 f9eb 	bl	b6d52 <_ZN9TCPClient5writeEPKhj>
   b497c:	4606      	mov	r6, r0
        BlynkDelay(BLYNK_SEND_THROTTLE);
   b497e:	2000      	movs	r0, #0
   b4980:	f001 faad 	bl	b5ede <_Z10BlynkDelaym>
        if (w == 0) {
   b4984:	b9be      	cbnz	r6, b49b6 <_ZN13BlynkProtocolI22BlynkTransportParticleE7sendCmdEhtPKvjS3_j+0x142>
    void disconnect() { client.stop(); }
   b4986:	6820      	ldr	r0, [r4, #0]
   b4988:	f002 fc68 	bl	b725c <_ZN9TCPClient4stopEv>
            state = CONNECTING;
   b498c:	7766      	strb	r6, [r4, #29]
            BlynkOnDisconnected();
   b498e:	f001 faac 	bl	b5eea <BlynkNoOpCbk>
}
   b4992:	370c      	adds	r7, #12
   b4994:	46dd      	mov	sp, fp
   b4996:	46bd      	mov	sp, r7
   b4998:	e8bd 8ff0 	ldmia.w	sp!, {r4, r5, r6, r7, r8, r9, sl, fp, pc}
        msgIdOut = 1;
   b499c:	2301      	movs	r3, #1
   b499e:	e78b      	b.n	b48b8 <_ZN13BlynkProtocolI22BlynkTransportParticleE7sendCmdEhtPKvjS3_j+0x44>
        } else if (nesting == 0) {
   b49a0:	7f21      	ldrb	r1, [r4, #28]
   b49a2:	2900      	cmp	r1, #0
   b49a4:	d1a5      	bne.n	b48f2 <_ZN13BlynkProtocolI22BlynkTransportParticleE7sendCmdEhtPKvjS3_j+0x7e>
            run();
   b49a6:	4620      	mov	r0, r4
   b49a8:	f7ff febc 	bl	b4724 <_ZN13BlynkProtocolI22BlynkTransportParticleE3runEb.isra.0>
   b49ac:	e7a1      	b.n	b48f2 <_ZN13BlynkProtocolI22BlynkTransportParticleE7sendCmdEhtPKvjS3_j+0x7e>
    const size_t full_length = (sizeof(BlynkHeader)) +
   b49ae:	2305      	movs	r3, #5
   b49b0:	e7a3      	b.n	b48fa <_ZN13BlynkProtocolI22BlynkTransportParticleE7sendCmdEhtPKvjS3_j+0x86>
    size_t pos = sizeof(BlynkHeader);
   b49b2:	2005      	movs	r0, #5
   b49b4:	e7c9      	b.n	b494a <_ZN13BlynkProtocolI22BlynkTransportParticleE7sendCmdEhtPKvjS3_j+0xd6>
        wlen += w;
   b49b6:	4435      	add	r5, r6
    while (wlen < full_length) {
   b49b8:	e7d2      	b.n	b4960 <_ZN13BlynkProtocolI22BlynkTransportParticleE7sendCmdEhtPKvjS3_j+0xec>
    if (wlen != full_length) {
   b49ba:	d003      	beq.n	b49c4 <_ZN13BlynkProtocolI22BlynkTransportParticleE7sendCmdEhtPKvjS3_j+0x150>
        internalReconnect();
   b49bc:	4620      	mov	r0, r4
   b49be:	f7ff fc12 	bl	b41e6 <_ZN13BlynkProtocolI22BlynkTransportParticleE17internalReconnectEv>
        return;
   b49c2:	e7e6      	b.n	b4992 <_ZN13BlynkProtocolI22BlynkTransportParticleE7sendCmdEhtPKvjS3_j+0x11e>
    lastActivityOut = BlynkMillis();
   b49c4:	f001 fa8d 	bl	b5ee2 <_Z11BlynkMillisv>
   b49c8:	6120      	str	r0, [r4, #16]
   b49ca:	e7e2      	b.n	b4992 <_ZN13BlynkProtocolI22BlynkTransportParticleE7sendCmdEhtPKvjS3_j+0x11e>
   b49cc:	20000045 	.word	0x20000045

000b49d0 <_ZN8BlynkApiI13BlynkProtocolI22BlynkTransportParticleEE8sendInfoEv>:
void BlynkApi<Proto>::sendInfo()
   b49d0:	b500      	push	{lr}
   b49d2:	b095      	sub	sp, #84	; 0x54
    static_cast<Proto*>(this)->sendCmd(BLYNK_CMD_INTERNAL, 0, profile+8, profile_len, profile_dyn.getBuffer(), profile_dyn.getLength());
   b49d4:	ab04      	add	r3, sp, #16
   b49d6:	2200      	movs	r2, #0
   b49d8:	9301      	str	r3, [sp, #4]
   b49da:	234f      	movs	r3, #79	; 0x4f
   b49dc:	9300      	str	r3, [sp, #0]
   b49de:	9202      	str	r2, [sp, #8]
   b49e0:	4b03      	ldr	r3, [pc, #12]	; (b49f0 <_ZN8BlynkApiI13BlynkProtocolI22BlynkTransportParticleEE8sendInfoEv+0x20>)
   b49e2:	2111      	movs	r1, #17
   b49e4:	f7ff ff46 	bl	b4874 <_ZN13BlynkProtocolI22BlynkTransportParticleE7sendCmdEhtPKvjS3_j>
}
   b49e8:	b015      	add	sp, #84	; 0x54
   b49ea:	f85d fb04 	ldr.w	pc, [sp], #4
   b49ee:	bf00      	nop
   b49f0:	000b7e60 	.word	0x000b7e60

000b49f4 <_ZN8BlynkApiI13BlynkProtocolI22BlynkTransportParticleEE12virtualWriteIJjEEEviDpT_>:
    void virtualWrite(int pin, Args... values) {
   b49f4:	b570      	push	{r4, r5, r6, lr}
   b49f6:	f5ad 6d85 	sub.w	sp, sp, #1064	; 0x428
        : buff((char*)addr), len(length), buff_size(buffsize)
   b49fa:	2400      	movs	r4, #0
   b49fc:	9205      	str	r2, [sp, #20]
   b49fe:	aa0a      	add	r2, sp, #40	; 0x28
   b4a00:	4605      	mov	r5, r0
   b4a02:	460e      	mov	r6, r1
   b4a04:	9207      	str	r2, [sp, #28]
        cmd.add("vw");
   b4a06:	a807      	add	r0, sp, #28
   b4a08:	f44f 6280 	mov.w	r2, #1024	; 0x400
   b4a0c:	4911      	ldr	r1, [pc, #68]	; (b4a54 <_ZN8BlynkApiI13BlynkProtocolI22BlynkTransportParticleEE12virtualWriteIJjEEEviDpT_+0x60>)
   b4a0e:	e9cd 4208 	strd	r4, r2, [sp, #32]
   b4a12:	f7ff fb7e 	bl	b4112 <_ZN10BlynkParam3addEPKc>
        cmd.add(pin);
   b4a16:	4631      	mov	r1, r6
   b4a18:	a807      	add	r0, sp, #28
   b4a1a:	f7ff fb97 	bl	b414c <_ZN10BlynkParam3addEi>
        len += snprintf(buff+len, buff_size-len, "%u", value)+1;
   b4a1e:	e9dd 0108 	ldrd	r0, r1, [sp, #32]
   b4a22:	9e07      	ldr	r6, [sp, #28]
   b4a24:	9b05      	ldr	r3, [sp, #20]
   b4a26:	4a0c      	ldr	r2, [pc, #48]	; (b4a58 <_ZN8BlynkApiI13BlynkProtocolI22BlynkTransportParticleEE12virtualWriteIJjEEEviDpT_+0x64>)
   b4a28:	1a09      	subs	r1, r1, r0
   b4a2a:	4430      	add	r0, r6
   b4a2c:	f001 fdbe 	bl	b65ac <snprintf>
   b4a30:	1c43      	adds	r3, r0, #1
   b4a32:	9808      	ldr	r0, [sp, #32]
   b4a34:	4403      	add	r3, r0
   b4a36:	9308      	str	r3, [sp, #32]
        static_cast<Proto*>(this)->sendCmd(BLYNK_CMD_HARDWARE, 0, cmd.getBuffer(), cmd.getLength()-1);
   b4a38:	3b01      	subs	r3, #1
   b4a3a:	9300      	str	r3, [sp, #0]
   b4a3c:	e9cd 4401 	strd	r4, r4, [sp, #4]
   b4a40:	9b07      	ldr	r3, [sp, #28]
   b4a42:	4622      	mov	r2, r4
   b4a44:	2114      	movs	r1, #20
   b4a46:	4628      	mov	r0, r5
   b4a48:	f7ff ff14 	bl	b4874 <_ZN13BlynkProtocolI22BlynkTransportParticleE7sendCmdEhtPKvjS3_j>
    }
   b4a4c:	f50d 6d85 	add.w	sp, sp, #1064	; 0x428
   b4a50:	bd70      	pop	{r4, r5, r6, pc}
   b4a52:	bf00      	nop
   b4a54:	000b7e31 	.word	0x000b7e31
   b4a58:	000b7e34 	.word	0x000b7e34

000b4a5c <loop>:
  pinMode(RED_PIN, OUTPUT);
  pinMode(YELLOW_PIN, OUTPUT);
  pinMode(GREEN_PIN, OUTPUT);
}

void loop() {
   b4a5c:	b5f8      	push	{r3, r4, r5, r6, r7, lr}
  display.loop();
   b4a5e:	483d      	ldr	r0, [pc, #244]	; (b4b54 <loop+0xf8>)
   b4a60:	f001 fac9 	bl	b5ff6 <_ZN16OledWingAdafruit4loopEv>
  
  unsigned int proxValue = read(ADDRESS, PROXIMITY_COMMAND);
   b4a64:	2108      	movs	r1, #8
   b4a66:	2060      	movs	r0, #96	; 0x60
   b4a68:	f7ff fb94 	bl	b4194 <_Z4readhh>
  unsigned int lightValue = read(ADDRESS, LIGHT_COMMAND);
   b4a6c:	2109      	movs	r1, #9
  unsigned int proxValue = read(ADDRESS, PROXIMITY_COMMAND);
   b4a6e:	4605      	mov	r5, r0
  unsigned int lightValue = read(ADDRESS, LIGHT_COMMAND);
   b4a70:	2060      	movs	r0, #96	; 0x60
   b4a72:	f7ff fb8f 	bl	b4194 <_Z4readhh>

  if (proxValue < 65) {
   b4a76:	2d40      	cmp	r5, #64	; 0x40
  unsigned int lightValue = read(ADDRESS, LIGHT_COMMAND);
   b4a78:	4607      	mov	r7, r0
  if (proxValue < 65) {
   b4a7a:	d844      	bhi.n	b4b06 <loop+0xaa>
    digitalWrite(GREEN_PIN, HIGH);
   b4a7c:	2101      	movs	r1, #1
   b4a7e:	2008      	movs	r0, #8
   b4a80:	f002 fe53 	bl	b772a <digitalWrite>
    digitalWrite(YELLOW_PIN, LOW);
   b4a84:	2100      	movs	r1, #0
    digitalWrite(RED_PIN, LOW);
  } else if (proxValue < 130) {
    digitalWrite(GREEN_PIN, LOW);
    digitalWrite(YELLOW_PIN, HIGH);
   b4a86:	2007      	movs	r0, #7
   b4a88:	f002 fe4f 	bl	b772a <digitalWrite>
    digitalWrite(RED_PIN, LOW);
   b4a8c:	2100      	movs	r1, #0
  } else {
    digitalWrite(GREEN_PIN, LOW);
    digitalWrite(YELLOW_PIN, LOW);
    digitalWrite(RED_PIN, HIGH);
   b4a8e:	2006      	movs	r0, #6
   b4a90:	f002 fe4b 	bl	b772a <digitalWrite>
  }

  if (display.pressedA()) {
   b4a94:	482f      	ldr	r0, [pc, #188]	; (b4b54 <loop+0xf8>)
   b4a96:	4e30      	ldr	r6, [pc, #192]	; (b4b58 <loop+0xfc>)
   b4a98:	f001 fac6 	bl	b6028 <_ZN16OledWingAdafruit8pressedAEv>
   b4a9c:	b108      	cbz	r0, b4aa2 <loop+0x46>
    displayInfo = 1;
   b4a9e:	2301      	movs	r3, #1
   b4aa0:	7033      	strb	r3, [r6, #0]
  }

  if (display.pressedB()) {
   b4aa2:	482c      	ldr	r0, [pc, #176]	; (b4b54 <loop+0xf8>)
   b4aa4:	f001 faca 	bl	b603c <_ZN16OledWingAdafruit8pressedBEv>
   b4aa8:	b108      	cbz	r0, b4aae <loop+0x52>
    displayInfo = 2;
   b4aaa:	2302      	movs	r3, #2
   b4aac:	7033      	strb	r3, [r6, #0]
  }

  if (display.pressedC()) {
   b4aae:	4829      	ldr	r0, [pc, #164]	; (b4b54 <loop+0xf8>)
   b4ab0:	f001 face 	bl	b6050 <_ZN16OledWingAdafruit8pressedCEv>
   b4ab4:	b150      	cbz	r0, b4acc <loop+0x70>
    if (!pressed) {
   b4ab6:	4b29      	ldr	r3, [pc, #164]	; (b4b5c <loop+0x100>)
   b4ab8:	4a29      	ldr	r2, [pc, #164]	; (b4b60 <loop+0x104>)
   b4aba:	7819      	ldrb	r1, [r3, #0]
   b4abc:	f081 0001 	eor.w	r0, r1, #1
   b4ac0:	bb99      	cbnz	r1, b4b2a <loop+0xce>
      tempDisplayInfo = displayInfo;
   b4ac2:	7831      	ldrb	r1, [r6, #0]
   b4ac4:	7011      	strb	r1, [r2, #0]
      displayInfo = 3;
   b4ac6:	2203      	movs	r2, #3
    } else {
      displayInfo = tempDisplayInfo;
   b4ac8:	7032      	strb	r2, [r6, #0]
    }
    pressed = !pressed;
   b4aca:	7018      	strb	r0, [r3, #0]
  }

  display.clearDisplay();
   b4acc:	4c21      	ldr	r4, [pc, #132]	; (b4b54 <loop+0xf8>)
   b4ace:	4620      	mov	r0, r4
   b4ad0:	f000 fea4 	bl	b581c <_ZN16Adafruit_SSD130612clearDisplayEv>
  display.setTextSize(3);
   b4ad4:	2103      	movs	r1, #3
   b4ad6:	4620      	mov	r0, r4
   b4ad8:	f000 fce7 	bl	b54aa <_ZN12Adafruit_GFX11setTextSizeEh>
    @param   c   16-bit 5-6-5 Color to draw text with
    @note    For 'transparent' background, background and foreground
             are set to same color rather than using a separate flag.
  */
  /**********************************************************************/
  void setTextColor(uint16_t c) { textcolor = textbgcolor = c; }
   b4adc:	4a21      	ldr	r2, [pc, #132]	; (b4b64 <loop+0x108>)
   b4ade:	f04f 1301 	mov.w	r3, #65537	; 0x10001
   b4ae2:	e9c4 2304 	strd	r2, r3, [r4, #16]
  display.setTextColor(WHITE);
  display.setCursor(5, 8);

  if (displayInfo == 1) {
   b4ae6:	7833      	ldrb	r3, [r6, #0]
   b4ae8:	2b01      	cmp	r3, #1
   b4aea:	d120      	bne.n	b4b2e <loop+0xd2>
            val = n;
        }
#if __GNUC__ >= 9
#pragma GCC diagnostic pop
#endif // __GNUC__ >= 9
        return printNumber(val, base) + t;
   b4aec:	220a      	movs	r2, #10
   b4aee:	4629      	mov	r1, r5
   b4af0:	4620      	mov	r0, r4
   b4af2:	f001 ffde 	bl	b6ab2 <_ZN5Print11printNumberEmh>
        n += println();
   b4af6:	4620      	mov	r0, r4
   b4af8:	f001 ffcf 	bl	b6a9a <_ZN5Print7printlnEv>
  } else if (displayInfo == 3) {
    Blynk.virtualWrite(V0, proxValue);
    Blynk.virtualWrite(V1, lightValue);
  }
  display.display();
   b4afc:	e8bd 40f8 	ldmia.w	sp!, {r3, r4, r5, r6, r7, lr}
  display.display();
   b4b00:	4814      	ldr	r0, [pc, #80]	; (b4b54 <loop+0xf8>)
   b4b02:	f001 b8f9 	b.w	b5cf8 <_ZN16Adafruit_SSD13067displayEv>
  } else if (proxValue < 130) {
   b4b06:	2d81      	cmp	r5, #129	; 0x81
    digitalWrite(GREEN_PIN, LOW);
   b4b08:	f04f 0100 	mov.w	r1, #0
   b4b0c:	f04f 0008 	mov.w	r0, #8
  } else if (proxValue < 130) {
   b4b10:	d803      	bhi.n	b4b1a <loop+0xbe>
    digitalWrite(GREEN_PIN, LOW);
   b4b12:	f002 fe0a 	bl	b772a <digitalWrite>
    digitalWrite(YELLOW_PIN, HIGH);
   b4b16:	2101      	movs	r1, #1
   b4b18:	e7b5      	b.n	b4a86 <loop+0x2a>
    digitalWrite(GREEN_PIN, LOW);
   b4b1a:	f002 fe06 	bl	b772a <digitalWrite>
    digitalWrite(YELLOW_PIN, LOW);
   b4b1e:	2100      	movs	r1, #0
   b4b20:	2007      	movs	r0, #7
   b4b22:	f002 fe02 	bl	b772a <digitalWrite>
    digitalWrite(RED_PIN, HIGH);
   b4b26:	2101      	movs	r1, #1
   b4b28:	e7b1      	b.n	b4a8e <loop+0x32>
      displayInfo = tempDisplayInfo;
   b4b2a:	7812      	ldrb	r2, [r2, #0]
   b4b2c:	e7cc      	b.n	b4ac8 <loop+0x6c>
  } else if (displayInfo == 2) {
   b4b2e:	2b02      	cmp	r3, #2
   b4b30:	d102      	bne.n	b4b38 <loop+0xdc>
        return printNumber(val, base) + t;
   b4b32:	220a      	movs	r2, #10
   b4b34:	4639      	mov	r1, r7
   b4b36:	e7db      	b.n	b4af0 <loop+0x94>
  } else if (displayInfo == 3) {
   b4b38:	2b03      	cmp	r3, #3
   b4b3a:	d1df      	bne.n	b4afc <loop+0xa0>
    Blynk.virtualWrite(V0, proxValue);
   b4b3c:	462a      	mov	r2, r5
   b4b3e:	480a      	ldr	r0, [pc, #40]	; (b4b68 <loop+0x10c>)
   b4b40:	2100      	movs	r1, #0
   b4b42:	f7ff ff57 	bl	b49f4 <_ZN8BlynkApiI13BlynkProtocolI22BlynkTransportParticleEE12virtualWriteIJjEEEviDpT_>
    Blynk.virtualWrite(V1, lightValue);
   b4b46:	4808      	ldr	r0, [pc, #32]	; (b4b68 <loop+0x10c>)
   b4b48:	463a      	mov	r2, r7
   b4b4a:	2101      	movs	r1, #1
   b4b4c:	f7ff ff52 	bl	b49f4 <_ZN8BlynkApiI13BlynkProtocolI22BlynkTransportParticleEE12virtualWriteIJjEEEviDpT_>
   b4b50:	e7d4      	b.n	b4afc <loop+0xa0>
   b4b52:	bf00      	nop
   b4b54:	2003e644 	.word	0x2003e644
   b4b58:	2003e6b4 	.word	0x2003e6b4
   b4b5c:	2003e6b5 	.word	0x2003e6b5
   b4b60:	2003e6b6 	.word	0x2003e6b6
   b4b64:	00080005 	.word	0x00080005
   b4b68:	2003e5e8 	.word	0x2003e5e8

000b4b6c <setup>:
void setup() {
   b4b6c:	e92d 41f0 	stmdb	sp!, {r4, r5, r6, r7, r8, lr}
   b4b70:	b094      	sub	sp, #80	; 0x50
  Wire.begin();
   b4b72:	f002 fe5b 	bl	b782c <_Z19__fetch_global_Wirev>
   b4b76:	f001 fdcd 	bl	b6714 <_ZN7TwoWire5beginEv>
  Serial.begin(9600);
   b4b7a:	f002 fc87 	bl	b748c <_Z16_fetch_usbserialv>
   b4b7e:	f44f 5116 	mov.w	r1, #9600	; 0x2580
   b4b82:	f002 fc77 	bl	b7474 <_ZN9USBSerial5beginEl>
  Wire.beginTransmission(ADDRESS);
   b4b86:	f002 fe51 	bl	b782c <_Z19__fetch_global_Wirev>
   b4b8a:	2160      	movs	r1, #96	; 0x60
   b4b8c:	f001 fdf4 	bl	b6778 <_ZN7TwoWire17beginTransmissionEh>
  Wire.write(LIGHT_ENABLE);
   b4b90:	f002 fe4c 	bl	b782c <_Z19__fetch_global_Wirev>
   b4b94:	6803      	ldr	r3, [r0, #0]
        this->authkey = auth;
   b4b96:	4d41      	ldr	r5, [pc, #260]	; (b4c9c <setup+0x130>)
   b4b98:	689b      	ldr	r3, [r3, #8]
   b4b9a:	2100      	movs	r1, #0
   b4b9c:	4798      	blx	r3
  Wire.write(LIGHT_ENABLE);
   b4b9e:	f002 fe45 	bl	b782c <_Z19__fetch_global_Wirev>
   b4ba2:	6803      	ldr	r3, [r0, #0]
   b4ba4:	2100      	movs	r1, #0
   b4ba6:	689b      	ldr	r3, [r3, #8]
   b4ba8:	4798      	blx	r3
  Wire.endTransmission(false);
   b4baa:	f002 fe3f 	bl	b782c <_Z19__fetch_global_Wirev>
   b4bae:	2100      	movs	r1, #0
   b4bb0:	f001 fde9 	bl	b6786 <_ZN7TwoWire15endTransmissionEh>
  Wire.beginTransmission(ADDRESS);
   b4bb4:	f002 fe3a 	bl	b782c <_Z19__fetch_global_Wirev>
   b4bb8:	2160      	movs	r1, #96	; 0x60
   b4bba:	f001 fddd 	bl	b6778 <_ZN7TwoWire17beginTransmissionEh>
  Wire.write(PROX_ENABLE);
   b4bbe:	f002 fe35 	bl	b782c <_Z19__fetch_global_Wirev>
   b4bc2:	6803      	ldr	r3, [r0, #0]
   b4bc4:	2103      	movs	r1, #3
   b4bc6:	689b      	ldr	r3, [r3, #8]
   b4bc8:	4798      	blx	r3
  Wire.write(LIGHT_ENABLE);
   b4bca:	f002 fe2f 	bl	b782c <_Z19__fetch_global_Wirev>
   b4bce:	6803      	ldr	r3, [r0, #0]
   b4bd0:	2100      	movs	r1, #0
   b4bd2:	689b      	ldr	r3, [r3, #8]
   b4bd4:	4798      	blx	r3
  Wire.endTransmission(false);
   b4bd6:	f002 fe29 	bl	b782c <_Z19__fetch_global_Wirev>
   b4bda:	2100      	movs	r1, #0
   b4bdc:	f001 fdd3 	bl	b6786 <_ZN7TwoWire15endTransmissionEh>
  Blynk.begin("gev9UlWHupS8yCBJ2wpDXDNm6THMu0oS", IPAddress(167, 172, 234, 162), 8080);
   b4be0:	23a2      	movs	r3, #162	; 0xa2
   b4be2:	22ac      	movs	r2, #172	; 0xac
   b4be4:	21a7      	movs	r1, #167	; 0xa7
   b4be6:	9300      	str	r3, [sp, #0]
   b4be8:	a802      	add	r0, sp, #8
   b4bea:	23ea      	movs	r3, #234	; 0xea
   b4bec:	f001 fe50 	bl	b6890 <_ZN9IPAddressC1Ehhhh>
   b4bf0:	ac03      	add	r4, sp, #12

    void begin( const char* auth,
                IPAddress addr,
                uint16_t port      = BLYNK_DEFAULT_PORT)
    {
        BlynkDelay(3000); // Give the board time to settle
   b4bf2:	f640 30b8 	movw	r0, #3000	; 0xbb8
   b4bf6:	f001 f972 	bl	b5ede <_Z10BlynkDelaym>
   b4bfa:	cc0f      	ldmia	r4!, {r0, r1, r2, r3}
   b4bfc:	af09      	add	r7, sp, #36	; 0x24
   b4bfe:	c70f      	stmia	r7!, {r0, r1, r2, r3}
   b4c00:	6823      	ldr	r3, [r4, #0]
   b4c02:	703b      	strb	r3, [r7, #0]
   b4c04:	4b26      	ldr	r3, [pc, #152]	; (b4ca0 <setup+0x134>)
   b4c06:	606b      	str	r3, [r5, #4]
        lastHeartbeat = lastActivityIn = lastActivityOut = (BlynkMillis() - 5000UL);
   b4c08:	f001 f96b 	bl	b5ee2 <_Z11BlynkMillisv>
   b4c0c:	f5a0 509c 	sub.w	r0, r0, #4992	; 0x1380
   b4c10:	3808      	subs	r0, #8
   b4c12:	f10d 0c24 	add.w	ip, sp, #36	; 0x24
   b4c16:	e9c5 0003 	strd	r0, r0, [r5, #12]
   b4c1a:	6168      	str	r0, [r5, #20]
   b4c1c:	e8bc 000f 	ldmia.w	ip!, {r0, r1, r2, r3}
   b4c20:	ae0f      	add	r6, sp, #60	; 0x3c
   b4c22:	c60f      	stmia	r6!, {r0, r1, r2, r3}
        this->conn.begin(addr, port);
   b4c24:	682c      	ldr	r4, [r5, #0]
   b4c26:	683b      	ldr	r3, [r7, #0]
   b4c28:	7033      	strb	r3, [r6, #0]
   b4c2a:	af0f      	add	r7, sp, #60	; 0x3c
        port = p;
   b4c2c:	f641 7390 	movw	r3, #8080	; 0x1f90
   b4c30:	8723      	strh	r3, [r4, #56]	; 0x38
   b4c32:	cf0f      	ldmia	r7!, {r0, r1, r2, r3}
        domain = NULL;
   b4c34:	f04f 0800 	mov.w	r8, #0
   b4c38:	f8c4 8034 	str.w	r8, [r4, #52]	; 0x34
   b4c3c:	3420      	adds	r4, #32
   b4c3e:	c40f      	stmia	r4!, {r0, r1, r2, r3}
   b4c40:	6833      	ldr	r3, [r6, #0]
   b4c42:	7023      	strb	r3, [r4, #0]
        while ((state != CONNECTED) &&
   b4c44:	f244 664f 	movw	r6, #17999	; 0x464f
    void disconnect() { client.stop(); }
   b4c48:	6828      	ldr	r0, [r5, #0]
   b4c4a:	f002 fb07 	bl	b725c <_ZN9TCPClient4stopEv>
        state = CONNECTING;
   b4c4e:	f885 801d 	strb.w	r8, [r5, #29]
        millis_time_t started = BlynkMillis();
   b4c52:	f001 f946 	bl	b5ee2 <_Z11BlynkMillisv>
   b4c56:	4604      	mov	r4, r0
        while ((state != CONNECTED) &&
   b4c58:	7f6b      	ldrb	r3, [r5, #29]
   b4c5a:	2b01      	cmp	r3, #1
   b4c5c:	d00c      	beq.n	b4c78 <setup+0x10c>
               (BlynkMillis() - started < timeout))
   b4c5e:	f001 f940 	bl	b5ee2 <_Z11BlynkMillisv>
   b4c62:	1b00      	subs	r0, r0, r4
        while ((state != CONNECTED) &&
   b4c64:	42b0      	cmp	r0, r6
   b4c66:	d804      	bhi.n	b4c72 <setup+0x106>
            run();
   b4c68:	2100      	movs	r1, #0
   b4c6a:	4628      	mov	r0, r5
   b4c6c:	f7ff fd5a 	bl	b4724 <_ZN13BlynkProtocolI22BlynkTransportParticleE3runEb.isra.0>
        while ((state != CONNECTED) &&
   b4c70:	e7f2      	b.n	b4c58 <setup+0xec>
        config(auth, addr, port);
        while(this->connect() != true) {}
   b4c72:	7f6b      	ldrb	r3, [r5, #29]
   b4c74:	2b01      	cmp	r3, #1
   b4c76:	d1e7      	bne.n	b4c48 <setup+0xdc>
  display.setup();
   b4c78:	480a      	ldr	r0, [pc, #40]	; (b4ca4 <setup+0x138>)
   b4c7a:	f001 f993 	bl	b5fa4 <_ZN16OledWingAdafruit5setupEv>
  pinMode(RED_PIN, OUTPUT);
   b4c7e:	2101      	movs	r1, #1
   b4c80:	2006      	movs	r0, #6
   b4c82:	f002 fd41 	bl	b7708 <pinMode>
  pinMode(YELLOW_PIN, OUTPUT);
   b4c86:	2101      	movs	r1, #1
   b4c88:	2007      	movs	r0, #7
   b4c8a:	f002 fd3d 	bl	b7708 <pinMode>
  pinMode(GREEN_PIN, OUTPUT);
   b4c8e:	2101      	movs	r1, #1
   b4c90:	2008      	movs	r0, #8
}
   b4c92:	b014      	add	sp, #80	; 0x50
   b4c94:	e8bd 41f0 	ldmia.w	sp!, {r4, r5, r6, r7, r8, lr}
  pinMode(GREEN_PIN, OUTPUT);
   b4c98:	f002 bd36 	b.w	b7708 <pinMode>
   b4c9c:	2003e5e8 	.word	0x2003e5e8
   b4ca0:	000b7e37 	.word	0x000b7e37
   b4ca4:	2003e644 	.word	0x2003e644

000b4ca8 <_GLOBAL__sub_I_Blynk>:
   b4ca8:	b510      	push	{r4, lr}
        : domain(NULL), port(0)
   b4caa:	4c0e      	ldr	r4, [pc, #56]	; (b4ce4 <_GLOBAL__sub_I_Blynk+0x3c>)
   b4cac:	4620      	mov	r0, r4
   b4cae:	f002 fb1f 	bl	b72f0 <_ZN9TCPClientC1Ev>
   b4cb2:	f104 001c 	add.w	r0, r4, #28
   b4cb6:	f001 fda7 	bl	b6808 <_ZN9IPAddressC1Ev>
        , state(CONNECTING)
   b4cba:	4b0b      	ldr	r3, [pc, #44]	; (b4ce8 <_GLOBAL__sub_I_Blynk+0x40>)
   b4cbc:	2100      	movs	r1, #0
   b4cbe:	e9c3 4100 	strd	r4, r1, [r3]
   b4cc2:	e9c3 1102 	strd	r1, r1, [r3, #8]
   b4cc6:	e9c3 1104 	strd	r1, r1, [r3, #16]
   b4cca:	6199      	str	r1, [r3, #24]
   b4ccc:	8399      	strh	r1, [r3, #28]
SYSTEM_THREAD(ENABLED);
   b4cce:	2001      	movs	r0, #1
   b4cd0:	6361      	str	r1, [r4, #52]	; 0x34
   b4cd2:	8721      	strh	r1, [r4, #56]	; 0x38
   b4cd4:	f001 fbce 	bl	b6474 <system_thread_set_state>
   b4cd8:	e8bd 4010 	ldmia.w	sp!, {r4, lr}
OledWingAdafruit display;
   b4cdc:	4803      	ldr	r0, [pc, #12]	; (b4cec <_GLOBAL__sub_I_Blynk+0x44>)
   b4cde:	2107      	movs	r1, #7
   b4ce0:	f001 b932 	b.w	b5f48 <_ZN16OledWingAdafruitC1Ei>
   b4ce4:	2003e608 	.word	0x2003e608
   b4ce8:	2003e5e8 	.word	0x2003e5e8
   b4cec:	2003e644 	.word	0x2003e644

000b4cf0 <_ZN12Adafruit_GFX9writeLineEsssst>:
    @param    y1  End point y coordinate
    @param    color 16-bit 5-6-5 Color to draw with
*/
/**************************************************************************/
void Adafruit_GFX::writeLine(int16_t x0, int16_t y0, int16_t x1, int16_t y1,
        uint16_t color) {
   b4cf0:	e92d 4ff0 	stmdb	sp!, {r4, r5, r6, r7, r8, r9, sl, fp, lr}
   b4cf4:	b085      	sub	sp, #20
   b4cf6:	461f      	mov	r7, r3
   b4cf8:	f9bd 8038 	ldrsh.w	r8, [sp, #56]	; 0x38
   b4cfc:	f8bd 303c 	ldrh.w	r3, [sp, #60]	; 0x3c
#if defined(ESP8266)
    yield();
#endif
    int16_t steep = abs(y1 - y0) > abs(x1 - x0);
   b4d00:	eba8 0902 	sub.w	r9, r8, r2
   b4d04:	eba7 0a01 	sub.w	sl, r7, r1
   b4d08:	f1b9 0f00 	cmp.w	r9, #0
   b4d0c:	bfb8      	it	lt
   b4d0e:	f1c9 0900 	rsblt	r9, r9, #0
   b4d12:	f1ba 0f00 	cmp.w	sl, #0
   b4d16:	bfb8      	it	lt
   b4d18:	f1ca 0a00 	rsblt	sl, sl, #0
    if (steep) {
   b4d1c:	45d1      	cmp	r9, sl
        uint16_t color) {
   b4d1e:	4683      	mov	fp, r0
   b4d20:	460c      	mov	r4, r1
   b4d22:	4615      	mov	r5, r2
    if (steep) {
   b4d24:	dd04      	ble.n	b4d30 <_ZN12Adafruit_GFX9writeLineEsssst+0x40>
   b4d26:	463a      	mov	r2, r7
        _swap_int16_t(x0, y0);
   b4d28:	462c      	mov	r4, r5
        _swap_int16_t(x1, y1);
   b4d2a:	4647      	mov	r7, r8
        _swap_int16_t(x0, y0);
   b4d2c:	460d      	mov	r5, r1
        _swap_int16_t(x1, y1);
   b4d2e:	4690      	mov	r8, r2
    }

    if (x0 > x1) {
   b4d30:	42bc      	cmp	r4, r7
   b4d32:	dd05      	ble.n	b4d40 <_ZN12Adafruit_GFX9writeLineEsssst+0x50>
   b4d34:	462a      	mov	r2, r5
        _swap_int16_t(x0, x1);
        _swap_int16_t(y0, y1);
   b4d36:	4645      	mov	r5, r8
   b4d38:	4690      	mov	r8, r2
    if (x0 > x1) {
   b4d3a:	4622      	mov	r2, r4
   b4d3c:	463c      	mov	r4, r7
   b4d3e:	4617      	mov	r7, r2
    }

    int16_t dx, dy;
    dx = x1 - x0;
   b4d40:	1b3e      	subs	r6, r7, r4
   b4d42:	b2b2      	uxth	r2, r6
   b4d44:	9200      	str	r2, [sp, #0]
    dy = abs(y1 - y0);
   b4d46:	eba8 0205 	sub.w	r2, r8, r5
   b4d4a:	ea82 71e2 	eor.w	r1, r2, r2, asr #31
   b4d4e:	eba1 71e2 	sub.w	r1, r1, r2, asr #31

    int16_t err = dx / 2;
   b4d52:	f3c6 32c0 	ubfx	r2, r6, #15, #1
   b4d56:	fa02 f686 	sxtah	r6, r2, r6
    int16_t ystep;

    if (y0 < y1) {
        ystep = 1;
    } else {
        ystep = -1;
   b4d5a:	4545      	cmp	r5, r8
   b4d5c:	bfb4      	ite	lt
   b4d5e:	2201      	movlt	r2, #1
   b4d60:	f04f 32ff 	movge.w	r2, #4294967295	; 0xffffffff
    dy = abs(y1 - y0);
   b4d64:	9101      	str	r1, [sp, #4]
    int16_t err = dx / 2;
   b4d66:	1076      	asrs	r6, r6, #1
        ystep = -1;
   b4d68:	9202      	str	r2, [sp, #8]
    }

    for (; x0<=x1; x0++) {
   b4d6a:	42bc      	cmp	r4, r7
   b4d6c:	dc1c      	bgt.n	b4da8 <_ZN12Adafruit_GFX9writeLineEsssst+0xb8>
        if (steep) {
            writePixel(y0, x0, color);
   b4d6e:	f8db 2000 	ldr.w	r2, [fp]
   b4d72:	9303      	str	r3, [sp, #12]
        if (steep) {
   b4d74:	45d1      	cmp	r9, sl
            writePixel(y0, x0, color);
   b4d76:	f8d2 8018 	ldr.w	r8, [r2, #24]
   b4d7a:	bfc7      	ittee	gt
   b4d7c:	4629      	movgt	r1, r5
   b4d7e:	4622      	movgt	r2, r4
        } else {
            writePixel(x0, y0, color);
   b4d80:	462a      	movle	r2, r5
   b4d82:	4621      	movle	r1, r4
   b4d84:	4658      	mov	r0, fp
   b4d86:	47c0      	blx	r8
        }
        err -= dy;
   b4d88:	9a01      	ldr	r2, [sp, #4]
            writePixel(x0, y0, color);
   b4d8a:	9b03      	ldr	r3, [sp, #12]
        err -= dy;
   b4d8c:	1ab6      	subs	r6, r6, r2
   b4d8e:	b2b1      	uxth	r1, r6
   b4d90:	b236      	sxth	r6, r6
        if (err < 0) {
   b4d92:	2e00      	cmp	r6, #0
   b4d94:	da05      	bge.n	b4da2 <_ZN12Adafruit_GFX9writeLineEsssst+0xb2>
            y0 += ystep;
   b4d96:	9a02      	ldr	r2, [sp, #8]
   b4d98:	4415      	add	r5, r2
            err += dx;
   b4d9a:	9a00      	ldr	r2, [sp, #0]
   b4d9c:	1856      	adds	r6, r2, r1
            y0 += ystep;
   b4d9e:	b22d      	sxth	r5, r5
            err += dx;
   b4da0:	b236      	sxth	r6, r6
    for (; x0<=x1; x0++) {
   b4da2:	3401      	adds	r4, #1
   b4da4:	b224      	sxth	r4, r4
   b4da6:	e7e0      	b.n	b4d6a <_ZN12Adafruit_GFX9writeLineEsssst+0x7a>
        }
    }
}
   b4da8:	b005      	add	sp, #20
   b4daa:	e8bd 8ff0 	ldmia.w	sp!, {r4, r5, r6, r7, r8, r9, sl, fp, pc}

000b4dae <_ZN12Adafruit_GFX10startWriteEv>:
/*!
   @brief    Start a display-writing routine, overwrite in subclasses.
*/
/**************************************************************************/
void Adafruit_GFX::startWrite(){
}
   b4dae:	4770      	bx	lr

000b4db0 <_ZN12Adafruit_GFX10writePixelEsst>:
    @param   x   x coordinate
    @param   y   y coordinate
   @param    color 16-bit 5-6-5 Color to fill with
*/
/**************************************************************************/
void Adafruit_GFX::writePixel(int16_t x, int16_t y, uint16_t color){
   b4db0:	b410      	push	{r4}
    drawPixel(x, y, color);
   b4db2:	6804      	ldr	r4, [r0, #0]
   b4db4:	6924      	ldr	r4, [r4, #16]
   b4db6:	46a4      	mov	ip, r4
}
   b4db8:	f85d 4b04 	ldr.w	r4, [sp], #4
    drawPixel(x, y, color);
   b4dbc:	4760      	bx	ip

000b4dbe <_ZN12Adafruit_GFX14writeFastVLineEssst>:
    @param    h   Height in pixels
   @param    color 16-bit 5-6-5 Color to fill with
*/
/**************************************************************************/
void Adafruit_GFX::writeFastVLine(int16_t x, int16_t y,
        int16_t h, uint16_t color) {
   b4dbe:	b430      	push	{r4, r5}
    // Overwrite in subclasses if startWrite is defined!
    // Can be just writeLine(x, y, x, y+h-1, color);
    // or writeFillRect(x, y, 1, h, color);
    drawFastVLine(x, y, h, color);
   b4dc0:	6804      	ldr	r4, [r0, #0]
        int16_t h, uint16_t color) {
   b4dc2:	f8bd 5008 	ldrh.w	r5, [sp, #8]
    drawFastVLine(x, y, h, color);
   b4dc6:	9502      	str	r5, [sp, #8]
   b4dc8:	6ba4      	ldr	r4, [r4, #56]	; 0x38
   b4dca:	46a4      	mov	ip, r4
}
   b4dcc:	bc30      	pop	{r4, r5}
    drawFastVLine(x, y, h, color);
   b4dce:	4760      	bx	ip

000b4dd0 <_ZN12Adafruit_GFX14writeFastHLineEssst>:
    @param    w   Width in pixels
   @param    color 16-bit 5-6-5 Color to fill with
*/
/**************************************************************************/
void Adafruit_GFX::writeFastHLine(int16_t x, int16_t y,
        int16_t w, uint16_t color) {
   b4dd0:	b430      	push	{r4, r5}
    // Overwrite in subclasses if startWrite is defined!
    // Example: writeLine(x, y, x+w-1, y, color);
    // or writeFillRect(x, y, w, 1, color);
    drawFastHLine(x, y, w, color);
   b4dd2:	6804      	ldr	r4, [r0, #0]
        int16_t w, uint16_t color) {
   b4dd4:	f8bd 5008 	ldrh.w	r5, [sp, #8]
    drawFastHLine(x, y, w, color);
   b4dd8:	9502      	str	r5, [sp, #8]
   b4dda:	6be4      	ldr	r4, [r4, #60]	; 0x3c
   b4ddc:	46a4      	mov	ip, r4
}
   b4dde:	bc30      	pop	{r4, r5}
    drawFastHLine(x, y, w, color);
   b4de0:	4760      	bx	ip

000b4de2 <_ZN12Adafruit_GFX13writeFillRectEsssst>:
    @param    h   Height in pixels
   @param    color 16-bit 5-6-5 Color to fill with
*/
/**************************************************************************/
void Adafruit_GFX::writeFillRect(int16_t x, int16_t y, int16_t w, int16_t h,
        uint16_t color) {
   b4de2:	b470      	push	{r4, r5, r6}
   b4de4:	f9bd 500c 	ldrsh.w	r5, [sp, #12]
   b4de8:	f8bd 6010 	ldrh.w	r6, [sp, #16]
    // Overwrite in subclasses if desired!
    fillRect(x,y,w,h,color);
   b4dec:	6804      	ldr	r4, [r0, #0]
   b4dee:	e9cd 5603 	strd	r5, r6, [sp, #12]
   b4df2:	6c24      	ldr	r4, [r4, #64]	; 0x40
   b4df4:	46a4      	mov	ip, r4
}
   b4df6:	bc70      	pop	{r4, r5, r6}
    fillRect(x,y,w,h,color);
   b4df8:	4760      	bx	ip

000b4dfa <_ZN12Adafruit_GFX13drawFastVLineEssst>:
    @param    h   Height in pixels
   @param    color 16-bit 5-6-5 Color to fill with
*/
/**************************************************************************/
void Adafruit_GFX::drawFastVLine(int16_t x, int16_t y,
        int16_t h, uint16_t color) {
   b4dfa:	e92d 41f3 	stmdb	sp!, {r0, r1, r4, r5, r6, r7, r8, lr}
   b4dfe:	461c      	mov	r4, r3
    startWrite();
   b4e00:	6803      	ldr	r3, [r0, #0]
        int16_t h, uint16_t color) {
   b4e02:	f8bd 8020 	ldrh.w	r8, [sp, #32]
    startWrite();
   b4e06:	695b      	ldr	r3, [r3, #20]
        int16_t h, uint16_t color) {
   b4e08:	4605      	mov	r5, r0
   b4e0a:	4616      	mov	r6, r2
    writeLine(x, y, x, y+h-1, color);
   b4e0c:	3c01      	subs	r4, #1
   b4e0e:	4434      	add	r4, r6
        int16_t h, uint16_t color) {
   b4e10:	460f      	mov	r7, r1
    writeLine(x, y, x, y+h-1, color);
   b4e12:	b224      	sxth	r4, r4
    startWrite();
   b4e14:	4798      	blx	r3
    writeLine(x, y, x, y+h-1, color);
   b4e16:	682b      	ldr	r3, [r5, #0]
   b4e18:	f8cd 8004 	str.w	r8, [sp, #4]
   b4e1c:	9400      	str	r4, [sp, #0]
   b4e1e:	6a9c      	ldr	r4, [r3, #40]	; 0x28
   b4e20:	4628      	mov	r0, r5
   b4e22:	463b      	mov	r3, r7
   b4e24:	4632      	mov	r2, r6
   b4e26:	4639      	mov	r1, r7
   b4e28:	47a0      	blx	r4
    endWrite();
   b4e2a:	682b      	ldr	r3, [r5, #0]
   b4e2c:	6adb      	ldr	r3, [r3, #44]	; 0x2c
   b4e2e:	4628      	mov	r0, r5
}
   b4e30:	b002      	add	sp, #8
   b4e32:	e8bd 41f0 	ldmia.w	sp!, {r4, r5, r6, r7, r8, lr}
    endWrite();
   b4e36:	4718      	bx	r3

000b4e38 <_ZN12Adafruit_GFX13drawFastHLineEssst>:
    @param    w   Width in pixels
   @param    color 16-bit 5-6-5 Color to fill with
*/
/**************************************************************************/
void Adafruit_GFX::drawFastHLine(int16_t x, int16_t y,
        int16_t w, uint16_t color) {
   b4e38:	e92d 41f3 	stmdb	sp!, {r0, r1, r4, r5, r6, r7, r8, lr}
   b4e3c:	461d      	mov	r5, r3
    startWrite();
   b4e3e:	6803      	ldr	r3, [r0, #0]
        int16_t w, uint16_t color) {
   b4e40:	f8bd 8020 	ldrh.w	r8, [sp, #32]
    startWrite();
   b4e44:	695b      	ldr	r3, [r3, #20]
        int16_t w, uint16_t color) {
   b4e46:	4604      	mov	r4, r0
   b4e48:	4617      	mov	r7, r2
   b4e4a:	460e      	mov	r6, r1
    startWrite();
   b4e4c:	4798      	blx	r3
    writeLine(x, y, x+w-1, y, color);
   b4e4e:	e9cd 7800 	strd	r7, r8, [sp]
   b4e52:	6822      	ldr	r2, [r4, #0]
   b4e54:	1e6b      	subs	r3, r5, #1
   b4e56:	4433      	add	r3, r6
   b4e58:	6a95      	ldr	r5, [r2, #40]	; 0x28
   b4e5a:	4620      	mov	r0, r4
   b4e5c:	b21b      	sxth	r3, r3
   b4e5e:	463a      	mov	r2, r7
   b4e60:	4631      	mov	r1, r6
   b4e62:	47a8      	blx	r5
    endWrite();
   b4e64:	6823      	ldr	r3, [r4, #0]
   b4e66:	6adb      	ldr	r3, [r3, #44]	; 0x2c
   b4e68:	4620      	mov	r0, r4
}
   b4e6a:	b002      	add	sp, #8
   b4e6c:	e8bd 41f0 	ldmia.w	sp!, {r4, r5, r6, r7, r8, lr}
    endWrite();
   b4e70:	4718      	bx	r3

000b4e72 <_ZN12Adafruit_GFX8fillRectEsssst>:
    @param    h   Height in pixels
   @param    color 16-bit 5-6-5 Color to fill with
*/
/**************************************************************************/
void Adafruit_GFX::fillRect(int16_t x, int16_t y, int16_t w, int16_t h,
        uint16_t color) {
   b4e72:	e92d 47f3 	stmdb	sp!, {r0, r1, r4, r5, r6, r7, r8, r9, sl, lr}
   b4e76:	461e      	mov	r6, r3
    startWrite();
   b4e78:	6803      	ldr	r3, [r0, #0]
        uint16_t color) {
   b4e7a:	f9bd 9028 	ldrsh.w	r9, [sp, #40]	; 0x28
    startWrite();
   b4e7e:	695b      	ldr	r3, [r3, #20]
        uint16_t color) {
   b4e80:	f8bd 802c 	ldrh.w	r8, [sp, #44]	; 0x2c
   b4e84:	460c      	mov	r4, r1
   b4e86:	4605      	mov	r5, r0
   b4e88:	4617      	mov	r7, r2
    startWrite();
   b4e8a:	4798      	blx	r3
    for (int16_t i=x; i<x+w; i++) {
   b4e8c:	4426      	add	r6, r4
   b4e8e:	42b4      	cmp	r4, r6
        writeFastVLine(i, y, h, color);
   b4e90:	682b      	ldr	r3, [r5, #0]
    for (int16_t i=x; i<x+w; i++) {
   b4e92:	da0b      	bge.n	b4eac <_ZN12Adafruit_GFX8fillRectEsssst+0x3a>
        writeFastVLine(i, y, h, color);
   b4e94:	f8cd 8000 	str.w	r8, [sp]
   b4e98:	f8d3 a020 	ldr.w	sl, [r3, #32]
   b4e9c:	4621      	mov	r1, r4
   b4e9e:	464b      	mov	r3, r9
   b4ea0:	463a      	mov	r2, r7
   b4ea2:	4628      	mov	r0, r5
   b4ea4:	3401      	adds	r4, #1
   b4ea6:	47d0      	blx	sl
    for (int16_t i=x; i<x+w; i++) {
   b4ea8:	b224      	sxth	r4, r4
   b4eaa:	e7f0      	b.n	b4e8e <_ZN12Adafruit_GFX8fillRectEsssst+0x1c>
    }
    endWrite();
   b4eac:	6adb      	ldr	r3, [r3, #44]	; 0x2c
   b4eae:	4628      	mov	r0, r5
}
   b4eb0:	b002      	add	sp, #8
   b4eb2:	e8bd 47f0 	ldmia.w	sp!, {r4, r5, r6, r7, r8, r9, sl, lr}
    endWrite();
   b4eb6:	4718      	bx	r3

000b4eb8 <_ZN12Adafruit_GFX10fillScreenEt>:
/*!
   @brief    Fill the screen completely with one color. Update in subclasses if desired!
    @param    color 16-bit 5-6-5 Color to fill with
*/
/**************************************************************************/
void Adafruit_GFX::fillScreen(uint16_t color) {
   b4eb8:	b513      	push	{r0, r1, r4, lr}
    fillRect(0, 0, _width, _height, color);
   b4eba:	6802      	ldr	r2, [r0, #0]
   b4ebc:	9101      	str	r1, [sp, #4]
   b4ebe:	f9b0 100e 	ldrsh.w	r1, [r0, #14]
   b4ec2:	9100      	str	r1, [sp, #0]
   b4ec4:	6c14      	ldr	r4, [r2, #64]	; 0x40
   b4ec6:	f9b0 300c 	ldrsh.w	r3, [r0, #12]
   b4eca:	2200      	movs	r2, #0
   b4ecc:	4611      	mov	r1, r2
   b4ece:	47a0      	blx	r4
}
   b4ed0:	b002      	add	sp, #8
   b4ed2:	bd10      	pop	{r4, pc}

000b4ed4 <_ZN12Adafruit_GFX8drawLineEsssst>:
    @param    y1  End point y coordinate
    @param    color 16-bit 5-6-5 Color to draw with
*/
/**************************************************************************/
void Adafruit_GFX::drawLine(int16_t x0, int16_t y0, int16_t x1, int16_t y1,
        uint16_t color) {
   b4ed4:	e92d 43f7 	stmdb	sp!, {r0, r1, r2, r4, r5, r6, r7, r8, r9, lr}
    // Update in subclasses if desired!
    if(x0 == x1){
   b4ed8:	4299      	cmp	r1, r3
        uint16_t color) {
   b4eda:	4616      	mov	r6, r2
   b4edc:	f9bd 7028 	ldrsh.w	r7, [sp, #40]	; 0x28
   b4ee0:	f8bd 902c 	ldrh.w	r9, [sp, #44]	; 0x2c
        if(y0 > y1) _swap_int16_t(y0, y1);
        drawFastVLine(x0, y0, y1 - y0 + 1, color);
   b4ee4:	6802      	ldr	r2, [r0, #0]
        uint16_t color) {
   b4ee6:	4680      	mov	r8, r0
   b4ee8:	460d      	mov	r5, r1
   b4eea:	461c      	mov	r4, r3
    if(x0 == x1){
   b4eec:	d113      	bne.n	b4f16 <_ZN12Adafruit_GFX8drawLineEsssst+0x42>
        if(y0 > y1) _swap_int16_t(y0, y1);
   b4eee:	42be      	cmp	r6, r7
   b4ef0:	bfc8      	it	gt
   b4ef2:	4633      	movgt	r3, r6
        drawFastVLine(x0, y0, y1 - y0 + 1, color);
   b4ef4:	f8cd 9028 	str.w	r9, [sp, #40]	; 0x28
        if(y0 > y1) _swap_int16_t(y0, y1);
   b4ef8:	bfc4      	itt	gt
   b4efa:	463e      	movgt	r6, r7
   b4efc:	461f      	movgt	r7, r3
        drawFastVLine(x0, y0, y1 - y0 + 1, color);
   b4efe:	1c7b      	adds	r3, r7, #1
   b4f00:	6b94      	ldr	r4, [r2, #56]	; 0x38
   b4f02:	1b9b      	subs	r3, r3, r6
    } else if(y0 == y1){
        if(x0 > x1) _swap_int16_t(x0, x1);
        drawFastHLine(x0, y0, x1 - x0 + 1, color);
   b4f04:	b21b      	sxth	r3, r3
   b4f06:	4632      	mov	r2, r6
   b4f08:	4629      	mov	r1, r5
   b4f0a:	4640      	mov	r0, r8
   b4f0c:	46a4      	mov	ip, r4
    } else {
        startWrite();
        writeLine(x0, y0, x1, y1, color);
        endWrite();
    }
}
   b4f0e:	b003      	add	sp, #12
   b4f10:	e8bd 43f0 	ldmia.w	sp!, {r4, r5, r6, r7, r8, r9, lr}
        drawFastHLine(x0, y0, x1 - x0 + 1, color);
   b4f14:	4760      	bx	ip
    } else if(y0 == y1){
   b4f16:	42be      	cmp	r6, r7
   b4f18:	d10a      	bne.n	b4f30 <_ZN12Adafruit_GFX8drawLineEsssst+0x5c>
        if(x0 > x1) _swap_int16_t(x0, x1);
   b4f1a:	4299      	cmp	r1, r3
   b4f1c:	bfc2      	ittt	gt
   b4f1e:	460b      	movgt	r3, r1
   b4f20:	4625      	movgt	r5, r4
   b4f22:	461c      	movgt	r4, r3
        drawFastHLine(x0, y0, x1 - x0 + 1, color);
   b4f24:	1c63      	adds	r3, r4, #1
   b4f26:	f8cd 9028 	str.w	r9, [sp, #40]	; 0x28
   b4f2a:	6bd4      	ldr	r4, [r2, #60]	; 0x3c
   b4f2c:	1b5b      	subs	r3, r3, r5
   b4f2e:	e7e9      	b.n	b4f04 <_ZN12Adafruit_GFX8drawLineEsssst+0x30>
        startWrite();
   b4f30:	6953      	ldr	r3, [r2, #20]
   b4f32:	4798      	blx	r3
        writeLine(x0, y0, x1, y1, color);
   b4f34:	e9cd 7900 	strd	r7, r9, [sp]
   b4f38:	f8d8 3000 	ldr.w	r3, [r8]
   b4f3c:	4640      	mov	r0, r8
   b4f3e:	6a9f      	ldr	r7, [r3, #40]	; 0x28
   b4f40:	4632      	mov	r2, r6
   b4f42:	4623      	mov	r3, r4
   b4f44:	4629      	mov	r1, r5
   b4f46:	47b8      	blx	r7
        endWrite();
   b4f48:	f8d8 3000 	ldr.w	r3, [r8]
   b4f4c:	6adb      	ldr	r3, [r3, #44]	; 0x2c
   b4f4e:	4640      	mov	r0, r8
}
   b4f50:	b003      	add	sp, #12
   b4f52:	e8bd 43f0 	ldmia.w	sp!, {r4, r5, r6, r7, r8, r9, lr}
        endWrite();
   b4f56:	4718      	bx	r3

000b4f58 <_ZN12Adafruit_GFX8drawRectEsssst>:
    @param    h   Height in pixels
    @param    color 16-bit 5-6-5 Color to draw with
*/
/**************************************************************************/
void Adafruit_GFX::drawRect(int16_t x, int16_t y, int16_t w, int16_t h,
        uint16_t color) {
   b4f58:	e92d 47f3 	stmdb	sp!, {r0, r1, r4, r5, r6, r7, r8, r9, sl, lr}
   b4f5c:	461d      	mov	r5, r3
    startWrite();
   b4f5e:	6803      	ldr	r3, [r0, #0]
        uint16_t color) {
   b4f60:	f8bd 802c 	ldrh.w	r8, [sp, #44]	; 0x2c
    startWrite();
   b4f64:	695b      	ldr	r3, [r3, #20]
        uint16_t color) {
   b4f66:	f9bd 9028 	ldrsh.w	r9, [sp, #40]	; 0x28
   b4f6a:	4604      	mov	r4, r0
   b4f6c:	460f      	mov	r7, r1
   b4f6e:	4616      	mov	r6, r2
    startWrite();
   b4f70:	4798      	blx	r3
    writeFastHLine(x, y, w, color);
   b4f72:	6823      	ldr	r3, [r4, #0]
   b4f74:	f8cd 8000 	str.w	r8, [sp]
   b4f78:	f8d3 a024 	ldr.w	sl, [r3, #36]	; 0x24
   b4f7c:	4632      	mov	r2, r6
   b4f7e:	462b      	mov	r3, r5
   b4f80:	4639      	mov	r1, r7
   b4f82:	4620      	mov	r0, r4
   b4f84:	47d0      	blx	sl
    writeFastHLine(x, y+h-1, w, color);
   b4f86:	6823      	ldr	r3, [r4, #0]
   b4f88:	f8cd 8000 	str.w	r8, [sp]
   b4f8c:	f109 32ff 	add.w	r2, r9, #4294967295	; 0xffffffff
   b4f90:	4432      	add	r2, r6
   b4f92:	f8d3 a024 	ldr.w	sl, [r3, #36]	; 0x24
   b4f96:	4639      	mov	r1, r7
   b4f98:	462b      	mov	r3, r5
   b4f9a:	4620      	mov	r0, r4
   b4f9c:	b212      	sxth	r2, r2
   b4f9e:	47d0      	blx	sl
    writeFastVLine(x, y, h, color);
   b4fa0:	6823      	ldr	r3, [r4, #0]
   b4fa2:	f8cd 8000 	str.w	r8, [sp]
   b4fa6:	f8d3 a020 	ldr.w	sl, [r3, #32]
   b4faa:	4632      	mov	r2, r6
   b4fac:	464b      	mov	r3, r9
   b4fae:	4639      	mov	r1, r7
   b4fb0:	4620      	mov	r0, r4
   b4fb2:	47d0      	blx	sl
    writeFastVLine(x+w-1, y, h, color);
   b4fb4:	1e6b      	subs	r3, r5, #1
   b4fb6:	19d9      	adds	r1, r3, r7
   b4fb8:	6823      	ldr	r3, [r4, #0]
   b4fba:	f8cd 8000 	str.w	r8, [sp]
   b4fbe:	6a1d      	ldr	r5, [r3, #32]
   b4fc0:	4620      	mov	r0, r4
   b4fc2:	464b      	mov	r3, r9
   b4fc4:	4632      	mov	r2, r6
   b4fc6:	b209      	sxth	r1, r1
   b4fc8:	47a8      	blx	r5
    endWrite();
   b4fca:	6823      	ldr	r3, [r4, #0]
   b4fcc:	6adb      	ldr	r3, [r3, #44]	; 0x2c
   b4fce:	4620      	mov	r0, r4
}
   b4fd0:	b002      	add	sp, #8
   b4fd2:	e8bd 47f0 	ldmia.w	sp!, {r4, r5, r6, r7, r8, r9, sl, lr}
    endWrite();
   b4fd6:	4718      	bx	r3

000b4fd8 <_ZN12Adafruit_GFX13invertDisplayEb>:
    @param   i  True if you want to invert, false to make 'normal'
*/
/**************************************************************************/
void Adafruit_GFX::invertDisplay(boolean i) {
    // Do nothing, must be subclassed if supported by hardware
}
   b4fd8:	4770      	bx	lr

000b4fda <_ZN12Adafruit_GFX11setRotationEh>:
    rotation = (x & 3);
   b4fda:	f001 0303 	and.w	r3, r1, #3
            _height = HEIGHT;
   b4fde:	f9b0 200a 	ldrsh.w	r2, [r0, #10]
    rotation = (x & 3);
   b4fe2:	7683      	strb	r3, [r0, #26]
    switch(rotation) {
   b4fe4:	07c9      	lsls	r1, r1, #31
            _width  = WIDTH;
   b4fe6:	f9b0 3008 	ldrsh.w	r3, [r0, #8]
   b4fea:	bf59      	ittee	pl
   b4fec:	8183      	strhpl	r3, [r0, #12]
            _height = HEIGHT;
   b4fee:	81c2      	strhpl	r2, [r0, #14]
            _width  = HEIGHT;
   b4ff0:	8182      	strhmi	r2, [r0, #12]
            _height = WIDTH;
   b4ff2:	81c3      	strhmi	r3, [r0, #14]
}
   b4ff4:	4770      	bx	lr
	...

000b4ff8 <_ZN12Adafruit_GFXC1Ess>:
Adafruit_GFX::Adafruit_GFX(int16_t w, int16_t h):
   b4ff8:	b530      	push	{r4, r5, lr}
WIDTH(w), HEIGHT(h)
   b4ffa:	8142      	strh	r2, [r0, #10]
    _height   = HEIGHT;
   b4ffc:	81c2      	strh	r2, [r0, #14]
    textsize_x = textsize_y  = 1;
   b4ffe:	4a07      	ldr	r2, [pc, #28]	; (b501c <_ZN12Adafruit_GFXC1Ess+0x24>)
WIDTH(w), HEIGHT(h)
   b5000:	4d07      	ldr	r5, [pc, #28]	; (b5020 <_ZN12Adafruit_GFXC1Ess+0x28>)
   b5002:	8101      	strh	r1, [r0, #8]
    Print() : write_error(0) {}
   b5004:	2400      	movs	r4, #0
    _width    = WIDTH;
   b5006:	8181      	strh	r1, [r0, #12]
    textsize_x = textsize_y  = 1;
   b5008:	f04f 31ff 	mov.w	r1, #4294967295	; 0xffffffff
   b500c:	e9c0 1205 	strd	r1, r2, [r0, #20]
   b5010:	6044      	str	r4, [r0, #4]
WIDTH(w), HEIGHT(h)
   b5012:	6005      	str	r5, [r0, #0]
    cursor_y  = cursor_x    = 0;
   b5014:	6104      	str	r4, [r0, #16]
    _cp437    = false;
   b5016:	7704      	strb	r4, [r0, #28]
    gfxFont   = NULL;
   b5018:	6204      	str	r4, [r0, #32]
}
   b501a:	bd30      	pop	{r4, r5, pc}
   b501c:	01000101 	.word	0x01000101
   b5020:	000b83bc 	.word	0x000b83bc

000b5024 <_ZN12Adafruit_GFX10drawBitmapEssPKhsst>:
  const uint8_t bitmap[], int16_t w, int16_t h, uint16_t color) {
   b5024:	e92d 4ff0 	stmdb	sp!, {r4, r5, r6, r7, r8, r9, sl, fp, lr}
   b5028:	b089      	sub	sp, #36	; 0x24
   b502a:	e9cd 1202 	strd	r1, r2, [sp, #8]
    startWrite();
   b502e:	6802      	ldr	r2, [r0, #0]
  const uint8_t bitmap[], int16_t w, int16_t h, uint16_t color) {
   b5030:	f9bd 8048 	ldrsh.w	r8, [sp, #72]	; 0x48
   b5034:	9304      	str	r3, [sp, #16]
   b5036:	f9bd 304c 	ldrsh.w	r3, [sp, #76]	; 0x4c
    startWrite();
   b503a:	6952      	ldr	r2, [r2, #20]
  const uint8_t bitmap[], int16_t w, int16_t h, uint16_t color) {
   b503c:	9305      	str	r3, [sp, #20]
   b503e:	f8bd a050 	ldrh.w	sl, [sp, #80]	; 0x50
   b5042:	4604      	mov	r4, r0
    startWrite();
   b5044:	4790      	blx	r2
    int16_t byteWidth = (w + 7) / 8; // Bitmap scanline pad = whole byte
   b5046:	f118 0207 	adds.w	r2, r8, #7
    startWrite();
   b504a:	f04f 0600 	mov.w	r6, #0
    int16_t byteWidth = (w + 7) / 8; // Bitmap scanline pad = whole byte
   b504e:	bf48      	it	mi
   b5050:	f108 020e 	addmi.w	r2, r8, #14
   b5054:	ea4f 0be2 	mov.w	fp, r2, asr #3
    startWrite();
   b5058:	9601      	str	r6, [sp, #4]
    uint8_t byte = 0;
   b505a:	4635      	mov	r5, r6
   b505c:	9b03      	ldr	r3, [sp, #12]
   b505e:	9a01      	ldr	r2, [sp, #4]
    for(int16_t j=0; j<h; j++, y++) {
   b5060:	f9bd 1004 	ldrsh.w	r1, [sp, #4]
   b5064:	189a      	adds	r2, r3, r2
   b5066:	9b05      	ldr	r3, [sp, #20]
   b5068:	428b      	cmp	r3, r1
   b506a:	b212      	sxth	r2, r2
   b506c:	dd27      	ble.n	b50be <_ZN12Adafruit_GFX10drawBitmapEssPKhsst+0x9a>
            else      byte   = pgm_read_byte(&bitmap[j * byteWidth + i / 8]);
   b506e:	9b04      	ldr	r3, [sp, #16]
   b5070:	4433      	add	r3, r6
    for(int16_t j=0; j<h; j++, y++) {
   b5072:	f04f 0900 	mov.w	r9, #0
            else      byte   = pgm_read_byte(&bitmap[j * byteWidth + i / 8]);
   b5076:	9306      	str	r3, [sp, #24]
   b5078:	fa0f f089 	sxth.w	r0, r9
        for(int16_t i=0; i<w; i++) {
   b507c:	4580      	cmp	r8, r0
   b507e:	fa1f f189 	uxth.w	r1, r9
   b5082:	dd17      	ble.n	b50b4 <_ZN12Adafruit_GFX10drawBitmapEssPKhsst+0x90>
            if(i & 7) byte <<= 1;
   b5084:	074f      	lsls	r7, r1, #29
            else      byte   = pgm_read_byte(&bitmap[j * byteWidth + i / 8]);
   b5086:	bf05      	ittet	eq
   b5088:	9b06      	ldreq	r3, [sp, #24]
   b508a:	10c0      	asreq	r0, r0, #3
            if(i & 7) byte <<= 1;
   b508c:	006d      	lslne	r5, r5, #1
            else      byte   = pgm_read_byte(&bitmap[j * byteWidth + i / 8]);
   b508e:	5c1d      	ldrbeq	r5, [r3, r0]
            if(i & 7) byte <<= 1;
   b5090:	bf18      	it	ne
   b5092:	b2ed      	uxtbne	r5, r5
            if(byte & 0x80) writePixel(x+i, y, color);
   b5094:	062b      	lsls	r3, r5, #24
   b5096:	d50a      	bpl.n	b50ae <_ZN12Adafruit_GFX10drawBitmapEssPKhsst+0x8a>
   b5098:	9b02      	ldr	r3, [sp, #8]
   b509a:	6820      	ldr	r0, [r4, #0]
   b509c:	9207      	str	r2, [sp, #28]
   b509e:	4419      	add	r1, r3
   b50a0:	6983      	ldr	r3, [r0, #24]
   b50a2:	b209      	sxth	r1, r1
   b50a4:	461f      	mov	r7, r3
   b50a6:	4620      	mov	r0, r4
   b50a8:	4653      	mov	r3, sl
   b50aa:	47b8      	blx	r7
   b50ac:	9a07      	ldr	r2, [sp, #28]
        for(int16_t i=0; i<w; i++) {
   b50ae:	f109 0901 	add.w	r9, r9, #1
   b50b2:	e7e1      	b.n	b5078 <_ZN12Adafruit_GFX10drawBitmapEssPKhsst+0x54>
    for(int16_t j=0; j<h; j++, y++) {
   b50b4:	9b01      	ldr	r3, [sp, #4]
   b50b6:	3301      	adds	r3, #1
   b50b8:	9301      	str	r3, [sp, #4]
   b50ba:	445e      	add	r6, fp
   b50bc:	e7ce      	b.n	b505c <_ZN12Adafruit_GFX10drawBitmapEssPKhsst+0x38>
    endWrite();
   b50be:	6823      	ldr	r3, [r4, #0]
   b50c0:	6adb      	ldr	r3, [r3, #44]	; 0x2c
   b50c2:	4620      	mov	r0, r4
}
   b50c4:	b009      	add	sp, #36	; 0x24
   b50c6:	e8bd 4ff0 	ldmia.w	sp!, {r4, r5, r6, r7, r8, r9, sl, fp, lr}
    endWrite();
   b50ca:	4718      	bx	r3

000b50cc <_ZN12Adafruit_GFX8drawCharEsshtthh>:
  uint16_t color, uint16_t bg, uint8_t size_x, uint8_t size_y) {
   b50cc:	e92d 4ff0 	stmdb	sp!, {r4, r5, r6, r7, r8, r9, sl, fp, lr}
   b50d0:	ed2d 8b02 	vpush	{d8}
   b50d4:	b091      	sub	sp, #68	; 0x44
   b50d6:	4616      	mov	r6, r2
    if(!gfxFont) { // 'Classic' built-in font
   b50d8:	6a02      	ldr	r2, [r0, #32]
  uint16_t color, uint16_t bg, uint8_t size_x, uint8_t size_y) {
   b50da:	f8bd 8074 	ldrh.w	r8, [sp, #116]	; 0x74
   b50de:	f89d 5078 	ldrb.w	r5, [sp, #120]	; 0x78
   b50e2:	f89d 407c 	ldrb.w	r4, [sp, #124]	; 0x7c
   b50e6:	9103      	str	r1, [sp, #12]
   b50e8:	461f      	mov	r7, r3
   b50ea:	f8bd 3070 	ldrh.w	r3, [sp, #112]	; 0x70
   b50ee:	9304      	str	r3, [sp, #16]
   b50f0:	4683      	mov	fp, r0
    if(!gfxFont) { // 'Classic' built-in font
   b50f2:	2a00      	cmp	r2, #0
   b50f4:	f040 80c5 	bne.w	b5282 <_ZN12Adafruit_GFX8drawCharEsshtthh+0x1b6>
        if((x >= _width)            || // Clip right
   b50f8:	f9b0 300c 	ldrsh.w	r3, [r0, #12]
   b50fc:	428b      	cmp	r3, r1
   b50fe:	f340 814c 	ble.w	b539a <_ZN12Adafruit_GFX8drawCharEsshtthh+0x2ce>
   b5102:	f9b0 300e 	ldrsh.w	r3, [r0, #14]
   b5106:	42b3      	cmp	r3, r6
   b5108:	f340 8147 	ble.w	b539a <_ZN12Adafruit_GFX8drawCharEsshtthh+0x2ce>
           ((x + 6 * size_x - 1) < 0) || // Clip left
   b510c:	2306      	movs	r3, #6
   b510e:	fb13 1305 	smlabb	r3, r3, r5, r1
           (y >= _height)           || // Clip bottom
   b5112:	2b00      	cmp	r3, #0
   b5114:	f340 8141 	ble.w	b539a <_ZN12Adafruit_GFX8drawCharEsshtthh+0x2ce>
           ((y + 8 * size_y - 1) < 0))   // Clip top
   b5118:	eb06 03c4 	add.w	r3, r6, r4, lsl #3
           ((x + 6 * size_x - 1) < 0) || // Clip left
   b511c:	2b00      	cmp	r3, #0
   b511e:	f340 813c 	ble.w	b539a <_ZN12Adafruit_GFX8drawCharEsshtthh+0x2ce>
        if(!_cp437 && (c >= 176)) c++; // Handle 'classic' charset behavior
   b5122:	7f03      	ldrb	r3, [r0, #28]
   b5124:	b91b      	cbnz	r3, b512e <_ZN12Adafruit_GFX8drawCharEsshtthh+0x62>
   b5126:	2faf      	cmp	r7, #175	; 0xaf
   b5128:	bf84      	itt	hi
   b512a:	3701      	addhi	r7, #1
   b512c:	b2ff      	uxtbhi	r7, r7
        startWrite();
   b512e:	f8db 3000 	ldr.w	r3, [fp]
   b5132:	4658      	mov	r0, fp
   b5134:	695b      	ldr	r3, [r3, #20]
   b5136:	4798      	blx	r3
            uint8_t line = pgm_read_byte(&font[c * 5 + i]);
   b5138:	2205      	movs	r2, #5
   b513a:	9209      	str	r2, [sp, #36]	; 0x24
        for(int8_t i=0; i<5; i++ ) { // Char bitmap = 5 columns
   b513c:	2200      	movs	r2, #0
   b513e:	9205      	str	r2, [sp, #20]
            uint8_t line = pgm_read_byte(&font[c * 5 + i]);
   b5140:	4a98      	ldr	r2, [pc, #608]	; (b53a4 <_ZN12Adafruit_GFX8drawCharEsshtthh+0x2d8>)
   b5142:	eb07 0387 	add.w	r3, r7, r7, lsl #2
   b5146:	18d3      	adds	r3, r2, r3
   b5148:	930c      	str	r3, [sp, #48]	; 0x30
                        writePixel(x+i, y+j, color);
   b514a:	b2b3      	uxth	r3, r6
   b514c:	9306      	str	r3, [sp, #24]
            uint8_t line = pgm_read_byte(&font[c * 5 + i]);
   b514e:	9a05      	ldr	r2, [sp, #20]
   b5150:	9b0c      	ldr	r3, [sp, #48]	; 0x30
   b5152:	5c9b      	ldrb	r3, [r3, r2]
   b5154:	9307      	str	r3, [sp, #28]
                        writeFillRect(x+i*size_x, y+j*size_y, size_x, size_y, bg);
   b5156:	b2ab      	uxth	r3, r5
   b5158:	930b      	str	r3, [sp, #44]	; 0x2c
   b515a:	f8bd 300c 	ldrh.w	r3, [sp, #12]
   b515e:	9308      	str	r3, [sp, #32]
   b5160:	9b03      	ldr	r3, [sp, #12]
   b5162:	fb02 f905 	mul.w	r9, r2, r5
   b5166:	fa19 f983 	uxtah	r9, r9, r3
   b516a:	fa0f f389 	sxth.w	r3, r9
   b516e:	ee08 3a10 	vmov	s16, r3
   b5172:	2308      	movs	r3, #8
   b5174:	930a      	str	r3, [sp, #40]	; 0x28
                        writePixel(x+i, y+j, bg);
   b5176:	9b03      	ldr	r3, [sp, #12]
   b5178:	eb02 0a03 	add.w	sl, r2, r3
            for(int8_t j=0; j<8; j++, line >>= 1) {
   b517c:	f04f 0900 	mov.w	r9, #0
                        writePixel(x+i, y+j, bg);
   b5180:	fa0f fa8a 	sxth.w	sl, sl
                if(line & 1) {
   b5184:	9a07      	ldr	r2, [sp, #28]
                        writePixel(x+i, y+j, color);
   b5186:	f8db 3000 	ldr.w	r3, [fp]
                if(line & 1) {
   b518a:	07d2      	lsls	r2, r2, #31
   b518c:	d552      	bpl.n	b5234 <_ZN12Adafruit_GFX8drawCharEsshtthh+0x168>
                    if(size_x == 1 && size_y == 1)
   b518e:	2d01      	cmp	r5, #1
                        writePixel(x+i, y+j, color);
   b5190:	fa1f f289 	uxth.w	r2, r9
                    if(size_x == 1 && size_y == 1)
   b5194:	d13e      	bne.n	b5214 <_ZN12Adafruit_GFX8drawCharEsshtthh+0x148>
   b5196:	2c01      	cmp	r4, #1
   b5198:	d13c      	bne.n	b5214 <_ZN12Adafruit_GFX8drawCharEsshtthh+0x148>
                        writePixel(x+i, y+j, color);
   b519a:	699b      	ldr	r3, [r3, #24]
   b519c:	9906      	ldr	r1, [sp, #24]
   b519e:	461f      	mov	r7, r3
   b51a0:	9b04      	ldr	r3, [sp, #16]
   b51a2:	440a      	add	r2, r1
                        writePixel(x+i, y+j, bg);
   b51a4:	b212      	sxth	r2, r2
   b51a6:	4651      	mov	r1, sl
   b51a8:	4658      	mov	r0, fp
   b51aa:	47b8      	blx	r7
            for(int8_t j=0; j<8; j++, line >>= 1) {
   b51ac:	f109 0301 	add.w	r3, r9, #1
   b51b0:	fa4f f983 	sxtb.w	r9, r3
   b51b4:	9b07      	ldr	r3, [sp, #28]
   b51b6:	085b      	lsrs	r3, r3, #1
   b51b8:	9307      	str	r3, [sp, #28]
   b51ba:	9b0a      	ldr	r3, [sp, #40]	; 0x28
   b51bc:	3b01      	subs	r3, #1
   b51be:	f013 03ff 	ands.w	r3, r3, #255	; 0xff
   b51c2:	930a      	str	r3, [sp, #40]	; 0x28
   b51c4:	d1de      	bne.n	b5184 <_ZN12Adafruit_GFX8drawCharEsshtthh+0xb8>
        for(int8_t i=0; i<5; i++ ) { // Char bitmap = 5 columns
   b51c6:	9f05      	ldr	r7, [sp, #20]
   b51c8:	3701      	adds	r7, #1
   b51ca:	b27b      	sxtb	r3, r7
   b51cc:	9305      	str	r3, [sp, #20]
   b51ce:	9b09      	ldr	r3, [sp, #36]	; 0x24
   b51d0:	3b01      	subs	r3, #1
   b51d2:	f013 03ff 	ands.w	r3, r3, #255	; 0xff
   b51d6:	9309      	str	r3, [sp, #36]	; 0x24
   b51d8:	d1b9      	bne.n	b514e <_ZN12Adafruit_GFX8drawCharEsshtthh+0x82>
        if(bg != color) { // If opaque, draw vertical line for last column
   b51da:	9b04      	ldr	r3, [sp, #16]
   b51dc:	4543      	cmp	r3, r8
   b51de:	d00f      	beq.n	b5200 <_ZN12Adafruit_GFX8drawCharEsshtthh+0x134>
            if(size_x == 1 && size_y == 1) writeFastVLine(x+5, y, 8, bg);
   b51e0:	2d01      	cmp	r5, #1
   b51e2:	f8db 3000 	ldr.w	r3, [fp]
   b51e6:	d13b      	bne.n	b5260 <_ZN12Adafruit_GFX8drawCharEsshtthh+0x194>
   b51e8:	2c01      	cmp	r4, #1
   b51ea:	d139      	bne.n	b5260 <_ZN12Adafruit_GFX8drawCharEsshtthh+0x194>
   b51ec:	9908      	ldr	r1, [sp, #32]
   b51ee:	f8cd 8000 	str.w	r8, [sp]
   b51f2:	3105      	adds	r1, #5
   b51f4:	6a1c      	ldr	r4, [r3, #32]
   b51f6:	4632      	mov	r2, r6
   b51f8:	2308      	movs	r3, #8
   b51fa:	b209      	sxth	r1, r1
   b51fc:	4658      	mov	r0, fp
   b51fe:	47a0      	blx	r4
        endWrite();
   b5200:	f8db 3000 	ldr.w	r3, [fp]
   b5204:	6adb      	ldr	r3, [r3, #44]	; 0x2c
   b5206:	4658      	mov	r0, fp
}
   b5208:	b011      	add	sp, #68	; 0x44
   b520a:	ecbd 8b02 	vpop	{d8}
   b520e:	e8bd 4ff0 	ldmia.w	sp!, {r4, r5, r6, r7, r8, r9, sl, fp, lr}
        endWrite();
   b5212:	4718      	bx	r3
                        writeFillRect(x+i*size_x, y+j*size_y, size_x, size_y, color);
   b5214:	9906      	ldr	r1, [sp, #24]
   b5216:	fb14 f202 	smulbb	r2, r4, r2
   b521a:	440a      	add	r2, r1
   b521c:	9904      	ldr	r1, [sp, #16]
   b521e:	9101      	str	r1, [sp, #4]
                        writeFillRect(x+i*size_x, y+j*size_y, size_x, size_y, bg);
   b5220:	9400      	str	r4, [sp, #0]
   b5222:	69db      	ldr	r3, [r3, #28]
   b5224:	ee18 1a10 	vmov	r1, s16
   b5228:	461f      	mov	r7, r3
   b522a:	b212      	sxth	r2, r2
   b522c:	462b      	mov	r3, r5
   b522e:	4658      	mov	r0, fp
   b5230:	47b8      	blx	r7
   b5232:	e7bb      	b.n	b51ac <_ZN12Adafruit_GFX8drawCharEsshtthh+0xe0>
                } else if(bg != color) {
   b5234:	9a04      	ldr	r2, [sp, #16]
   b5236:	4542      	cmp	r2, r8
   b5238:	d0b8      	beq.n	b51ac <_ZN12Adafruit_GFX8drawCharEsshtthh+0xe0>
                    if(size_x == 1 && size_y == 1)
   b523a:	2d01      	cmp	r5, #1
                        writePixel(x+i, y+j, color);
   b523c:	fa1f f289 	uxth.w	r2, r9
                    if(size_x == 1 && size_y == 1)
   b5240:	d107      	bne.n	b5252 <_ZN12Adafruit_GFX8drawCharEsshtthh+0x186>
   b5242:	2c01      	cmp	r4, #1
   b5244:	d105      	bne.n	b5252 <_ZN12Adafruit_GFX8drawCharEsshtthh+0x186>
                        writePixel(x+i, y+j, bg);
   b5246:	699b      	ldr	r3, [r3, #24]
   b5248:	9906      	ldr	r1, [sp, #24]
   b524a:	461f      	mov	r7, r3
   b524c:	440a      	add	r2, r1
   b524e:	4643      	mov	r3, r8
   b5250:	e7a8      	b.n	b51a4 <_ZN12Adafruit_GFX8drawCharEsshtthh+0xd8>
                        writeFillRect(x+i*size_x, y+j*size_y, size_x, size_y, bg);
   b5252:	9906      	ldr	r1, [sp, #24]
   b5254:	f8cd 8004 	str.w	r8, [sp, #4]
   b5258:	fb14 f202 	smulbb	r2, r4, r2
   b525c:	440a      	add	r2, r1
   b525e:	e7df      	b.n	b5220 <_ZN12Adafruit_GFX8drawCharEsshtthh+0x154>
            else          writeFillRect(x+5*size_x, y, size_x, 8*size_y, bg);
   b5260:	9a0b      	ldr	r2, [sp, #44]	; 0x2c
   b5262:	f8cd 8004 	str.w	r8, [sp, #4]
   b5266:	eb02 0182 	add.w	r1, r2, r2, lsl #2
   b526a:	9a08      	ldr	r2, [sp, #32]
   b526c:	00e4      	lsls	r4, r4, #3
   b526e:	440a      	add	r2, r1
   b5270:	4611      	mov	r1, r2
   b5272:	9400      	str	r4, [sp, #0]
   b5274:	69dc      	ldr	r4, [r3, #28]
   b5276:	4632      	mov	r2, r6
   b5278:	462b      	mov	r3, r5
   b527a:	b209      	sxth	r1, r1
   b527c:	4658      	mov	r0, fp
   b527e:	47a0      	blx	r4
        endWrite();
   b5280:	e7be      	b.n	b5200 <_ZN12Adafruit_GFX8drawCharEsshtthh+0x134>
        c -= (uint8_t)pgm_read_byte(&gfxFont->first);
   b5282:	7a13      	ldrb	r3, [r2, #8]
    return gfxFont->glyph + c;
   b5284:	6851      	ldr	r1, [r2, #4]
    return gfxFont->bitmap;
   b5286:	6812      	ldr	r2, [r2, #0]
   b5288:	920b      	str	r2, [sp, #44]	; 0x2c
        c -= (uint8_t)pgm_read_byte(&gfxFont->first);
   b528a:	1aff      	subs	r7, r7, r3
    return gfxFont->glyph + c;
   b528c:	b2ff      	uxtb	r7, r7
   b528e:	eb01 03c7 	add.w	r3, r1, r7, lsl #3
        uint16_t bo = pgm_read_word(&glyph->bitmapOffset);
   b5292:	f831 2037 	ldrh.w	r2, [r1, r7, lsl #3]
   b5296:	9206      	str	r2, [sp, #24]
        uint8_t  w  = pgm_read_byte(&glyph->width),
   b5298:	789a      	ldrb	r2, [r3, #2]
   b529a:	9209      	str	r2, [sp, #36]	; 0x24
                 h  = pgm_read_byte(&glyph->height);
   b529c:	78da      	ldrb	r2, [r3, #3]
   b529e:	920c      	str	r2, [sp, #48]	; 0x30
        if(size_x > 1 || size_y > 1) {
   b52a0:	2d01      	cmp	r5, #1
        int8_t   xo = pgm_read_byte(&glyph->xOffset),
   b52a2:	f993 2005 	ldrsb.w	r2, [r3, #5]
                 yo = pgm_read_byte(&glyph->yOffset);
   b52a6:	f993 a006 	ldrsb.w	sl, [r3, #6]
        int8_t   xo = pgm_read_byte(&glyph->xOffset),
   b52aa:	920a      	str	r2, [sp, #40]	; 0x28
        if(size_x > 1 || size_y > 1) {
   b52ac:	d801      	bhi.n	b52b2 <_ZN12Adafruit_GFX8drawCharEsshtthh+0x1e6>
   b52ae:	2c01      	cmp	r4, #1
   b52b0:	d957      	bls.n	b5362 <_ZN12Adafruit_GFX8drawCharEsshtthh+0x296>
            xo16 = xo;
   b52b2:	f9bd 3028 	ldrsh.w	r3, [sp, #40]	; 0x28
   b52b6:	9308      	str	r3, [sp, #32]
            yo16 = yo;
   b52b8:	fa0f f38a 	sxth.w	r3, sl
   b52bc:	9307      	str	r3, [sp, #28]
        startWrite();
   b52be:	f8db 3000 	ldr.w	r3, [fp]
   b52c2:	4658      	mov	r0, fp
   b52c4:	695b      	ldr	r3, [r3, #20]
   b52c6:	4798      	blx	r3
                        writeFillRect(x+(xo16+xx)*size_x, y+(yo16+yy)*size_y,
   b52c8:	b2b3      	uxth	r3, r6
        uint8_t  xx, yy, bits = 0, bit = 0;
   b52ca:	f04f 0800 	mov.w	r8, #0
                        writeFillRect(x+(xo16+xx)*size_x, y+(yo16+yy)*size_y,
   b52ce:	930e      	str	r3, [sp, #56]	; 0x38
                        writePixel(x+xo+xx, y+yo+yy, color);
   b52d0:	fa1a f386 	uxtah	r3, sl, r6
        uint8_t  xx, yy, bits = 0, bit = 0;
   b52d4:	46c1      	mov	r9, r8
        for(yy=0; yy<h; yy++) {
   b52d6:	4647      	mov	r7, r8
                        writePixel(x+xo+xx, y+yo+yy, color);
   b52d8:	930f      	str	r3, [sp, #60]	; 0x3c
        for(yy=0; yy<h; yy++) {
   b52da:	9b0c      	ldr	r3, [sp, #48]	; 0x30
   b52dc:	429f      	cmp	r7, r3
   b52de:	d28f      	bcs.n	b5200 <_ZN12Adafruit_GFX8drawCharEsshtthh+0x134>
                        writeFillRect(x+(xo16+xx)*size_x, y+(yo16+yy)*size_y,
   b52e0:	9b07      	ldr	r3, [sp, #28]
   b52e2:	9a0e      	ldr	r2, [sp, #56]	; 0x38
   b52e4:	443b      	add	r3, r7
   b52e6:	fb03 2304 	mla	r3, r3, r4, r2
            for(xx=0; xx<w; xx++) {
   b52ea:	2200      	movs	r2, #0
   b52ec:	9205      	str	r2, [sp, #20]
                        writePixel(x+xo+xx, y+yo+yy, color);
   b52ee:	9a0f      	ldr	r2, [sp, #60]	; 0x3c
                        writeFillRect(x+(xo16+xx)*size_x, y+(yo16+yy)*size_y,
   b52f0:	b21b      	sxth	r3, r3
                        writePixel(x+xo+xx, y+yo+yy, color);
   b52f2:	eb02 0a07 	add.w	sl, r2, r7
                        writeFillRect(x+(xo16+xx)*size_x, y+(yo16+yy)*size_y,
   b52f6:	ee08 3a10 	vmov	s16, r3
                        writePixel(x+xo+xx, y+yo+yy, color);
   b52fa:	fa0f fa8a 	sxth.w	sl, sl
                        writeFillRect(x+(xo16+xx)*size_x, y+(yo16+yy)*size_y,
   b52fe:	4643      	mov	r3, r8
            for(xx=0; xx<w; xx++) {
   b5300:	9a09      	ldr	r2, [sp, #36]	; 0x24
   b5302:	9905      	ldr	r1, [sp, #20]
   b5304:	4291      	cmp	r1, r2
   b5306:	d241      	bcs.n	b538c <_ZN12Adafruit_GFX8drawCharEsshtthh+0x2c0>
                if(!(bit++ & 7)) {
   b5308:	1c5a      	adds	r2, r3, #1
   b530a:	b2d2      	uxtb	r2, r2
   b530c:	075b      	lsls	r3, r3, #29
   b530e:	920d      	str	r2, [sp, #52]	; 0x34
   b5310:	d107      	bne.n	b5322 <_ZN12Adafruit_GFX8drawCharEsshtthh+0x256>
                    bits = pgm_read_byte(&bitmap[bo++]);
   b5312:	9b06      	ldr	r3, [sp, #24]
   b5314:	9906      	ldr	r1, [sp, #24]
   b5316:	9a0b      	ldr	r2, [sp, #44]	; 0x2c
   b5318:	3301      	adds	r3, #1
   b531a:	b29b      	uxth	r3, r3
   b531c:	f812 9001 	ldrb.w	r9, [r2, r1]
   b5320:	9306      	str	r3, [sp, #24]
                if(bits & 0x80) {
   b5322:	f019 0f80 	tst.w	r9, #128	; 0x80
   b5326:	d012      	beq.n	b534e <_ZN12Adafruit_GFX8drawCharEsshtthh+0x282>
                    if(size_x == 1 && size_y == 1) {
   b5328:	2d01      	cmp	r5, #1
                        writePixel(x+xo+xx, y+yo+yy, color);
   b532a:	f8db 3000 	ldr.w	r3, [fp]
                        writeFillRect(x+i*size_x, y+j*size_y, size_x, size_y, bg);
   b532e:	f8bd 100c 	ldrh.w	r1, [sp, #12]
                    if(size_x == 1 && size_y == 1) {
   b5332:	d11a      	bne.n	b536a <_ZN12Adafruit_GFX8drawCharEsshtthh+0x29e>
   b5334:	2c01      	cmp	r4, #1
   b5336:	d118      	bne.n	b536a <_ZN12Adafruit_GFX8drawCharEsshtthh+0x29e>
                        writePixel(x+xo+xx, y+yo+yy, color);
   b5338:	9a0a      	ldr	r2, [sp, #40]	; 0x28
   b533a:	699b      	ldr	r3, [r3, #24]
   b533c:	4411      	add	r1, r2
   b533e:	9a05      	ldr	r2, [sp, #20]
   b5340:	4411      	add	r1, r2
   b5342:	461e      	mov	r6, r3
   b5344:	4652      	mov	r2, sl
   b5346:	9b04      	ldr	r3, [sp, #16]
   b5348:	b209      	sxth	r1, r1
   b534a:	4658      	mov	r0, fp
   b534c:	47b0      	blx	r6
            for(xx=0; xx<w; xx++) {
   b534e:	9e05      	ldr	r6, [sp, #20]
   b5350:	3601      	adds	r6, #1
   b5352:	b2f3      	uxtb	r3, r6
                bits <<= 1;
   b5354:	ea4f 0949 	mov.w	r9, r9, lsl #1
            for(xx=0; xx<w; xx++) {
   b5358:	9305      	str	r3, [sp, #20]
                bits <<= 1;
   b535a:	fa5f f989 	uxtb.w	r9, r9
                if(!(bit++ & 7)) {
   b535e:	9b0d      	ldr	r3, [sp, #52]	; 0x34
            for(xx=0; xx<w; xx++) {
   b5360:	e7ce      	b.n	b5300 <_ZN12Adafruit_GFX8drawCharEsshtthh+0x234>
        int16_t  xo16 = 0, yo16 = 0;
   b5362:	2300      	movs	r3, #0
   b5364:	e9cd 3307 	strd	r3, r3, [sp, #28]
   b5368:	e7a9      	b.n	b52be <_ZN12Adafruit_GFX8drawCharEsshtthh+0x1f2>
                        writeFillRect(x+(xo16+xx)*size_x, y+(yo16+yy)*size_y,
   b536a:	9805      	ldr	r0, [sp, #20]
   b536c:	9a08      	ldr	r2, [sp, #32]
   b536e:	4402      	add	r2, r0
   b5370:	fb02 1105 	mla	r1, r2, r5, r1
   b5374:	9a04      	ldr	r2, [sp, #16]
   b5376:	e9cd 4200 	strd	r4, r2, [sp]
   b537a:	69db      	ldr	r3, [r3, #28]
   b537c:	ee18 2a10 	vmov	r2, s16
   b5380:	461e      	mov	r6, r3
   b5382:	b209      	sxth	r1, r1
   b5384:	462b      	mov	r3, r5
   b5386:	4658      	mov	r0, fp
   b5388:	47b0      	blx	r6
   b538a:	e7e0      	b.n	b534e <_ZN12Adafruit_GFX8drawCharEsshtthh+0x282>
   b538c:	9b09      	ldr	r3, [sp, #36]	; 0x24
        for(yy=0; yy<h; yy++) {
   b538e:	3701      	adds	r7, #1
   b5390:	4498      	add	r8, r3
   b5392:	fa5f f888 	uxtb.w	r8, r8
   b5396:	b2ff      	uxtb	r7, r7
   b5398:	e79f      	b.n	b52da <_ZN12Adafruit_GFX8drawCharEsshtthh+0x20e>
}
   b539a:	b011      	add	sp, #68	; 0x44
   b539c:	ecbd 8b02 	vpop	{d8}
   b53a0:	e8bd 8ff0 	ldmia.w	sp!, {r4, r5, r6, r7, r8, r9, sl, fp, pc}
   b53a4:	000b7eb1 	.word	0x000b7eb1

000b53a8 <_ZN12Adafruit_GFX5writeEh>:
size_t Adafruit_GFX::write(uint8_t c) {
   b53a8:	b5f0      	push	{r4, r5, r6, r7, lr}
    if(!gfxFont) { // 'Classic' built-in font
   b53aa:	6a02      	ldr	r2, [r0, #32]
size_t Adafruit_GFX::write(uint8_t c) {
   b53ac:	b085      	sub	sp, #20
   b53ae:	4604      	mov	r4, r0
   b53b0:	460b      	mov	r3, r1
    if(!gfxFont) { // 'Classic' built-in font
   b53b2:	2a00      	cmp	r2, #0
   b53b4:	d134      	bne.n	b5420 <_ZN12Adafruit_GFX5writeEh+0x78>
        if(c == '\n') {                        // Newline?
   b53b6:	290a      	cmp	r1, #10
   b53b8:	d108      	bne.n	b53cc <_ZN12Adafruit_GFX5writeEh+0x24>
            cursor_y += textsize_y * 8;        // advance y one line
   b53ba:	8a43      	ldrh	r3, [r0, #18]
            cursor_x  = 0;                     // Reset x to zero,
   b53bc:	8202      	strh	r2, [r0, #16]
            cursor_y += textsize_y * 8;        // advance y one line
   b53be:	7e42      	ldrb	r2, [r0, #25]
   b53c0:	eb03 03c2 	add.w	r3, r3, r2, lsl #3
            cursor_y += (int16_t)textsize_y *
   b53c4:	8263      	strh	r3, [r4, #18]
}
   b53c6:	2001      	movs	r0, #1
   b53c8:	b005      	add	sp, #20
   b53ca:	bdf0      	pop	{r4, r5, r6, r7, pc}
        } else if(c != '\r') {                 // Ignore carriage returns
   b53cc:	290d      	cmp	r1, #13
   b53ce:	d0fa      	beq.n	b53c6 <_ZN12Adafruit_GFX5writeEh+0x1e>
            if(wrap && ((cursor_x + textsize_x * 6) > _width)) { // Off right?
   b53d0:	7ee1      	ldrb	r1, [r4, #27]
   b53d2:	7e00      	ldrb	r0, [r0, #24]
            cursor_y += textsize_y * 8;        // advance y one line
   b53d4:	7e65      	ldrb	r5, [r4, #25]
            if(wrap && ((cursor_x + textsize_x * 6) > _width)) { // Off right?
   b53d6:	b171      	cbz	r1, b53f6 <_ZN12Adafruit_GFX5writeEh+0x4e>
   b53d8:	f9b4 6010 	ldrsh.w	r6, [r4, #16]
   b53dc:	2106      	movs	r1, #6
   b53de:	fb11 6100 	smlabb	r1, r1, r0, r6
   b53e2:	f9b4 600c 	ldrsh.w	r6, [r4, #12]
   b53e6:	42b1      	cmp	r1, r6
            cursor_y += textsize_y * 8;        // advance y one line
   b53e8:	bfc1      	itttt	gt
   b53ea:	f9b4 1012 	ldrshgt.w	r1, [r4, #18]
                cursor_x  = 0;                 // Reset x to zero,
   b53ee:	8222      	strhgt	r2, [r4, #16]
                cursor_y += textsize_y * 8;    // advance y one line
   b53f0:	eb01 02c5 	addgt.w	r2, r1, r5, lsl #3
   b53f4:	8262      	strhgt	r2, [r4, #18]
            drawChar(cursor_x, cursor_y, c, textcolor, textbgcolor, textsize_x, textsize_y);
   b53f6:	8ae2      	ldrh	r2, [r4, #22]
   b53f8:	9201      	str	r2, [sp, #4]
   b53fa:	8aa2      	ldrh	r2, [r4, #20]
   b53fc:	9200      	str	r2, [sp, #0]
   b53fe:	e9cd 0502 	strd	r0, r5, [sp, #8]
   b5402:	f9b4 2012 	ldrsh.w	r2, [r4, #18]
   b5406:	f9b4 1010 	ldrsh.w	r1, [r4, #16]
   b540a:	4620      	mov	r0, r4
   b540c:	f7ff fe5e 	bl	b50cc <_ZN12Adafruit_GFX8drawCharEsshtthh>
            cursor_x += textsize_x * 6;          // Advance x one char
   b5410:	7e23      	ldrb	r3, [r4, #24]
   b5412:	8a22      	ldrh	r2, [r4, #16]
   b5414:	eb03 0343 	add.w	r3, r3, r3, lsl #1
   b5418:	eb02 0343 	add.w	r3, r2, r3, lsl #1
                cursor_x += (uint8_t)pgm_read_byte(&glyph->xAdvance) * (int16_t)textsize_x;
   b541c:	8223      	strh	r3, [r4, #16]
   b541e:	e7d2      	b.n	b53c6 <_ZN12Adafruit_GFX5writeEh+0x1e>
        if(c == '\n') {
   b5420:	290a      	cmp	r1, #10
   b5422:	d107      	bne.n	b5434 <_ZN12Adafruit_GFX5writeEh+0x8c>
            cursor_x  = 0;
   b5424:	2300      	movs	r3, #0
   b5426:	8203      	strh	r3, [r0, #16]
            cursor_y += (int16_t)textsize_y *
   b5428:	7e41      	ldrb	r1, [r0, #25]
                        (uint8_t)pgm_read_byte(&gfxFont->yAdvance);
   b542a:	7a92      	ldrb	r2, [r2, #10]
            cursor_y += (int16_t)textsize_y *
   b542c:	8a43      	ldrh	r3, [r0, #18]
   b542e:	fb01 3302 	mla	r3, r1, r2, r3
   b5432:	e7c7      	b.n	b53c4 <_ZN12Adafruit_GFX5writeEh+0x1c>
        } else if(c != '\r') {
   b5434:	290d      	cmp	r1, #13
   b5436:	d0c6      	beq.n	b53c6 <_ZN12Adafruit_GFX5writeEh+0x1e>
            uint8_t first = pgm_read_byte(&gfxFont->first);
   b5438:	7a15      	ldrb	r5, [r2, #8]
            if((c >= first) && (c <= (uint8_t)pgm_read_byte(&gfxFont->last))) {
   b543a:	42a9      	cmp	r1, r5
   b543c:	d3c3      	bcc.n	b53c6 <_ZN12Adafruit_GFX5writeEh+0x1e>
   b543e:	7a51      	ldrb	r1, [r2, #9]
   b5440:	4299      	cmp	r1, r3
   b5442:	d3c0      	bcc.n	b53c6 <_ZN12Adafruit_GFX5writeEh+0x1e>
    return gfxFont->glyph + c;
   b5444:	6851      	ldr	r1, [r2, #4]
                GFXglyph *glyph  = pgm_read_glyph_ptr(gfxFont, c - first);
   b5446:	1b5d      	subs	r5, r3, r5
    return gfxFont->glyph + c;
   b5448:	b2ed      	uxtb	r5, r5
   b544a:	eb01 05c5 	add.w	r5, r1, r5, lsl #3
                uint8_t   w     = pgm_read_byte(&glyph->width),
   b544e:	78a8      	ldrb	r0, [r5, #2]
                if((w > 0) && (h > 0)) { // Is there an associated bitmap?
   b5450:	b328      	cbz	r0, b549e <_ZN12Adafruit_GFX5writeEh+0xf6>
   b5452:	78e9      	ldrb	r1, [r5, #3]
   b5454:	b319      	cbz	r1, b549e <_ZN12Adafruit_GFX5writeEh+0xf6>
                    if(wrap && ((cursor_x + textsize_x * (xo + w)) > _width)) {
   b5456:	7ee1      	ldrb	r1, [r4, #27]
            if(wrap && ((cursor_x + textsize_x * 6) > _width)) { // Off right?
   b5458:	7e26      	ldrb	r6, [r4, #24]
            cursor_y += textsize_y * 8;        // advance y one line
   b545a:	7e67      	ldrb	r7, [r4, #25]
                    if(wrap && ((cursor_x + textsize_x * (xo + w)) > _width)) {
   b545c:	b191      	cbz	r1, b5484 <_ZN12Adafruit_GFX5writeEh+0xdc>
   b545e:	f995 1005 	ldrsb.w	r1, [r5, #5]
   b5462:	4408      	add	r0, r1
   b5464:	f9b4 1010 	ldrsh.w	r1, [r4, #16]
   b5468:	fb06 1100 	mla	r1, r6, r0, r1
   b546c:	f9b4 000c 	ldrsh.w	r0, [r4, #12]
   b5470:	4281      	cmp	r1, r0
   b5472:	dd07      	ble.n	b5484 <_ZN12Adafruit_GFX5writeEh+0xdc>
                        cursor_x  = 0;
   b5474:	2000      	movs	r0, #0
   b5476:	8220      	strh	r0, [r4, #16]
            cursor_y += textsize_y * 8;        // advance y one line
   b5478:	f9b4 1012 	ldrsh.w	r1, [r4, #18]
                          (uint8_t)pgm_read_byte(&gfxFont->yAdvance);
   b547c:	7a92      	ldrb	r2, [r2, #10]
                        cursor_y += (int16_t)textsize_y *
   b547e:	fb02 1207 	mla	r2, r2, r7, r1
   b5482:	8262      	strh	r2, [r4, #18]
                    drawChar(cursor_x, cursor_y, c, textcolor, textbgcolor, textsize_x, textsize_y);
   b5484:	8ae2      	ldrh	r2, [r4, #22]
   b5486:	9201      	str	r2, [sp, #4]
   b5488:	8aa2      	ldrh	r2, [r4, #20]
   b548a:	9200      	str	r2, [sp, #0]
   b548c:	e9cd 6702 	strd	r6, r7, [sp, #8]
   b5490:	f9b4 2012 	ldrsh.w	r2, [r4, #18]
   b5494:	f9b4 1010 	ldrsh.w	r1, [r4, #16]
   b5498:	4620      	mov	r0, r4
   b549a:	f7ff fe17 	bl	b50cc <_ZN12Adafruit_GFX8drawCharEsshtthh>
                cursor_x += (uint8_t)pgm_read_byte(&glyph->xAdvance) * (int16_t)textsize_x;
   b549e:	7929      	ldrb	r1, [r5, #4]
   b54a0:	7e22      	ldrb	r2, [r4, #24]
   b54a2:	8a23      	ldrh	r3, [r4, #16]
   b54a4:	fb01 3302 	mla	r3, r1, r2, r3
   b54a8:	e7b8      	b.n	b541c <_ZN12Adafruit_GFX5writeEh+0x74>

000b54aa <_ZN12Adafruit_GFX11setTextSizeEh>:
    textsize_x = (s_x > 0) ? s_x : 1;
   b54aa:	2901      	cmp	r1, #1
   b54ac:	bf38      	it	cc
   b54ae:	2101      	movcc	r1, #1
   b54b0:	7601      	strb	r1, [r0, #24]
    textsize_y = (s_y > 0) ? s_y : 1;
   b54b2:	7641      	strb	r1, [r0, #25]
}
   b54b4:	4770      	bx	lr

000b54b6 <_ZN8particle11SPISettingsD1Ev>:
  SPISettings()
  {
  }

  virtual ~SPISettings() {
  }
   b54b6:	4770      	bx	lr

000b54b8 <_ZN8particle11SPISettingsD0Ev>:
  virtual ~SPISettings() {
   b54b8:	b510      	push	{r4, lr}
  }
   b54ba:	2110      	movs	r1, #16
  virtual ~SPISettings() {
   b54bc:	4604      	mov	r4, r0
  }
   b54be:	f7fe fdec 	bl	b409a <_ZdlPvj>
   b54c2:	4620      	mov	r0, r4
   b54c4:	bd10      	pop	{r4, pc}

000b54c6 <_ZN5Print6printfEPKcz>:
    size_t printf(const char* format, ...) __attribute__ ((format(printf, 2, 3)))
   b54c6:	b40e      	push	{r1, r2, r3}
   b54c8:	b503      	push	{r0, r1, lr}
   b54ca:	ab03      	add	r3, sp, #12
        auto r = this->vprintf(false, format, args);
   b54cc:	2100      	movs	r1, #0
    size_t printf(const char* format, ...) __attribute__ ((format(printf, 2, 3)))
   b54ce:	f853 2b04 	ldr.w	r2, [r3], #4
        va_start(args, format);
   b54d2:	9301      	str	r3, [sp, #4]
        auto r = this->vprintf(false, format, args);
   b54d4:	f001 fb0b 	bl	b6aee <_ZN5Print7vprintfEbPKcSt9__va_list>
    }
   b54d8:	b002      	add	sp, #8
   b54da:	f85d eb04 	ldr.w	lr, [sp], #4
   b54de:	b003      	add	sp, #12
   b54e0:	4770      	bx	lr
	...

000b54e4 <_ZNK8particle11SPISettings7printToER5Print>:
  bool operator!=(const SPISettings& other) const
  {
    return !(other == *this);
  }

  virtual size_t printTo(Print& p) const
   b54e4:	b573      	push	{r0, r1, r4, r5, r6, lr}
   b54e6:	4604      	mov	r4, r0
   b54e8:	4608      	mov	r0, r1
  {
    if (default_ && clock_ == 0)
   b54ea:	7922      	ldrb	r2, [r4, #4]
   b54ec:	68a3      	ldr	r3, [r4, #8]
   b54ee:	b132      	cbz	r2, b54fe <_ZNK8particle11SPISettings7printToER5Print+0x1a>
   b54f0:	b9a3      	cbnz	r3, b551c <_ZNK8particle11SPISettings7printToER5Print+0x38>
      return p.print("<SPISettings default>");
   b54f2:	490b      	ldr	r1, [pc, #44]	; (b5520 <_ZNK8particle11SPISettings7printToER5Print+0x3c>)
    else
      return p.printf("<SPISettings %s%u %s MODE%u>", default_ ? "default " : "", (unsigned int)clock_,
          bitOrder_ == MSBFIRST ? "MSB" : "LSB", (unsigned int)dataMode_);
  }
   b54f4:	b002      	add	sp, #8
   b54f6:	e8bd 4070 	ldmia.w	sp!, {r4, r5, r6, lr}
      return p.print("<SPISettings default>");
   b54fa:	f001 bac7 	b.w	b6a8c <_ZN5Print5printEPKc>
      return p.printf("<SPISettings %s%u %s MODE%u>", default_ ? "default " : "", (unsigned int)clock_,
   b54fe:	4a09      	ldr	r2, [pc, #36]	; (b5524 <_ZNK8particle11SPISettings7printToER5Print+0x40>)
   b5500:	7b26      	ldrb	r6, [r4, #12]
   b5502:	4d09      	ldr	r5, [pc, #36]	; (b5528 <_ZNK8particle11SPISettings7printToER5Print+0x44>)
   b5504:	4909      	ldr	r1, [pc, #36]	; (b552c <_ZNK8particle11SPISettings7printToER5Print+0x48>)
   b5506:	7b64      	ldrb	r4, [r4, #13]
   b5508:	2e01      	cmp	r6, #1
   b550a:	bf18      	it	ne
   b550c:	4629      	movne	r1, r5
   b550e:	e9cd 1400 	strd	r1, r4, [sp]
   b5512:	4907      	ldr	r1, [pc, #28]	; (b5530 <_ZNK8particle11SPISettings7printToER5Print+0x4c>)
   b5514:	f7ff ffd7 	bl	b54c6 <_ZN5Print6printfEPKcz>
  }
   b5518:	b002      	add	sp, #8
   b551a:	bd70      	pop	{r4, r5, r6, pc}
      return p.printf("<SPISettings %s%u %s MODE%u>", default_ ? "default " : "", (unsigned int)clock_,
   b551c:	4a05      	ldr	r2, [pc, #20]	; (b5534 <_ZNK8particle11SPISettings7printToER5Print+0x50>)
   b551e:	e7ef      	b.n	b5500 <_ZNK8particle11SPISettings7printToER5Print+0x1c>
   b5520:	000b841d 	.word	0x000b841d
   b5524:	000b8414 	.word	0x000b8414
   b5528:	000b8419 	.word	0x000b8419
   b552c:	000b8415 	.word	0x000b8415
   b5530:	000b8433 	.word	0x000b8433
   b5534:	000b840c 	.word	0x000b840c

000b5538 <_ZN16Adafruit_SSD1306D1Ev>:
}

/*!
    @brief  Destructor for Adafruit_SSD1306 object.
*/
Adafruit_SSD1306::~Adafruit_SSD1306(void) {
   b5538:	b510      	push	{r4, lr}
   b553a:	4b04      	ldr	r3, [pc, #16]	; (b554c <_ZN16Adafruit_SSD1306D1Ev+0x14>)
   b553c:	6003      	str	r3, [r0, #0]
   b553e:	4604      	mov	r4, r0
  if(buffer) {
   b5540:	6ac0      	ldr	r0, [r0, #44]	; 0x2c
   b5542:	b108      	cbz	r0, b5548 <_ZN16Adafruit_SSD1306D1Ev+0x10>
    free(buffer);
   b5544:	f001 f82a 	bl	b659c <free>
    buffer = NULL;
  }
}
   b5548:	4620      	mov	r0, r4
   b554a:	bd10      	pop	{r4, pc}
   b554c:	000b890c 	.word	0x000b890c

000b5550 <_ZN16Adafruit_SSD1306D0Ev>:
Adafruit_SSD1306::~Adafruit_SSD1306(void) {
   b5550:	b510      	push	{r4, lr}
   b5552:	4604      	mov	r4, r0
}
   b5554:	f7ff fff0 	bl	b5538 <_ZN16Adafruit_SSD1306D1Ev>
   b5558:	4620      	mov	r0, r4
   b555a:	2150      	movs	r1, #80	; 0x50
   b555c:	f7fe fd9d 	bl	b409a <_ZdlPvj>
   b5560:	4620      	mov	r0, r4
   b5562:	bd10      	pop	{r4, pc}

000b5564 <_ZN16Adafruit_SSD13069drawPixelEsst>:
    @note   Changes buffer contents only, no immediate effect on display.
            Follow up with a call to display(), or with other graphics
            commands as needed by one's own application.
*/
void Adafruit_SSD1306::drawPixel(int16_t x, int16_t y, uint16_t color) {
  if((x >= 0) && (x < width()) && (y >= 0) && (y < height())) {
   b5564:	2900      	cmp	r1, #0
void Adafruit_SSD1306::drawPixel(int16_t x, int16_t y, uint16_t color) {
   b5566:	b510      	push	{r4, lr}
  if((x >= 0) && (x < width()) && (y >= 0) && (y < height())) {
   b5568:	db4b      	blt.n	b5602 <_ZN16Adafruit_SSD13069drawPixelEsst+0x9e>
   b556a:	f9b0 400c 	ldrsh.w	r4, [r0, #12]
   b556e:	428c      	cmp	r4, r1
   b5570:	dd47      	ble.n	b5602 <_ZN16Adafruit_SSD13069drawPixelEsst+0x9e>
   b5572:	2a00      	cmp	r2, #0
   b5574:	db45      	blt.n	b5602 <_ZN16Adafruit_SSD13069drawPixelEsst+0x9e>
   b5576:	f9b0 400e 	ldrsh.w	r4, [r0, #14]
   b557a:	4294      	cmp	r4, r2
   b557c:	dd41      	ble.n	b5602 <_ZN16Adafruit_SSD13069drawPixelEsst+0x9e>
  /*!
    @brief      Get rotation setting for display
    @returns    0 thru 3 corresponding to 4 cardinal rotations
  */
  /************************************************************************/
  uint8_t getRotation(void) const { return rotation; }
   b557e:	7e84      	ldrb	r4, [r0, #26]
    // Pixel is in-bounds. Rotate coordinates if needed.
    switch(getRotation()) {
   b5580:	2c02      	cmp	r4, #2
   b5582:	d01f      	beq.n	b55c4 <_ZN16Adafruit_SSD13069drawPixelEsst+0x60>
   b5584:	2c03      	cmp	r4, #3
   b5586:	d026      	beq.n	b55d6 <_ZN16Adafruit_SSD13069drawPixelEsst+0x72>
   b5588:	2c01      	cmp	r4, #1
   b558a:	d104      	bne.n	b5596 <_ZN16Adafruit_SSD13069drawPixelEsst+0x32>
     case 1:
      ssd1306_swap(x, y);
      x = WIDTH - x - 1;
   b558c:	8904      	ldrh	r4, [r0, #8]
   b558e:	43d2      	mvns	r2, r2
   b5590:	4414      	add	r4, r2
      break;
   b5592:	460a      	mov	r2, r1
      x = WIDTH - x - 1;
   b5594:	b221      	sxth	r1, r4
     case 3:
      ssd1306_swap(x, y);
      y = HEIGHT - y - 1;
      break;
    }
    switch(color) {
   b5596:	2b01      	cmp	r3, #1
   b5598:	d023      	beq.n	b55e2 <_ZN16Adafruit_SSD13069drawPixelEsst+0x7e>
   b559a:	2b02      	cmp	r3, #2
   b559c:	d032      	beq.n	b5604 <_ZN16Adafruit_SSD13069drawPixelEsst+0xa0>
   b559e:	bb83      	cbnz	r3, b5602 <_ZN16Adafruit_SSD13069drawPixelEsst+0x9e>
     case WHITE:   buffer[x + (y/8)*WIDTH] |=  (1 << (y&7)); break;
     case BLACK:   buffer[x + (y/8)*WIDTH] &= ~(1 << (y&7)); break;
   b55a0:	2a00      	cmp	r2, #0
   b55a2:	4613      	mov	r3, r2
   b55a4:	8904      	ldrh	r4, [r0, #8]
   b55a6:	6ac0      	ldr	r0, [r0, #44]	; 0x2c
   b55a8:	bfb8      	it	lt
   b55aa:	1dd3      	addlt	r3, r2, #7
   b55ac:	10db      	asrs	r3, r3, #3
   b55ae:	fb13 1104 	smlabb	r1, r3, r4, r1
   b55b2:	f002 0207 	and.w	r2, r2, #7
   b55b6:	2301      	movs	r3, #1
   b55b8:	4093      	lsls	r3, r2
   b55ba:	5c42      	ldrb	r2, [r0, r1]
   b55bc:	ea22 0203 	bic.w	r2, r2, r3
     case INVERSE: buffer[x + (y/8)*WIDTH] ^=  (1 << (y&7)); break;
   b55c0:	5442      	strb	r2, [r0, r1]
    }
  }
}
   b55c2:	e01e      	b.n	b5602 <_ZN16Adafruit_SSD13069drawPixelEsst+0x9e>
      x = WIDTH  - x - 1;
   b55c4:	8904      	ldrh	r4, [r0, #8]
   b55c6:	3c01      	subs	r4, #1
   b55c8:	1a61      	subs	r1, r4, r1
      y = HEIGHT - y - 1;
   b55ca:	8944      	ldrh	r4, [r0, #10]
   b55cc:	43d2      	mvns	r2, r2
   b55ce:	4422      	add	r2, r4
      x = WIDTH  - x - 1;
   b55d0:	b209      	sxth	r1, r1
      y = HEIGHT - y - 1;
   b55d2:	b212      	sxth	r2, r2
      break;
   b55d4:	e7df      	b.n	b5596 <_ZN16Adafruit_SSD13069drawPixelEsst+0x32>
      y = HEIGHT - y - 1;
   b55d6:	8944      	ldrh	r4, [r0, #10]
   b55d8:	3c01      	subs	r4, #1
   b55da:	1a64      	subs	r4, r4, r1
      break;
   b55dc:	4611      	mov	r1, r2
      y = HEIGHT - y - 1;
   b55de:	b222      	sxth	r2, r4
      break;
   b55e0:	e7d9      	b.n	b5596 <_ZN16Adafruit_SSD13069drawPixelEsst+0x32>
     case WHITE:   buffer[x + (y/8)*WIDTH] |=  (1 << (y&7)); break;
   b55e2:	2a00      	cmp	r2, #0
   b55e4:	8904      	ldrh	r4, [r0, #8]
   b55e6:	4613      	mov	r3, r2
   b55e8:	bfb8      	it	lt
   b55ea:	1dd3      	addlt	r3, r2, #7
   b55ec:	10db      	asrs	r3, r3, #3
   b55ee:	fb13 1104 	smlabb	r1, r3, r4, r1
   b55f2:	6ac3      	ldr	r3, [r0, #44]	; 0x2c
   b55f4:	f002 0007 	and.w	r0, r2, #7
   b55f8:	2201      	movs	r2, #1
   b55fa:	4082      	lsls	r2, r0
   b55fc:	5c58      	ldrb	r0, [r3, r1]
   b55fe:	4302      	orrs	r2, r0
   b5600:	545a      	strb	r2, [r3, r1]
}
   b5602:	bd10      	pop	{r4, pc}
     case INVERSE: buffer[x + (y/8)*WIDTH] ^=  (1 << (y&7)); break;
   b5604:	2a00      	cmp	r2, #0
   b5606:	4613      	mov	r3, r2
   b5608:	8904      	ldrh	r4, [r0, #8]
   b560a:	6ac0      	ldr	r0, [r0, #44]	; 0x2c
   b560c:	bfb8      	it	lt
   b560e:	1dd3      	addlt	r3, r2, #7
   b5610:	10db      	asrs	r3, r3, #3
   b5612:	fb13 1104 	smlabb	r1, r3, r4, r1
   b5616:	f002 0207 	and.w	r2, r2, #7
   b561a:	2301      	movs	r3, #1
   b561c:	fa03 f202 	lsl.w	r2, r3, r2
   b5620:	5c43      	ldrb	r3, [r0, r1]
   b5622:	405a      	eors	r2, r3
   b5624:	e7cc      	b.n	b55c0 <_ZN16Adafruit_SSD13069drawPixelEsst+0x5c>
	...

000b5628 <_ZN16Adafruit_SSD1306C1EhhP7TwoWireamm>:
Adafruit_SSD1306::Adafruit_SSD1306(uint8_t w, uint8_t h, TwoWire *twi,
   b5628:	b570      	push	{r4, r5, r6, lr}
   b562a:	4604      	mov	r4, r0
   b562c:	461d      	mov	r5, r3
  wireClk(clkDuring), restoreClk(clkAfter) {
   b562e:	2600      	movs	r6, #0
   b5630:	f7ff fce2 	bl	b4ff8 <_ZN12Adafruit_GFXC1Ess>
   b5634:	4b11      	ldr	r3, [pc, #68]	; (b567c <_ZN16Adafruit_SSD1306C1EhhP7TwoWireamm+0x54>)
   b5636:	6023      	str	r3, [r4, #0]
   b5638:	6266      	str	r6, [r4, #36]	; 0x24
  Adafruit_GFX(w, h), spi(NULL), wire(twi ? twi : &Wire), buffer(NULL),
   b563a:	b915      	cbnz	r5, b5642 <_ZN16Adafruit_SSD1306C1EhhP7TwoWireamm+0x1a>
   b563c:	f002 f8f6 	bl	b782c <_Z19__fetch_global_Wirev>
   b5640:	4605      	mov	r5, r0
  wireClk(clkDuring), restoreClk(clkAfter) {
   b5642:	23ff      	movs	r3, #255	; 0xff
   b5644:	f884 3033 	strb.w	r3, [r4, #51]	; 0x33
   b5648:	f884 3036 	strb.w	r3, [r4, #54]	; 0x36
   b564c:	f99d 3010 	ldrsb.w	r3, [sp, #16]
   b5650:	f884 3037 	strb.w	r3, [r4, #55]	; 0x37
  {
   b5654:	4b0a      	ldr	r3, [pc, #40]	; (b5680 <_ZN16Adafruit_SSD1306C1EhhP7TwoWireamm+0x58>)
   b5656:	63a3      	str	r3, [r4, #56]	; 0x38
   b5658:	2301      	movs	r3, #1
   b565a:	f884 303c 	strb.w	r3, [r4, #60]	; 0x3c
   b565e:	9b05      	ldr	r3, [sp, #20]
   b5660:	64a3      	str	r3, [r4, #72]	; 0x48
   b5662:	f64f 72ff 	movw	r2, #65535	; 0xffff
   b5666:	9b06      	ldr	r3, [sp, #24]
   b5668:	86a2      	strh	r2, [r4, #52]	; 0x34
   b566a:	e9c4 560a 	strd	r5, r6, [r4, #40]	; 0x28
   b566e:	6426      	str	r6, [r4, #64]	; 0x40
   b5670:	f8a4 6044 	strh.w	r6, [r4, #68]	; 0x44
   b5674:	64e3      	str	r3, [r4, #76]	; 0x4c
}
   b5676:	4620      	mov	r0, r4
   b5678:	bd70      	pop	{r4, r5, r6, pc}
   b567a:	bf00      	nop
   b567c:	000b890c 	.word	0x000b890c
   b5680:	000b8458 	.word	0x000b8458

000b5684 <_ZN16Adafruit_SSD130616ssd1306_command1Eh>:
void Adafruit_SSD1306::ssd1306_command1(uint8_t c) {
   b5684:	b5f8      	push	{r3, r4, r5, r6, r7, lr}
   b5686:	4604      	mov	r4, r0
  if(wire) { // I2C
   b5688:	6a80      	ldr	r0, [r0, #40]	; 0x28
void Adafruit_SSD1306::ssd1306_command1(uint8_t c) {
   b568a:	460d      	mov	r5, r1
  if(wire) { // I2C
   b568c:	b190      	cbz	r0, b56b4 <_ZN16Adafruit_SSD130616ssd1306_command1Eh+0x30>
    wire->beginTransmission(i2caddr);
   b568e:	f994 1030 	ldrsb.w	r1, [r4, #48]	; 0x30
   b5692:	f001 f875 	bl	b6780 <_ZN7TwoWire17beginTransmissionEi>
    WIRE_WRITE((uint8_t)0x00); // Co = 0, D/C = 0
   b5696:	6aa0      	ldr	r0, [r4, #40]	; 0x28
   b5698:	6803      	ldr	r3, [r0, #0]
   b569a:	2100      	movs	r1, #0
   b569c:	689b      	ldr	r3, [r3, #8]
   b569e:	4798      	blx	r3
    WIRE_WRITE(c);
   b56a0:	6aa0      	ldr	r0, [r4, #40]	; 0x28
   b56a2:	6803      	ldr	r3, [r0, #0]
   b56a4:	4629      	mov	r1, r5
   b56a6:	689b      	ldr	r3, [r3, #8]
   b56a8:	4798      	blx	r3
    wire->endTransmission();
   b56aa:	6aa0      	ldr	r0, [r4, #40]	; 0x28
}
   b56ac:	e8bd 40f8 	ldmia.w	sp!, {r3, r4, r5, r6, r7, lr}
    wire->endTransmission();
   b56b0:	f001 b86d 	b.w	b678e <_ZN7TwoWire15endTransmissionEv>
    SSD1306_MODE_COMMAND
   b56b4:	f994 3035 	ldrsb.w	r3, [r4, #53]	; 0x35
   b56b8:	4601      	mov	r1, r0
   b56ba:	b298      	uxth	r0, r3
   b56bc:	f002 f835 	bl	b772a <digitalWrite>
  if(spi) {
   b56c0:	6a60      	ldr	r0, [r4, #36]	; 0x24
   b56c2:	b120      	cbz	r0, b56ce <_ZN16Adafruit_SSD130616ssd1306_command1Eh+0x4a>
    (void)spi->transfer(d);
   b56c4:	4629      	mov	r1, r5
}
   b56c6:	e8bd 40f8 	ldmia.w	sp!, {r3, r4, r5, r6, r7, lr}
    (void)spi->transfer(d);
   b56ca:	f001 baf3 	b.w	b6cb4 <_ZN8SPIClass8transferEh>
   b56ce:	2608      	movs	r6, #8
    for(uint8_t bit = 0x80; bit; bit >>= 1) {
   b56d0:	2780      	movs	r7, #128	; 0x80
      digitalWrite(mosiPin, d & bit);
   b56d2:	f994 0033 	ldrsb.w	r0, [r4, #51]	; 0x33
   b56d6:	ea05 0107 	and.w	r1, r5, r7
   b56da:	b280      	uxth	r0, r0
   b56dc:	f002 f825 	bl	b772a <digitalWrite>
      digitalWrite(clkPin , HIGH);
   b56e0:	f994 0034 	ldrsb.w	r0, [r4, #52]	; 0x34
   b56e4:	2101      	movs	r1, #1
   b56e6:	b280      	uxth	r0, r0
   b56e8:	f002 f81f 	bl	b772a <digitalWrite>
      digitalWrite(clkPin , LOW);
   b56ec:	f994 0034 	ldrsb.w	r0, [r4, #52]	; 0x34
   b56f0:	2100      	movs	r1, #0
   b56f2:	b280      	uxth	r0, r0
   b56f4:	f002 f819 	bl	b772a <digitalWrite>
    for(uint8_t bit = 0x80; bit; bit >>= 1) {
   b56f8:	3e01      	subs	r6, #1
   b56fa:	ea4f 0757 	mov.w	r7, r7, lsr #1
   b56fe:	d1e8      	bne.n	b56d2 <_ZN16Adafruit_SSD130616ssd1306_command1Eh+0x4e>
}
   b5700:	bdf8      	pop	{r3, r4, r5, r6, r7, pc}

000b5702 <_ZN16Adafruit_SSD130613invertDisplayEb>:
            display() function -- buffer contents are not changed, rather a
            different pixel mode of the display hardware is used. When
            enabled, drawing BLACK (value 0) pixels will actually draw white,
            WHITE (value 1) will draw black.
*/
void Adafruit_SSD1306::invertDisplay(boolean i) {
   b5702:	b538      	push	{r3, r4, r5, lr}
   b5704:	4604      	mov	r4, r0
  TRANSACTION_START
   b5706:	6a80      	ldr	r0, [r0, #40]	; 0x28
void Adafruit_SSD1306::invertDisplay(boolean i) {
   b5708:	460d      	mov	r5, r1
  TRANSACTION_START
   b570a:	b180      	cbz	r0, b572e <_ZN16Adafruit_SSD130613invertDisplayEb+0x2c>

public:
  TwoWire(hal_i2c_interface_t i2c, const hal_i2c_config_t& config);
  virtual ~TwoWire() {};
  inline void setClock(uint32_t speed) {
	  setSpeed(speed);
   b570c:	6ca1      	ldr	r1, [r4, #72]	; 0x48
   b570e:	f000 fffd 	bl	b670c <_ZN7TwoWire8setSpeedEm>
  ssd1306_command1(i ? SSD1306_INVERTDISPLAY : SSD1306_NORMALDISPLAY);
   b5712:	2d00      	cmp	r5, #0
   b5714:	4620      	mov	r0, r4
   b5716:	bf14      	ite	ne
   b5718:	21a7      	movne	r1, #167	; 0xa7
   b571a:	21a6      	moveq	r1, #166	; 0xa6
   b571c:	f7ff ffb2 	bl	b5684 <_ZN16Adafruit_SSD130616ssd1306_command1Eh>
  TRANSACTION_END
   b5720:	6aa0      	ldr	r0, [r4, #40]	; 0x28
   b5722:	b188      	cbz	r0, b5748 <_ZN16Adafruit_SSD130613invertDisplayEb+0x46>
   b5724:	6ce1      	ldr	r1, [r4, #76]	; 0x4c
}
   b5726:	e8bd 4038 	ldmia.w	sp!, {r3, r4, r5, lr}
   b572a:	f000 bfef 	b.w	b670c <_ZN7TwoWire8setSpeedEm>
  TRANSACTION_START
   b572e:	6a60      	ldr	r0, [r4, #36]	; 0x24
   b5730:	b118      	cbz	r0, b573a <_ZN16Adafruit_SSD130613invertDisplayEb+0x38>
   b5732:	f104 0138 	add.w	r1, r4, #56	; 0x38
   b5736:	f001 fa4f 	bl	b6bd8 <_ZN8SPIClass16beginTransactionERKN8particle11SPISettingsE>
   b573a:	f994 0036 	ldrsb.w	r0, [r4, #54]	; 0x36
   b573e:	2100      	movs	r1, #0
   b5740:	b280      	uxth	r0, r0
   b5742:	f001 fff2 	bl	b772a <digitalWrite>
   b5746:	e7e4      	b.n	b5712 <_ZN16Adafruit_SSD130613invertDisplayEb+0x10>
  TRANSACTION_END
   b5748:	f994 0036 	ldrsb.w	r0, [r4, #54]	; 0x36
   b574c:	2101      	movs	r1, #1
   b574e:	b280      	uxth	r0, r0
   b5750:	f001 ffeb 	bl	b772a <digitalWrite>
   b5754:	6a60      	ldr	r0, [r4, #36]	; 0x24
   b5756:	b118      	cbz	r0, b5760 <_ZN16Adafruit_SSD130613invertDisplayEb+0x5e>
}
   b5758:	e8bd 4038 	ldmia.w	sp!, {r3, r4, r5, lr}
  TRANSACTION_END
   b575c:	f001 ba22 	b.w	b6ba4 <_ZN8SPIClass14endTransactionEv>
}
   b5760:	bd38      	pop	{r3, r4, r5, pc}

000b5762 <_ZN16Adafruit_SSD130619ssd1306_commandListEPKhh>:
void Adafruit_SSD1306::ssd1306_commandList(const uint8_t *c, uint8_t n) {
   b5762:	e92d 43f8 	stmdb	sp!, {r3, r4, r5, r6, r7, r8, r9, lr}
   b5766:	4604      	mov	r4, r0
  if(wire) { // I2C
   b5768:	6a80      	ldr	r0, [r0, #40]	; 0x28
void Adafruit_SSD1306::ssd1306_commandList(const uint8_t *c, uint8_t n) {
   b576a:	460d      	mov	r5, r1
  if(wire) { // I2C
   b576c:	188f      	adds	r7, r1, r2
   b576e:	b340      	cbz	r0, b57c2 <_ZN16Adafruit_SSD130619ssd1306_commandListEPKhh+0x60>
    wire->beginTransmission(i2caddr);
   b5770:	f994 1030 	ldrsb.w	r1, [r4, #48]	; 0x30
   b5774:	f001 f804 	bl	b6780 <_ZN7TwoWire17beginTransmissionEi>
    WIRE_WRITE((uint8_t)0x00); // Co = 0, D/C = 0
   b5778:	6aa0      	ldr	r0, [r4, #40]	; 0x28
   b577a:	6803      	ldr	r3, [r0, #0]
   b577c:	2100      	movs	r1, #0
   b577e:	689b      	ldr	r3, [r3, #8]
   b5780:	4798      	blx	r3
    uint8_t bytesOut = 1;
   b5782:	2601      	movs	r6, #1
    while(n--) {
   b5784:	42af      	cmp	r7, r5
        wire->endTransmission();
   b5786:	6aa0      	ldr	r0, [r4, #40]	; 0x28
    while(n--) {
   b5788:	d017      	beq.n	b57ba <_ZN16Adafruit_SSD130619ssd1306_commandListEPKhh+0x58>
      if(bytesOut >= WIRE_MAX) {
   b578a:	2e1f      	cmp	r6, #31
   b578c:	d90c      	bls.n	b57a8 <_ZN16Adafruit_SSD130619ssd1306_commandListEPKhh+0x46>
        wire->endTransmission();
   b578e:	f000 fffe 	bl	b678e <_ZN7TwoWire15endTransmissionEv>
        wire->beginTransmission(i2caddr);
   b5792:	f994 1030 	ldrsb.w	r1, [r4, #48]	; 0x30
   b5796:	6aa0      	ldr	r0, [r4, #40]	; 0x28
   b5798:	f000 fff2 	bl	b6780 <_ZN7TwoWire17beginTransmissionEi>
        WIRE_WRITE((uint8_t)0x00); // Co = 0, D/C = 0
   b579c:	6aa0      	ldr	r0, [r4, #40]	; 0x28
   b579e:	6803      	ldr	r3, [r0, #0]
   b57a0:	2100      	movs	r1, #0
   b57a2:	689b      	ldr	r3, [r3, #8]
   b57a4:	4798      	blx	r3
        bytesOut = 1;
   b57a6:	2601      	movs	r6, #1
      WIRE_WRITE(pgm_read_byte(c++));
   b57a8:	6aa0      	ldr	r0, [r4, #40]	; 0x28
   b57aa:	f815 1b01 	ldrb.w	r1, [r5], #1
   b57ae:	6803      	ldr	r3, [r0, #0]
      bytesOut++;
   b57b0:	3601      	adds	r6, #1
      WIRE_WRITE(pgm_read_byte(c++));
   b57b2:	689b      	ldr	r3, [r3, #8]
   b57b4:	4798      	blx	r3
      bytesOut++;
   b57b6:	b2f6      	uxtb	r6, r6
    while(n--) {
   b57b8:	e7e4      	b.n	b5784 <_ZN16Adafruit_SSD130619ssd1306_commandListEPKhh+0x22>
}
   b57ba:	e8bd 43f8 	ldmia.w	sp!, {r3, r4, r5, r6, r7, r8, r9, lr}
    wire->endTransmission();
   b57be:	f000 bfe6 	b.w	b678e <_ZN7TwoWire15endTransmissionEv>
    SSD1306_MODE_COMMAND
   b57c2:	f994 3035 	ldrsb.w	r3, [r4, #53]	; 0x35
   b57c6:	4601      	mov	r1, r0
   b57c8:	b298      	uxth	r0, r3
   b57ca:	f001 ffae 	bl	b772a <digitalWrite>
    while(n--) SPIwrite(pgm_read_byte(c++));
   b57ce:	42bd      	cmp	r5, r7
   b57d0:	d022      	beq.n	b5818 <_ZN16Adafruit_SSD130619ssd1306_commandListEPKhh+0xb6>
  if(spi) {
   b57d2:	6a60      	ldr	r0, [r4, #36]	; 0x24
    while(n--) SPIwrite(pgm_read_byte(c++));
   b57d4:	f815 9b01 	ldrb.w	r9, [r5], #1
  if(spi) {
   b57d8:	b118      	cbz	r0, b57e2 <_ZN16Adafruit_SSD130619ssd1306_commandListEPKhh+0x80>
    (void)spi->transfer(d);
   b57da:	4649      	mov	r1, r9
   b57dc:	f001 fa6a 	bl	b6cb4 <_ZN8SPIClass8transferEh>
   b57e0:	e7f5      	b.n	b57ce <_ZN16Adafruit_SSD130619ssd1306_commandListEPKhh+0x6c>
   b57e2:	2608      	movs	r6, #8
    for(uint8_t bit = 0x80; bit; bit >>= 1) {
   b57e4:	f04f 0880 	mov.w	r8, #128	; 0x80
      digitalWrite(mosiPin, d & bit);
   b57e8:	f994 0033 	ldrsb.w	r0, [r4, #51]	; 0x33
   b57ec:	ea09 0108 	and.w	r1, r9, r8
   b57f0:	b280      	uxth	r0, r0
   b57f2:	f001 ff9a 	bl	b772a <digitalWrite>
      digitalWrite(clkPin , HIGH);
   b57f6:	f994 0034 	ldrsb.w	r0, [r4, #52]	; 0x34
   b57fa:	2101      	movs	r1, #1
   b57fc:	b280      	uxth	r0, r0
   b57fe:	f001 ff94 	bl	b772a <digitalWrite>
      digitalWrite(clkPin , LOW);
   b5802:	f994 0034 	ldrsb.w	r0, [r4, #52]	; 0x34
   b5806:	2100      	movs	r1, #0
   b5808:	b280      	uxth	r0, r0
   b580a:	f001 ff8e 	bl	b772a <digitalWrite>
    for(uint8_t bit = 0x80; bit; bit >>= 1) {
   b580e:	3e01      	subs	r6, #1
   b5810:	ea4f 0858 	mov.w	r8, r8, lsr #1
   b5814:	d1e8      	bne.n	b57e8 <_ZN16Adafruit_SSD130619ssd1306_commandListEPKhh+0x86>
   b5816:	e7da      	b.n	b57ce <_ZN16Adafruit_SSD130619ssd1306_commandListEPKhh+0x6c>
}
   b5818:	e8bd 83f8 	ldmia.w	sp!, {r3, r4, r5, r6, r7, r8, r9, pc}

000b581c <_ZN16Adafruit_SSD130612clearDisplayEv>:
  memset(buffer, 0, WIDTH * ((HEIGHT + 7) / 8));
   b581c:	f9b0 300a 	ldrsh.w	r3, [r0, #10]
   b5820:	1dda      	adds	r2, r3, #7
   b5822:	bf48      	it	mi
   b5824:	f103 020e 	addmi.w	r2, r3, #14
   b5828:	f9b0 3008 	ldrsh.w	r3, [r0, #8]
   b582c:	6ac0      	ldr	r0, [r0, #44]	; 0x2c
   b582e:	10d2      	asrs	r2, r2, #3
   b5830:	435a      	muls	r2, r3
   b5832:	2100      	movs	r1, #0
   b5834:	f002 b98e 	b.w	b7b54 <memset>

000b5838 <_ZN16Adafruit_SSD13065beginEhhbb>:
  boolean periphBegin) {
   b5838:	e92d 41ff 	stmdb	sp!, {r0, r1, r2, r3, r4, r5, r6, r7, r8, lr}
   b583c:	461e      	mov	r6, r3
  if((!buffer) && !(buffer = (uint8_t *)malloc(WIDTH * ((HEIGHT + 7) / 8))))
   b583e:	6ac3      	ldr	r3, [r0, #44]	; 0x2c
  boolean periphBegin) {
   b5840:	f89d 8028 	ldrb.w	r8, [sp, #40]	; 0x28
   b5844:	4604      	mov	r4, r0
   b5846:	460f      	mov	r7, r1
   b5848:	4615      	mov	r5, r2
  if((!buffer) && !(buffer = (uint8_t *)malloc(WIDTH * ((HEIGHT + 7) / 8))))
   b584a:	b1c3      	cbz	r3, b587e <_ZN16Adafruit_SSD13065beginEhhbb+0x46>
  clearDisplay();
   b584c:	4620      	mov	r0, r4
   b584e:	f7ff ffe5 	bl	b581c <_ZN16Adafruit_SSD130612clearDisplayEv>
  if(HEIGHT > 32) {
   b5852:	f9b4 000a 	ldrsh.w	r0, [r4, #10]
   b5856:	f9b4 1008 	ldrsh.w	r1, [r4, #8]
   b585a:	2820      	cmp	r0, #32
   b585c:	dc21      	bgt.n	b58a2 <_ZN16Adafruit_SSD13065beginEhhbb+0x6a>
    drawBitmap((WIDTH - splash2_width) / 2, (HEIGHT - splash2_height) / 2,
   b585e:	2320      	movs	r3, #32
   b5860:	2201      	movs	r2, #1
   b5862:	3820      	subs	r0, #32
   b5864:	e9cd 3201 	strd	r3, r2, [sp, #4]
   b5868:	eb00 70d0 	add.w	r0, r0, r0, lsr #31
   b586c:	2373      	movs	r3, #115	; 0x73
   b586e:	3973      	subs	r1, #115	; 0x73
   b5870:	9300      	str	r3, [sp, #0]
   b5872:	eb01 71d1 	add.w	r1, r1, r1, lsr #31
   b5876:	4b89      	ldr	r3, [pc, #548]	; (b5a9c <_ZN16Adafruit_SSD13065beginEhhbb+0x264>)
   b5878:	f340 024f 	sbfx	r2, r0, #1, #16
   b587c:	e021      	b.n	b58c2 <_ZN16Adafruit_SSD13065beginEhhbb+0x8a>
  if((!buffer) && !(buffer = (uint8_t *)malloc(WIDTH * ((HEIGHT + 7) / 8))))
   b587e:	f9b0 300a 	ldrsh.w	r3, [r0, #10]
   b5882:	1dd8      	adds	r0, r3, #7
   b5884:	bf48      	it	mi
   b5886:	f103 000e 	addmi.w	r0, r3, #14
   b588a:	f9b4 3008 	ldrsh.w	r3, [r4, #8]
   b588e:	10c0      	asrs	r0, r0, #3
   b5890:	4358      	muls	r0, r3
   b5892:	f000 fe7b 	bl	b658c <malloc>
   b5896:	62e0      	str	r0, [r4, #44]	; 0x2c
   b5898:	2800      	cmp	r0, #0
   b589a:	d1d7      	bne.n	b584c <_ZN16Adafruit_SSD13065beginEhhbb+0x14>
}
   b589c:	b004      	add	sp, #16
   b589e:	e8bd 81f0 	ldmia.w	sp!, {r4, r5, r6, r7, r8, pc}
    drawBitmap((WIDTH - splash1_width) / 2, (HEIGHT - splash1_height) / 2,
   b58a2:	3840      	subs	r0, #64	; 0x40
   b58a4:	f3c0 32c0 	ubfx	r2, r0, #15, #1
   b58a8:	fa02 f280 	sxtah	r2, r2, r0
   b58ac:	2340      	movs	r3, #64	; 0x40
   b58ae:	2001      	movs	r0, #1
   b58b0:	e9cd 3001 	strd	r3, r0, [sp, #4]
   b58b4:	2352      	movs	r3, #82	; 0x52
   b58b6:	3952      	subs	r1, #82	; 0x52
   b58b8:	9300      	str	r3, [sp, #0]
   b58ba:	4b79      	ldr	r3, [pc, #484]	; (b5aa0 <_ZN16Adafruit_SSD13065beginEhhbb+0x268>)
   b58bc:	eb01 71d1 	add.w	r1, r1, r1, lsr #31
   b58c0:	1052      	asrs	r2, r2, #1
    drawBitmap((WIDTH - splash2_width) / 2, (HEIGHT - splash2_height) / 2,
   b58c2:	4620      	mov	r0, r4
   b58c4:	f341 014f 	sbfx	r1, r1, #1, #16
   b58c8:	f7ff fbac 	bl	b5024 <_ZN12Adafruit_GFX10drawBitmapEssPKhsst>
  if(wire) { // Using I2C
   b58cc:	6aa0      	ldr	r0, [r4, #40]	; 0x28
  vccstate = vcs;
   b58ce:	f884 7031 	strb.w	r7, [r4, #49]	; 0x31
  if(wire) { // Using I2C
   b58d2:	2800      	cmp	r0, #0
   b58d4:	d078      	beq.n	b59c8 <_ZN16Adafruit_SSD13065beginEhhbb+0x190>
    i2caddr = addr ? addr : ((HEIGHT == 32) ? 0x3C : 0x3D);
   b58d6:	2d00      	cmp	r5, #0
   b58d8:	d174      	bne.n	b59c4 <_ZN16Adafruit_SSD13065beginEhhbb+0x18c>
   b58da:	f9b4 300a 	ldrsh.w	r3, [r4, #10]
   b58de:	2b20      	cmp	r3, #32
   b58e0:	bf0c      	ite	eq
   b58e2:	253c      	moveq	r5, #60	; 0x3c
   b58e4:	253d      	movne	r5, #61	; 0x3d
   b58e6:	f884 5030 	strb.w	r5, [r4, #48]	; 0x30
    if(periphBegin) wire->begin();
   b58ea:	f1b8 0f00 	cmp.w	r8, #0
   b58ee:	d001      	beq.n	b58f4 <_ZN16Adafruit_SSD13065beginEhhbb+0xbc>
   b58f0:	f000 ff10 	bl	b6714 <_ZN7TwoWire5beginEv>
  if(reset && (rstPin >= 0)) {
   b58f4:	b1fe      	cbz	r6, b5936 <_ZN16Adafruit_SSD13065beginEhhbb+0xfe>
   b58f6:	f994 0037 	ldrsb.w	r0, [r4, #55]	; 0x37
   b58fa:	2800      	cmp	r0, #0
   b58fc:	db1b      	blt.n	b5936 <_ZN16Adafruit_SSD13065beginEhhbb+0xfe>
    pinMode(     rstPin, OUTPUT);
   b58fe:	2101      	movs	r1, #1
   b5900:	b280      	uxth	r0, r0
   b5902:	f001 ff01 	bl	b7708 <pinMode>
    digitalWrite(rstPin, HIGH);
   b5906:	f994 0037 	ldrsb.w	r0, [r4, #55]	; 0x37
   b590a:	2101      	movs	r1, #1
   b590c:	b280      	uxth	r0, r0
   b590e:	f001 ff0c 	bl	b772a <digitalWrite>
    delay(1);                   // VDD goes high at start, pause for 1 ms
   b5912:	2001      	movs	r0, #1
   b5914:	f000 fe72 	bl	b65fc <delay>
    digitalWrite(rstPin, LOW);  // Bring reset low
   b5918:	f994 0037 	ldrsb.w	r0, [r4, #55]	; 0x37
   b591c:	2100      	movs	r1, #0
   b591e:	b280      	uxth	r0, r0
   b5920:	f001 ff03 	bl	b772a <digitalWrite>
    delay(10);                  // Wait 10 ms
   b5924:	200a      	movs	r0, #10
   b5926:	f000 fe69 	bl	b65fc <delay>
    digitalWrite(rstPin, HIGH); // Bring out of reset
   b592a:	f994 0037 	ldrsb.w	r0, [r4, #55]	; 0x37
   b592e:	2101      	movs	r1, #1
   b5930:	b280      	uxth	r0, r0
   b5932:	f001 fefa 	bl	b772a <digitalWrite>
  TRANSACTION_START
   b5936:	6aa0      	ldr	r0, [r4, #40]	; 0x28
   b5938:	2800      	cmp	r0, #0
   b593a:	d074      	beq.n	b5a26 <_ZN16Adafruit_SSD13065beginEhhbb+0x1ee>
   b593c:	6ca1      	ldr	r1, [r4, #72]	; 0x48
   b593e:	f000 fee5 	bl	b670c <_ZN7TwoWire8setSpeedEm>
  ssd1306_commandList(init1, sizeof(init1));
   b5942:	2204      	movs	r2, #4
   b5944:	4957      	ldr	r1, [pc, #348]	; (b5aa4 <_ZN16Adafruit_SSD13065beginEhhbb+0x26c>)
   b5946:	4620      	mov	r0, r4
   b5948:	f7ff ff0b 	bl	b5762 <_ZN16Adafruit_SSD130619ssd1306_commandListEPKhh>
  ssd1306_command1(HEIGHT - 1);
   b594c:	8961      	ldrh	r1, [r4, #10]
   b594e:	3901      	subs	r1, #1
   b5950:	b2c9      	uxtb	r1, r1
   b5952:	4620      	mov	r0, r4
   b5954:	f7ff fe96 	bl	b5684 <_ZN16Adafruit_SSD130616ssd1306_command1Eh>
  ssd1306_commandList(init2, sizeof(init2));
   b5958:	4953      	ldr	r1, [pc, #332]	; (b5aa8 <_ZN16Adafruit_SSD13065beginEhhbb+0x270>)
   b595a:	2204      	movs	r2, #4
   b595c:	4620      	mov	r0, r4
   b595e:	f7ff ff00 	bl	b5762 <_ZN16Adafruit_SSD130619ssd1306_commandListEPKhh>
  ssd1306_command1((vccstate == SSD1306_EXTERNALVCC) ? 0x10 : 0x14);
   b5962:	f994 3031 	ldrsb.w	r3, [r4, #49]	; 0x31
   b5966:	2b01      	cmp	r3, #1
   b5968:	bf0c      	ite	eq
   b596a:	2110      	moveq	r1, #16
   b596c:	2114      	movne	r1, #20
   b596e:	4620      	mov	r0, r4
   b5970:	f7ff fe88 	bl	b5684 <_ZN16Adafruit_SSD130616ssd1306_command1Eh>
  ssd1306_commandList(init3, sizeof(init3));
   b5974:	2204      	movs	r2, #4
   b5976:	494d      	ldr	r1, [pc, #308]	; (b5aac <_ZN16Adafruit_SSD13065beginEhhbb+0x274>)
   b5978:	4620      	mov	r0, r4
   b597a:	f7ff fef2 	bl	b5762 <_ZN16Adafruit_SSD130619ssd1306_commandListEPKhh>
  if((WIDTH == 128) && (HEIGHT == 32)) {
   b597e:	68a3      	ldr	r3, [r4, #8]
   b5980:	4a4b      	ldr	r2, [pc, #300]	; (b5ab0 <_ZN16Adafruit_SSD13065beginEhhbb+0x278>)
   b5982:	4293      	cmp	r3, r2
   b5984:	d15c      	bne.n	b5a40 <_ZN16Adafruit_SSD13065beginEhhbb+0x208>
    ssd1306_commandList(init4a, sizeof(init4a));
   b5986:	494b      	ldr	r1, [pc, #300]	; (b5ab4 <_ZN16Adafruit_SSD13065beginEhhbb+0x27c>)
   b5988:	2204      	movs	r2, #4
   b598a:	4620      	mov	r0, r4
   b598c:	f7ff fee9 	bl	b5762 <_ZN16Adafruit_SSD130619ssd1306_commandListEPKhh>
  ssd1306_command1(SSD1306_SETPRECHARGE); // 0xd9
   b5990:	21d9      	movs	r1, #217	; 0xd9
   b5992:	4620      	mov	r0, r4
   b5994:	f7ff fe76 	bl	b5684 <_ZN16Adafruit_SSD130616ssd1306_command1Eh>
  ssd1306_command1((vccstate == SSD1306_EXTERNALVCC) ? 0x22 : 0xF1);
   b5998:	f994 3031 	ldrsb.w	r3, [r4, #49]	; 0x31
   b599c:	2b01      	cmp	r3, #1
   b599e:	bf0c      	ite	eq
   b59a0:	2122      	moveq	r1, #34	; 0x22
   b59a2:	21f1      	movne	r1, #241	; 0xf1
   b59a4:	4620      	mov	r0, r4
   b59a6:	f7ff fe6d 	bl	b5684 <_ZN16Adafruit_SSD130616ssd1306_command1Eh>
  ssd1306_commandList(init5, sizeof(init5));
   b59aa:	4620      	mov	r0, r4
   b59ac:	4942      	ldr	r1, [pc, #264]	; (b5ab8 <_ZN16Adafruit_SSD13065beginEhhbb+0x280>)
   b59ae:	2206      	movs	r2, #6
   b59b0:	f7ff fed7 	bl	b5762 <_ZN16Adafruit_SSD130619ssd1306_commandListEPKhh>
  TRANSACTION_END
   b59b4:	6aa0      	ldr	r0, [r4, #40]	; 0x28
   b59b6:	2800      	cmp	r0, #0
   b59b8:	d063      	beq.n	b5a82 <_ZN16Adafruit_SSD13065beginEhhbb+0x24a>
   b59ba:	6ce1      	ldr	r1, [r4, #76]	; 0x4c
   b59bc:	f000 fea6 	bl	b670c <_ZN7TwoWire8setSpeedEm>
  return true; // Success
   b59c0:	2001      	movs	r0, #1
   b59c2:	e76b      	b.n	b589c <_ZN16Adafruit_SSD13065beginEhhbb+0x64>
    i2caddr = addr ? addr : ((HEIGHT == 32) ? 0x3C : 0x3D);
   b59c4:	b26d      	sxtb	r5, r5
   b59c6:	e78e      	b.n	b58e6 <_ZN16Adafruit_SSD13065beginEhhbb+0xae>
    pinMode(dcPin, OUTPUT); // Set data/command pin as output
   b59c8:	f994 0035 	ldrsb.w	r0, [r4, #53]	; 0x35
   b59cc:	2101      	movs	r1, #1
   b59ce:	b280      	uxth	r0, r0
   b59d0:	f001 fe9a 	bl	b7708 <pinMode>
    pinMode(csPin, OUTPUT); // Same for chip select
   b59d4:	f994 0036 	ldrsb.w	r0, [r4, #54]	; 0x36
   b59d8:	2101      	movs	r1, #1
   b59da:	b280      	uxth	r0, r0
   b59dc:	f001 fe94 	bl	b7708 <pinMode>
    SSD1306_DESELECT
   b59e0:	f994 0036 	ldrsb.w	r0, [r4, #54]	; 0x36
   b59e4:	2101      	movs	r1, #1
   b59e6:	b280      	uxth	r0, r0
   b59e8:	f001 fe9f 	bl	b772a <digitalWrite>
    if(spi) { // Hardware SPI
   b59ec:	6a65      	ldr	r5, [r4, #36]	; 0x24
   b59ee:	b13d      	cbz	r5, b5a00 <_ZN16Adafruit_SSD13065beginEhhbb+0x1c8>
      if(periphBegin) spi->begin();
   b59f0:	f1b8 0f00 	cmp.w	r8, #0
   b59f4:	f43f af7e 	beq.w	b58f4 <_ZN16Adafruit_SSD13065beginEhhbb+0xbc>
   b59f8:	4628      	mov	r0, r5
   b59fa:	f001 f8bf 	bl	b6b7c <_ZN8SPIClass5beginEv>
   b59fe:	e779      	b.n	b58f4 <_ZN16Adafruit_SSD13065beginEhhbb+0xbc>
      pinMode(mosiPin, OUTPUT); // MOSI and SCLK outputs
   b5a00:	f994 0033 	ldrsb.w	r0, [r4, #51]	; 0x33
   b5a04:	2101      	movs	r1, #1
   b5a06:	b280      	uxth	r0, r0
   b5a08:	f001 fe7e 	bl	b7708 <pinMode>
      pinMode(clkPin , OUTPUT);
   b5a0c:	f994 0034 	ldrsb.w	r0, [r4, #52]	; 0x34
   b5a10:	2101      	movs	r1, #1
   b5a12:	b280      	uxth	r0, r0
   b5a14:	f001 fe78 	bl	b7708 <pinMode>
      digitalWrite(clkPin, LOW); // Clock low
   b5a18:	f994 0034 	ldrsb.w	r0, [r4, #52]	; 0x34
   b5a1c:	4629      	mov	r1, r5
   b5a1e:	b280      	uxth	r0, r0
   b5a20:	f001 fe83 	bl	b772a <digitalWrite>
   b5a24:	e766      	b.n	b58f4 <_ZN16Adafruit_SSD13065beginEhhbb+0xbc>
  TRANSACTION_START
   b5a26:	6a60      	ldr	r0, [r4, #36]	; 0x24
   b5a28:	b118      	cbz	r0, b5a32 <_ZN16Adafruit_SSD13065beginEhhbb+0x1fa>
   b5a2a:	f104 0138 	add.w	r1, r4, #56	; 0x38
   b5a2e:	f001 f8d3 	bl	b6bd8 <_ZN8SPIClass16beginTransactionERKN8particle11SPISettingsE>
   b5a32:	f994 0036 	ldrsb.w	r0, [r4, #54]	; 0x36
   b5a36:	2100      	movs	r1, #0
   b5a38:	b280      	uxth	r0, r0
   b5a3a:	f001 fe76 	bl	b772a <digitalWrite>
   b5a3e:	e780      	b.n	b5942 <_ZN16Adafruit_SSD13065beginEhhbb+0x10a>
  } else if((WIDTH == 128) && (HEIGHT == 64)) {
   b5a40:	4a1e      	ldr	r2, [pc, #120]	; (b5abc <_ZN16Adafruit_SSD13065beginEhhbb+0x284>)
   b5a42:	4293      	cmp	r3, r2
   b5a44:	d10e      	bne.n	b5a64 <_ZN16Adafruit_SSD13065beginEhhbb+0x22c>
    ssd1306_commandList(init4b, sizeof(init4b));
   b5a46:	491e      	ldr	r1, [pc, #120]	; (b5ac0 <_ZN16Adafruit_SSD13065beginEhhbb+0x288>)
   b5a48:	2203      	movs	r2, #3
   b5a4a:	4620      	mov	r0, r4
   b5a4c:	f7ff fe89 	bl	b5762 <_ZN16Adafruit_SSD130619ssd1306_commandListEPKhh>
    ssd1306_command1((vccstate == SSD1306_EXTERNALVCC) ? 0x9F : 0xCF);
   b5a50:	f994 3031 	ldrsb.w	r3, [r4, #49]	; 0x31
   b5a54:	2b01      	cmp	r3, #1
   b5a56:	bf0c      	ite	eq
   b5a58:	219f      	moveq	r1, #159	; 0x9f
   b5a5a:	21cf      	movne	r1, #207	; 0xcf
    ssd1306_command1((vccstate == SSD1306_EXTERNALVCC) ? 0x10 : 0xAF);
   b5a5c:	4620      	mov	r0, r4
   b5a5e:	f7ff fe11 	bl	b5684 <_ZN16Adafruit_SSD130616ssd1306_command1Eh>
   b5a62:	e795      	b.n	b5990 <_ZN16Adafruit_SSD13065beginEhhbb+0x158>
  } else if((WIDTH == 96) && (HEIGHT == 16)) {
   b5a64:	4a17      	ldr	r2, [pc, #92]	; (b5ac4 <_ZN16Adafruit_SSD13065beginEhhbb+0x28c>)
   b5a66:	4293      	cmp	r3, r2
   b5a68:	d192      	bne.n	b5990 <_ZN16Adafruit_SSD13065beginEhhbb+0x158>
    ssd1306_commandList(init4c, sizeof(init4c));
   b5a6a:	4917      	ldr	r1, [pc, #92]	; (b5ac8 <_ZN16Adafruit_SSD13065beginEhhbb+0x290>)
   b5a6c:	2203      	movs	r2, #3
   b5a6e:	4620      	mov	r0, r4
   b5a70:	f7ff fe77 	bl	b5762 <_ZN16Adafruit_SSD130619ssd1306_commandListEPKhh>
    ssd1306_command1((vccstate == SSD1306_EXTERNALVCC) ? 0x10 : 0xAF);
   b5a74:	f994 3031 	ldrsb.w	r3, [r4, #49]	; 0x31
   b5a78:	2b01      	cmp	r3, #1
   b5a7a:	bf0c      	ite	eq
   b5a7c:	2110      	moveq	r1, #16
   b5a7e:	21af      	movne	r1, #175	; 0xaf
   b5a80:	e7ec      	b.n	b5a5c <_ZN16Adafruit_SSD13065beginEhhbb+0x224>
  TRANSACTION_END
   b5a82:	f994 0036 	ldrsb.w	r0, [r4, #54]	; 0x36
   b5a86:	2101      	movs	r1, #1
   b5a88:	b280      	uxth	r0, r0
   b5a8a:	f001 fe4e 	bl	b772a <digitalWrite>
   b5a8e:	6a60      	ldr	r0, [r4, #36]	; 0x24
   b5a90:	2800      	cmp	r0, #0
   b5a92:	d095      	beq.n	b59c0 <_ZN16Adafruit_SSD13065beginEhhbb+0x188>
   b5a94:	f001 f886 	bl	b6ba4 <_ZN8SPIClass14endTransactionEv>
   b5a98:	e792      	b.n	b59c0 <_ZN16Adafruit_SSD13065beginEhhbb+0x188>
   b5a9a:	bf00      	nop
   b5a9c:	000b8724 	.word	0x000b8724
   b5aa0:	000b8464 	.word	0x000b8464
   b5aa4:	000b896c 	.word	0x000b896c
   b5aa8:	000b8970 	.word	0x000b8970
   b5aac:	000b8974 	.word	0x000b8974
   b5ab0:	00200080 	.word	0x00200080
   b5ab4:	000b897e 	.word	0x000b897e
   b5ab8:	000b8978 	.word	0x000b8978
   b5abc:	00400080 	.word	0x00400080
   b5ac0:	000b8982 	.word	0x000b8982
   b5ac4:	00100060 	.word	0x00100060
   b5ac8:	000b8985 	.word	0x000b8985

000b5acc <_ZN16Adafruit_SSD130621drawFastHLineInternalEssst>:
  int16_t x, int16_t y, int16_t w, uint16_t color) {
   b5acc:	b570      	push	{r4, r5, r6, lr}
  if((y >= 0) && (y < HEIGHT)) { // Y coord in bounds?
   b5ace:	2a00      	cmp	r2, #0
  int16_t x, int16_t y, int16_t w, uint16_t color) {
   b5ad0:	f8bd 5010 	ldrh.w	r5, [sp, #16]
  if((y >= 0) && (y < HEIGHT)) { // Y coord in bounds?
   b5ad4:	db3d      	blt.n	b5b52 <_ZN16Adafruit_SSD130621drawFastHLineInternalEssst+0x86>
   b5ad6:	f9b0 400a 	ldrsh.w	r4, [r0, #10]
   b5ada:	4294      	cmp	r4, r2
   b5adc:	dd39      	ble.n	b5b52 <_ZN16Adafruit_SSD130621drawFastHLineInternalEssst+0x86>
    if(x < 0) { // Clip left
   b5ade:	2900      	cmp	r1, #0
      w += x;
   b5ae0:	bfbe      	ittt	lt
   b5ae2:	185b      	addlt	r3, r3, r1
   b5ae4:	b21b      	sxthlt	r3, r3
      x  = 0;
   b5ae6:	2100      	movlt	r1, #0
    if((x + w) > WIDTH) { // Clip right
   b5ae8:	f9b0 4008 	ldrsh.w	r4, [r0, #8]
   b5aec:	18ce      	adds	r6, r1, r3
   b5aee:	42a6      	cmp	r6, r4
      w = (WIDTH - x);
   b5af0:	bfc4      	itt	gt
   b5af2:	1a63      	subgt	r3, r4, r1
   b5af4:	b21b      	sxthgt	r3, r3
    if(w > 0) { // Proceed only if width is positive
   b5af6:	2b00      	cmp	r3, #0
   b5af8:	dd2b      	ble.n	b5b52 <_ZN16Adafruit_SSD130621drawFastHLineInternalEssst+0x86>
      uint8_t *pBuf = &buffer[(y / 8) * WIDTH + x],
   b5afa:	6ac0      	ldr	r0, [r0, #44]	; 0x2c
   b5afc:	10d6      	asrs	r6, r2, #3
   b5afe:	fb14 1106 	smlabb	r1, r4, r6, r1
   b5b02:	4401      	add	r1, r0
               mask = 1 << (y & 7);
   b5b04:	f002 0007 	and.w	r0, r2, #7
   b5b08:	2201      	movs	r2, #1
   b5b0a:	4082      	lsls	r2, r0
      switch(color) {
   b5b0c:	2d01      	cmp	r5, #1
               mask = 1 << (y & 7);
   b5b0e:	b2d2      	uxtb	r2, r2
      switch(color) {
   b5b10:	d016      	beq.n	b5b40 <_ZN16Adafruit_SSD130621drawFastHLineInternalEssst+0x74>
   b5b12:	2d02      	cmp	r5, #2
   b5b14:	d00b      	beq.n	b5b2e <_ZN16Adafruit_SSD130621drawFastHLineInternalEssst+0x62>
   b5b16:	b9e5      	cbnz	r5, b5b52 <_ZN16Adafruit_SSD130621drawFastHLineInternalEssst+0x86>
       case BLACK: mask = ~mask; while(w--) { *pBuf++ &= mask; }; break;
   b5b18:	43d2      	mvns	r2, r2
   b5b1a:	b2d2      	uxtb	r2, r2
   b5b1c:	440b      	add	r3, r1
   b5b1e:	4299      	cmp	r1, r3
   b5b20:	d017      	beq.n	b5b52 <_ZN16Adafruit_SSD130621drawFastHLineInternalEssst+0x86>
   b5b22:	f811 0b01 	ldrb.w	r0, [r1], #1
   b5b26:	4010      	ands	r0, r2
   b5b28:	f801 0c01 	strb.w	r0, [r1, #-1]
   b5b2c:	e7f7      	b.n	b5b1e <_ZN16Adafruit_SSD130621drawFastHLineInternalEssst+0x52>
   b5b2e:	440b      	add	r3, r1
       case INVERSE:             while(w--) { *pBuf++ ^= mask; }; break;
   b5b30:	4299      	cmp	r1, r3
   b5b32:	d00e      	beq.n	b5b52 <_ZN16Adafruit_SSD130621drawFastHLineInternalEssst+0x86>
   b5b34:	f811 0b01 	ldrb.w	r0, [r1], #1
   b5b38:	4050      	eors	r0, r2
   b5b3a:	f801 0c01 	strb.w	r0, [r1, #-1]
   b5b3e:	e7f7      	b.n	b5b30 <_ZN16Adafruit_SSD130621drawFastHLineInternalEssst+0x64>
   b5b40:	440b      	add	r3, r1
       case WHITE:               while(w--) { *pBuf++ |= mask; }; break;
   b5b42:	4299      	cmp	r1, r3
   b5b44:	d005      	beq.n	b5b52 <_ZN16Adafruit_SSD130621drawFastHLineInternalEssst+0x86>
   b5b46:	f811 0b01 	ldrb.w	r0, [r1], #1
   b5b4a:	4310      	orrs	r0, r2
   b5b4c:	f801 0c01 	strb.w	r0, [r1, #-1]
   b5b50:	e7f7      	b.n	b5b42 <_ZN16Adafruit_SSD130621drawFastHLineInternalEssst+0x76>
}
   b5b52:	bd70      	pop	{r4, r5, r6, pc}

000b5b54 <_ZN16Adafruit_SSD130621drawFastVLineInternalEssst>:
  int16_t x, int16_t __y, int16_t __h, uint16_t color) {
   b5b54:	b5f0      	push	{r4, r5, r6, r7, lr}
  if((x >= 0) && (x < WIDTH)) { // X coord in bounds?
   b5b56:	2900      	cmp	r1, #0
  int16_t x, int16_t __y, int16_t __h, uint16_t color) {
   b5b58:	f8bd 5014 	ldrh.w	r5, [sp, #20]
  if((x >= 0) && (x < WIDTH)) { // X coord in bounds?
   b5b5c:	db76      	blt.n	b5c4c <_ZN16Adafruit_SSD130621drawFastVLineInternalEssst+0xf8>
   b5b5e:	f9b0 6008 	ldrsh.w	r6, [r0, #8]
   b5b62:	42b1      	cmp	r1, r6
   b5b64:	da72      	bge.n	b5c4c <_ZN16Adafruit_SSD130621drawFastVLineInternalEssst+0xf8>
    if(__y < 0) { // Clip top
   b5b66:	2a00      	cmp	r2, #0
      __h += __y;
   b5b68:	bfbe      	ittt	lt
   b5b6a:	189b      	addlt	r3, r3, r2
   b5b6c:	b21b      	sxthlt	r3, r3
      __y = 0;
   b5b6e:	2200      	movlt	r2, #0
    if((__y + __h) > HEIGHT) { // Clip bottom
   b5b70:	f9b0 400a 	ldrsh.w	r4, [r0, #10]
   b5b74:	18d7      	adds	r7, r2, r3
   b5b76:	42a7      	cmp	r7, r4
      __h = (HEIGHT - __y);
   b5b78:	bfc4      	itt	gt
   b5b7a:	1aa3      	subgt	r3, r4, r2
   b5b7c:	b21b      	sxthgt	r3, r3
    if(__h > 0) { // Proceed only if height is now positive
   b5b7e:	2b00      	cmp	r3, #0
   b5b80:	dd64      	ble.n	b5c4c <_ZN16Adafruit_SSD130621drawFastVLineInternalEssst+0xf8>
      uint8_t *pBuf = &buffer[(y / 8) * WIDTH + x];
   b5b82:	f3c2 04c4 	ubfx	r4, r2, #3, #5
   b5b86:	6ac7      	ldr	r7, [r0, #44]	; 0x2c
   b5b88:	fb16 1604 	smlabb	r6, r6, r4, r1
      if(mod) {
   b5b8c:	f012 0207 	ands.w	r2, r2, #7
      uint8_t  y = __y, h = __h;
   b5b90:	b2db      	uxtb	r3, r3
      uint8_t *pBuf = &buffer[(y / 8) * WIDTH + x];
   b5b92:	eb07 0406 	add.w	r4, r7, r6
      if(mod) {
   b5b96:	d023      	beq.n	b5be0 <_ZN16Adafruit_SSD130621drawFastVLineInternalEssst+0x8c>
        mod = 8 - mod;
   b5b98:	f1c2 0208 	rsb	r2, r2, #8
   b5b9c:	b2d2      	uxtb	r2, r2
        uint8_t mask = pgm_read_byte(&premask[mod]);
   b5b9e:	492d      	ldr	r1, [pc, #180]	; (b5c54 <_ZN16Adafruit_SSD130621drawFastVLineInternalEssst+0x100>)
        if(h < mod) mask &= (0XFF >> (mod - h));
   b5ba0:	4293      	cmp	r3, r2
   b5ba2:	bf3c      	itt	cc
   b5ba4:	f04f 0cff 	movcc.w	ip, #255	; 0xff
   b5ba8:	eba2 0e03 	subcc.w	lr, r2, r3
        uint8_t mask = pgm_read_byte(&premask[mod]);
   b5bac:	5c89      	ldrb	r1, [r1, r2]
        if(h < mod) mask &= (0XFF >> (mod - h));
   b5bae:	bf3c      	itt	cc
   b5bb0:	fa4c fc0e 	asrcc.w	ip, ip, lr
   b5bb4:	ea0c 0101 	andcc.w	r1, ip, r1
        switch(color) {
   b5bb8:	2d01      	cmp	r5, #1
   b5bba:	d007      	beq.n	b5bcc <_ZN16Adafruit_SSD130621drawFastVLineInternalEssst+0x78>
   b5bbc:	2d02      	cmp	r5, #2
   b5bbe:	d02e      	beq.n	b5c1e <_ZN16Adafruit_SSD130621drawFastVLineInternalEssst+0xca>
   b5bc0:	b94d      	cbnz	r5, b5bd6 <_ZN16Adafruit_SSD130621drawFastVLineInternalEssst+0x82>
         case BLACK:   *pBuf &= ~mask; break;
   b5bc2:	f817 c006 	ldrb.w	ip, [r7, r6]
   b5bc6:	ea2c 0101 	bic.w	r1, ip, r1
   b5bca:	e003      	b.n	b5bd4 <_ZN16Adafruit_SSD130621drawFastVLineInternalEssst+0x80>
         case WHITE:   *pBuf |=  mask; break;
   b5bcc:	f817 c006 	ldrb.w	ip, [r7, r6]
   b5bd0:	ea41 010c 	orr.w	r1, r1, ip
         case INVERSE: *pBuf ^=  mask; break;
   b5bd4:	55b9      	strb	r1, [r7, r6]
      if(h >= mod) { // More to go?
   b5bd6:	4293      	cmp	r3, r2
   b5bd8:	d338      	bcc.n	b5c4c <_ZN16Adafruit_SSD130621drawFastVLineInternalEssst+0xf8>
        pBuf += WIDTH;
   b5bda:	f9b0 1008 	ldrsh.w	r1, [r0, #8]
   b5bde:	440c      	add	r4, r1
        h -= mod;
   b5be0:	1a9a      	subs	r2, r3, r2
   b5be2:	b2d2      	uxtb	r2, r2
        if(h >= 8) {
   b5be4:	2a07      	cmp	r2, #7
   b5be6:	d90e      	bls.n	b5c06 <_ZN16Adafruit_SSD130621drawFastVLineInternalEssst+0xb2>
          if(color == INVERSE) {
   b5be8:	2d02      	cmp	r5, #2
   b5bea:	d11d      	bne.n	b5c28 <_ZN16Adafruit_SSD130621drawFastVLineInternalEssst+0xd4>
   b5bec:	4613      	mov	r3, r2
              *pBuf ^= 0xFF;  // Invert byte
   b5bee:	7821      	ldrb	r1, [r4, #0]
   b5bf0:	43c9      	mvns	r1, r1
   b5bf2:	7021      	strb	r1, [r4, #0]
              h     -= 8;     // Subtract 8 rows from height
   b5bf4:	3b08      	subs	r3, #8
              pBuf  += WIDTH; // Advance pointer 8 rows
   b5bf6:	f9b0 1008 	ldrsh.w	r1, [r0, #8]
              h     -= 8;     // Subtract 8 rows from height
   b5bfa:	b2db      	uxtb	r3, r3
            } while(h >= 8);
   b5bfc:	2b07      	cmp	r3, #7
              pBuf  += WIDTH; // Advance pointer 8 rows
   b5bfe:	440c      	add	r4, r1
            } while(h >= 8);
   b5c00:	d8f5      	bhi.n	b5bee <_ZN16Adafruit_SSD130621drawFastVLineInternalEssst+0x9a>
              h    -= 8;      // Subtract 8 rows from height
   b5c02:	f002 0207 	and.w	r2, r2, #7
        if(h) { // Do the final partial byte, if necessary
   b5c06:	b30a      	cbz	r2, b5c4c <_ZN16Adafruit_SSD130621drawFastVLineInternalEssst+0xf8>
          uint8_t mask = pgm_read_byte(&postmask[mod]);
   b5c08:	4b13      	ldr	r3, [pc, #76]	; (b5c58 <_ZN16Adafruit_SSD130621drawFastVLineInternalEssst+0x104>)
          switch(color) {
   b5c0a:	2d01      	cmp	r5, #1
          uint8_t mask = pgm_read_byte(&postmask[mod]);
   b5c0c:	5c9b      	ldrb	r3, [r3, r2]
          switch(color) {
   b5c0e:	d01a      	beq.n	b5c46 <_ZN16Adafruit_SSD130621drawFastVLineInternalEssst+0xf2>
   b5c10:	2d02      	cmp	r5, #2
   b5c12:	d01c      	beq.n	b5c4e <_ZN16Adafruit_SSD130621drawFastVLineInternalEssst+0xfa>
   b5c14:	b9d5      	cbnz	r5, b5c4c <_ZN16Adafruit_SSD130621drawFastVLineInternalEssst+0xf8>
           case BLACK:   *pBuf &= ~mask; break;
   b5c16:	7822      	ldrb	r2, [r4, #0]
   b5c18:	ea22 0303 	bic.w	r3, r2, r3
   b5c1c:	e015      	b.n	b5c4a <_ZN16Adafruit_SSD130621drawFastVLineInternalEssst+0xf6>
         case INVERSE: *pBuf ^=  mask; break;
   b5c1e:	f817 c006 	ldrb.w	ip, [r7, r6]
   b5c22:	ea81 010c 	eor.w	r1, r1, ip
   b5c26:	e7d5      	b.n	b5bd4 <_ZN16Adafruit_SSD130621drawFastVLineInternalEssst+0x80>
            uint8_t val = (color != BLACK) ? 255 : 0;
   b5c28:	1e29      	subs	r1, r5, #0
   b5c2a:	bf18      	it	ne
   b5c2c:	2101      	movne	r1, #1
   b5c2e:	4249      	negs	r1, r1
   b5c30:	b2c9      	uxtb	r1, r1
   b5c32:	4613      	mov	r3, r2
              *pBuf = val;    // Set byte
   b5c34:	7021      	strb	r1, [r4, #0]
              h    -= 8;      // Subtract 8 rows from height
   b5c36:	3b08      	subs	r3, #8
              pBuf += WIDTH;  // Advance pointer 8 rows
   b5c38:	f9b0 6008 	ldrsh.w	r6, [r0, #8]
              h    -= 8;      // Subtract 8 rows from height
   b5c3c:	b2db      	uxtb	r3, r3
            } while(h >= 8);
   b5c3e:	2b07      	cmp	r3, #7
              pBuf += WIDTH;  // Advance pointer 8 rows
   b5c40:	4434      	add	r4, r6
            } while(h >= 8);
   b5c42:	d8f7      	bhi.n	b5c34 <_ZN16Adafruit_SSD130621drawFastVLineInternalEssst+0xe0>
   b5c44:	e7dd      	b.n	b5c02 <_ZN16Adafruit_SSD130621drawFastVLineInternalEssst+0xae>
           case WHITE:   *pBuf |=  mask; break;
   b5c46:	7822      	ldrb	r2, [r4, #0]
   b5c48:	4313      	orrs	r3, r2
           case INVERSE: *pBuf ^=  mask; break;
   b5c4a:	7023      	strb	r3, [r4, #0]
}
   b5c4c:	bdf0      	pop	{r4, r5, r6, r7, pc}
           case INVERSE: *pBuf ^=  mask; break;
   b5c4e:	7822      	ldrb	r2, [r4, #0]
   b5c50:	4053      	eors	r3, r2
   b5c52:	e7fa      	b.n	b5c4a <_ZN16Adafruit_SSD130621drawFastVLineInternalEssst+0xf6>
   b5c54:	000b895c 	.word	0x000b895c
   b5c58:	000b8964 	.word	0x000b8964

000b5c5c <_ZN16Adafruit_SSD130613drawFastHLineEssst>:
  int16_t x, int16_t y, int16_t w, uint16_t color) {
   b5c5c:	b470      	push	{r4, r5, r6}
   b5c5e:	4614      	mov	r4, r2
  switch(rotation) {
   b5c60:	7e82      	ldrb	r2, [r0, #26]
  int16_t x, int16_t y, int16_t w, uint16_t color) {
   b5c62:	f8bd 600c 	ldrh.w	r6, [sp, #12]
  switch(rotation) {
   b5c66:	2a02      	cmp	r2, #2
   b5c68:	d00d      	beq.n	b5c86 <_ZN16Adafruit_SSD130613drawFastHLineEssst+0x2a>
   b5c6a:	2a03      	cmp	r2, #3
   b5c6c:	d018      	beq.n	b5ca0 <_ZN16Adafruit_SSD130613drawFastHLineEssst+0x44>
   b5c6e:	2a01      	cmp	r2, #1
   b5c70:	d111      	bne.n	b5c96 <_ZN16Adafruit_SSD130613drawFastHLineEssst+0x3a>
    x = WIDTH - x - 1;
   b5c72:	8902      	ldrh	r2, [r0, #8]
   b5c74:	43e4      	mvns	r4, r4
   b5c76:	4414      	add	r4, r2
   b5c78:	b224      	sxth	r4, r4
  if(bSwap) drawFastVLineInternal(x, y, w, color);
   b5c7a:	9603      	str	r6, [sp, #12]
   b5c7c:	460a      	mov	r2, r1
   b5c7e:	4621      	mov	r1, r4
}
   b5c80:	bc70      	pop	{r4, r5, r6}
  if(bSwap) drawFastVLineInternal(x, y, w, color);
   b5c82:	f7ff bf67 	b.w	b5b54 <_ZN16Adafruit_SSD130621drawFastVLineInternalEssst>
    y  = HEIGHT - y - 1;
   b5c86:	8942      	ldrh	r2, [r0, #10]
    x -= (w-1);
   b5c88:	8905      	ldrh	r5, [r0, #8]
    y  = HEIGHT - y - 1;
   b5c8a:	43e4      	mvns	r4, r4
    x -= (w-1);
   b5c8c:	4419      	add	r1, r3
    y  = HEIGHT - y - 1;
   b5c8e:	4414      	add	r4, r2
    x -= (w-1);
   b5c90:	1a69      	subs	r1, r5, r1
    y  = HEIGHT - y - 1;
   b5c92:	b224      	sxth	r4, r4
    x -= (w-1);
   b5c94:	b209      	sxth	r1, r1
  else      drawFastHLineInternal(x, y, w, color);
   b5c96:	9603      	str	r6, [sp, #12]
   b5c98:	4622      	mov	r2, r4
}
   b5c9a:	bc70      	pop	{r4, r5, r6}
  else      drawFastHLineInternal(x, y, w, color);
   b5c9c:	f7ff bf16 	b.w	b5acc <_ZN16Adafruit_SSD130621drawFastHLineInternalEssst>
    y -= (w-1);
   b5ca0:	8945      	ldrh	r5, [r0, #10]
   b5ca2:	4419      	add	r1, r3
   b5ca4:	1a69      	subs	r1, r5, r1
   b5ca6:	b209      	sxth	r1, r1
    break;
   b5ca8:	e7e7      	b.n	b5c7a <_ZN16Adafruit_SSD130613drawFastHLineEssst+0x1e>

000b5caa <_ZN16Adafruit_SSD130613drawFastVLineEssst>:
  int16_t x, int16_t y, int16_t h, uint16_t color) {
   b5caa:	b430      	push	{r4, r5}
   b5cac:	4614      	mov	r4, r2
  switch(rotation) {
   b5cae:	7e82      	ldrb	r2, [r0, #26]
  int16_t x, int16_t y, int16_t h, uint16_t color) {
   b5cb0:	f8bd 5008 	ldrh.w	r5, [sp, #8]
  switch(rotation) {
   b5cb4:	2a02      	cmp	r2, #2
   b5cb6:	d00d      	beq.n	b5cd4 <_ZN16Adafruit_SSD130613drawFastVLineEssst+0x2a>
   b5cb8:	2a03      	cmp	r2, #3
   b5cba:	d018      	beq.n	b5cee <_ZN16Adafruit_SSD130613drawFastVLineEssst+0x44>
   b5cbc:	2a01      	cmp	r2, #1
   b5cbe:	d111      	bne.n	b5ce4 <_ZN16Adafruit_SSD130613drawFastVLineEssst+0x3a>
    x -= (h-1);
   b5cc0:	18e2      	adds	r2, r4, r3
   b5cc2:	8904      	ldrh	r4, [r0, #8]
   b5cc4:	1aa4      	subs	r4, r4, r2
   b5cc6:	b224      	sxth	r4, r4
  if(bSwap) drawFastHLineInternal(x, y, h, color);
   b5cc8:	9502      	str	r5, [sp, #8]
   b5cca:	460a      	mov	r2, r1
   b5ccc:	4621      	mov	r1, r4
}
   b5cce:	bc30      	pop	{r4, r5}
  if(bSwap) drawFastHLineInternal(x, y, h, color);
   b5cd0:	f7ff befc 	b.w	b5acc <_ZN16Adafruit_SSD130621drawFastHLineInternalEssst>
    x = WIDTH  - x - 1;
   b5cd4:	8902      	ldrh	r2, [r0, #8]
   b5cd6:	43c9      	mvns	r1, r1
   b5cd8:	4411      	add	r1, r2
    y -= (h-1);
   b5cda:	18e2      	adds	r2, r4, r3
   b5cdc:	8944      	ldrh	r4, [r0, #10]
   b5cde:	1aa4      	subs	r4, r4, r2
    x = WIDTH  - x - 1;
   b5ce0:	b209      	sxth	r1, r1
    y -= (h-1);
   b5ce2:	b224      	sxth	r4, r4
  else      drawFastVLineInternal(x, y, h, color);
   b5ce4:	9502      	str	r5, [sp, #8]
   b5ce6:	4622      	mov	r2, r4
}
   b5ce8:	bc30      	pop	{r4, r5}
  else      drawFastVLineInternal(x, y, h, color);
   b5cea:	f7ff bf33 	b.w	b5b54 <_ZN16Adafruit_SSD130621drawFastVLineInternalEssst>
    y = HEIGHT - y - 1;
   b5cee:	8942      	ldrh	r2, [r0, #10]
   b5cf0:	43c9      	mvns	r1, r1
   b5cf2:	4411      	add	r1, r2
   b5cf4:	b209      	sxth	r1, r1
    break;
   b5cf6:	e7e7      	b.n	b5cc8 <_ZN16Adafruit_SSD130613drawFastVLineEssst+0x1e>

000b5cf8 <_ZN16Adafruit_SSD13067displayEv>:
void Adafruit_SSD1306::display(void) {
   b5cf8:	e92d 43f8 	stmdb	sp!, {r3, r4, r5, r6, r7, r8, r9, lr}
   b5cfc:	4604      	mov	r4, r0
  TRANSACTION_START
   b5cfe:	6a80      	ldr	r0, [r0, #40]	; 0x28
   b5d00:	2800      	cmp	r0, #0
   b5d02:	d042      	beq.n	b5d8a <_ZN16Adafruit_SSD13067displayEv+0x92>
   b5d04:	6ca1      	ldr	r1, [r4, #72]	; 0x48
   b5d06:	f000 fd01 	bl	b670c <_ZN7TwoWire8setSpeedEm>
  ssd1306_commandList(dlist1, sizeof(dlist1));
   b5d0a:	4947      	ldr	r1, [pc, #284]	; (b5e28 <_ZN16Adafruit_SSD13067displayEv+0x130>)
   b5d0c:	2205      	movs	r2, #5
   b5d0e:	4620      	mov	r0, r4
   b5d10:	f7ff fd27 	bl	b5762 <_ZN16Adafruit_SSD130619ssd1306_commandListEPKhh>
  ssd1306_command1(WIDTH - 1); // Column end address
   b5d14:	8921      	ldrh	r1, [r4, #8]
   b5d16:	3901      	subs	r1, #1
   b5d18:	4620      	mov	r0, r4
   b5d1a:	b2c9      	uxtb	r1, r1
   b5d1c:	f7ff fcb2 	bl	b5684 <_ZN16Adafruit_SSD130616ssd1306_command1Eh>
  uint16_t count = WIDTH * ((HEIGHT + 7) / 8);
   b5d20:	f9b4 300a 	ldrsh.w	r3, [r4, #10]
   b5d24:	1dde      	adds	r6, r3, #7
   b5d26:	bf48      	it	mi
   b5d28:	f103 060e 	addmi.w	r6, r3, #14
  if(wire) { // I2C
   b5d2c:	e9d4 050a 	ldrd	r0, r5, [r4, #40]	; 0x28
  uint16_t count = WIDTH * ((HEIGHT + 7) / 8);
   b5d30:	8923      	ldrh	r3, [r4, #8]
   b5d32:	10f6      	asrs	r6, r6, #3
   b5d34:	fb13 f606 	smulbb	r6, r3, r6
  uint8_t *ptr   = buffer;
   b5d38:	fa15 f686 	uxtah	r6, r5, r6
  if(wire) { // I2C
   b5d3c:	2800      	cmp	r0, #0
   b5d3e:	d03a      	beq.n	b5db6 <_ZN16Adafruit_SSD13067displayEv+0xbe>
    wire->beginTransmission(i2caddr);
   b5d40:	f994 1030 	ldrsb.w	r1, [r4, #48]	; 0x30
   b5d44:	f000 fd1c 	bl	b6780 <_ZN7TwoWire17beginTransmissionEi>
    WIRE_WRITE((uint8_t)0x40);
   b5d48:	6aa0      	ldr	r0, [r4, #40]	; 0x28
   b5d4a:	6803      	ldr	r3, [r0, #0]
   b5d4c:	2140      	movs	r1, #64	; 0x40
   b5d4e:	689b      	ldr	r3, [r3, #8]
   b5d50:	4798      	blx	r3
    uint8_t bytesOut = 1;
   b5d52:	2701      	movs	r7, #1
    while(count--) {
   b5d54:	42b5      	cmp	r5, r6
        wire->endTransmission();
   b5d56:	6aa0      	ldr	r0, [r4, #40]	; 0x28
    while(count--) {
   b5d58:	d024      	beq.n	b5da4 <_ZN16Adafruit_SSD13067displayEv+0xac>
      if(bytesOut >= WIRE_MAX) {
   b5d5a:	2f1f      	cmp	r7, #31
   b5d5c:	d90c      	bls.n	b5d78 <_ZN16Adafruit_SSD13067displayEv+0x80>
        wire->endTransmission();
   b5d5e:	f000 fd16 	bl	b678e <_ZN7TwoWire15endTransmissionEv>
        wire->beginTransmission(i2caddr);
   b5d62:	f994 1030 	ldrsb.w	r1, [r4, #48]	; 0x30
   b5d66:	6aa0      	ldr	r0, [r4, #40]	; 0x28
   b5d68:	f000 fd0a 	bl	b6780 <_ZN7TwoWire17beginTransmissionEi>
        WIRE_WRITE((uint8_t)0x40);
   b5d6c:	6aa0      	ldr	r0, [r4, #40]	; 0x28
   b5d6e:	6803      	ldr	r3, [r0, #0]
   b5d70:	2140      	movs	r1, #64	; 0x40
   b5d72:	689b      	ldr	r3, [r3, #8]
   b5d74:	4798      	blx	r3
        bytesOut = 1;
   b5d76:	2701      	movs	r7, #1
      WIRE_WRITE(*ptr++);
   b5d78:	6aa0      	ldr	r0, [r4, #40]	; 0x28
   b5d7a:	f815 1b01 	ldrb.w	r1, [r5], #1
   b5d7e:	6803      	ldr	r3, [r0, #0]
      bytesOut++;
   b5d80:	3701      	adds	r7, #1
      WIRE_WRITE(*ptr++);
   b5d82:	689b      	ldr	r3, [r3, #8]
   b5d84:	4798      	blx	r3
      bytesOut++;
   b5d86:	b2ff      	uxtb	r7, r7
    while(count--) {
   b5d88:	e7e4      	b.n	b5d54 <_ZN16Adafruit_SSD13067displayEv+0x5c>
  TRANSACTION_START
   b5d8a:	6a60      	ldr	r0, [r4, #36]	; 0x24
   b5d8c:	b118      	cbz	r0, b5d96 <_ZN16Adafruit_SSD13067displayEv+0x9e>
   b5d8e:	f104 0138 	add.w	r1, r4, #56	; 0x38
   b5d92:	f000 ff21 	bl	b6bd8 <_ZN8SPIClass16beginTransactionERKN8particle11SPISettingsE>
   b5d96:	f994 0036 	ldrsb.w	r0, [r4, #54]	; 0x36
   b5d9a:	2100      	movs	r1, #0
   b5d9c:	b280      	uxth	r0, r0
   b5d9e:	f001 fcc4 	bl	b772a <digitalWrite>
   b5da2:	e7b2      	b.n	b5d0a <_ZN16Adafruit_SSD13067displayEv+0x12>
    wire->endTransmission();
   b5da4:	f000 fcf3 	bl	b678e <_ZN7TwoWire15endTransmissionEv>
  TRANSACTION_END
   b5da8:	6aa0      	ldr	r0, [r4, #40]	; 0x28
   b5daa:	b378      	cbz	r0, b5e0c <_ZN16Adafruit_SSD13067displayEv+0x114>
   b5dac:	6ce1      	ldr	r1, [r4, #76]	; 0x4c
}
   b5dae:	e8bd 43f8 	ldmia.w	sp!, {r3, r4, r5, r6, r7, r8, r9, lr}
   b5db2:	f000 bcab 	b.w	b670c <_ZN7TwoWire8setSpeedEm>
    SSD1306_MODE_DATA
   b5db6:	f994 0035 	ldrsb.w	r0, [r4, #53]	; 0x35
   b5dba:	2101      	movs	r1, #1
   b5dbc:	b280      	uxth	r0, r0
   b5dbe:	f001 fcb4 	bl	b772a <digitalWrite>
    while(count--) SPIwrite(*ptr++);
   b5dc2:	42ae      	cmp	r6, r5
   b5dc4:	d0f0      	beq.n	b5da8 <_ZN16Adafruit_SSD13067displayEv+0xb0>
  if(spi) {
   b5dc6:	6a60      	ldr	r0, [r4, #36]	; 0x24
    while(count--) SPIwrite(*ptr++);
   b5dc8:	f815 9b01 	ldrb.w	r9, [r5], #1
  if(spi) {
   b5dcc:	b118      	cbz	r0, b5dd6 <_ZN16Adafruit_SSD13067displayEv+0xde>
    (void)spi->transfer(d);
   b5dce:	4649      	mov	r1, r9
   b5dd0:	f000 ff70 	bl	b6cb4 <_ZN8SPIClass8transferEh>
   b5dd4:	e7f5      	b.n	b5dc2 <_ZN16Adafruit_SSD13067displayEv+0xca>
   b5dd6:	2708      	movs	r7, #8
    for(uint8_t bit = 0x80; bit; bit >>= 1) {
   b5dd8:	f04f 0880 	mov.w	r8, #128	; 0x80
      digitalWrite(mosiPin, d & bit);
   b5ddc:	f994 0033 	ldrsb.w	r0, [r4, #51]	; 0x33
   b5de0:	ea09 0108 	and.w	r1, r9, r8
   b5de4:	b280      	uxth	r0, r0
   b5de6:	f001 fca0 	bl	b772a <digitalWrite>
      digitalWrite(clkPin , HIGH);
   b5dea:	f994 0034 	ldrsb.w	r0, [r4, #52]	; 0x34
   b5dee:	2101      	movs	r1, #1
   b5df0:	b280      	uxth	r0, r0
   b5df2:	f001 fc9a 	bl	b772a <digitalWrite>
      digitalWrite(clkPin , LOW);
   b5df6:	f994 0034 	ldrsb.w	r0, [r4, #52]	; 0x34
   b5dfa:	2100      	movs	r1, #0
   b5dfc:	b280      	uxth	r0, r0
   b5dfe:	f001 fc94 	bl	b772a <digitalWrite>
    for(uint8_t bit = 0x80; bit; bit >>= 1) {
   b5e02:	3f01      	subs	r7, #1
   b5e04:	ea4f 0858 	mov.w	r8, r8, lsr #1
   b5e08:	d1e8      	bne.n	b5ddc <_ZN16Adafruit_SSD13067displayEv+0xe4>
   b5e0a:	e7da      	b.n	b5dc2 <_ZN16Adafruit_SSD13067displayEv+0xca>
  TRANSACTION_END
   b5e0c:	f994 0036 	ldrsb.w	r0, [r4, #54]	; 0x36
   b5e10:	2101      	movs	r1, #1
   b5e12:	b280      	uxth	r0, r0
   b5e14:	f001 fc89 	bl	b772a <digitalWrite>
   b5e18:	6a60      	ldr	r0, [r4, #36]	; 0x24
   b5e1a:	b118      	cbz	r0, b5e24 <_ZN16Adafruit_SSD13067displayEv+0x12c>
}
   b5e1c:	e8bd 43f8 	ldmia.w	sp!, {r3, r4, r5, r6, r7, r8, r9, lr}
  TRANSACTION_END
   b5e20:	f000 bec0 	b.w	b6ba4 <_ZN8SPIClass14endTransactionEv>
}
   b5e24:	e8bd 83f8 	ldmia.w	sp!, {r3, r4, r5, r6, r7, r8, r9, pc}
   b5e28:	000b8988 	.word	0x000b8988

000b5e2c <_ZN8DebounceC1Ev>:

Debounce::Debounce()
    : previous_millis(0)
    , interval_millis(10)
    , state(0)
    , pin(0)
   b5e2c:	2100      	movs	r1, #0
   b5e2e:	220a      	movs	r2, #10
   b5e30:	e9c0 1200 	strd	r1, r2, [r0]
{}
   b5e34:	4770      	bx	lr

000b5e36 <_ZN8Debounce6attachEi>:

void Debounce::attach(int pin) {
    this->pin = pin;
    state = 0;
   b5e36:	2300      	movs	r3, #0
void Debounce::attach(int pin) {
   b5e38:	b510      	push	{r4, lr}
   b5e3a:	4604      	mov	r4, r0
    this->pin = pin;
   b5e3c:	71c1      	strb	r1, [r0, #7]
    state = 0;
   b5e3e:	7183      	strb	r3, [r0, #6]
    if (digitalRead(pin)) {
   b5e40:	b288      	uxth	r0, r1
   b5e42:	f001 fc8b 	bl	b775c <digitalRead>
   b5e46:	b108      	cbz	r0, b5e4c <_ZN8Debounce6attachEi+0x16>
        state = _BV(DEBOUNCED_STATE) | _BV(UNSTABLE_STATE);
   b5e48:	2303      	movs	r3, #3
   b5e4a:	71a3      	strb	r3, [r4, #6]

#ifdef __cplusplus
extern "C" {
#endif

inline system_tick_t millis(void) { return HAL_Timer_Get_Milli_Seconds(); }
   b5e4c:	f000 f932 	bl	b60b4 <HAL_Timer_Get_Milli_Seconds>
    }
#ifdef BOUNCE_LOCK_OUT
    previous_millis = 0;
#else
    previous_millis = millis();
   b5e50:	6020      	str	r0, [r4, #0]
#endif
}
   b5e52:	bd10      	pop	{r4, pc}

000b5e54 <_ZN8Debounce6attachEi7PinMode>:

void Debounce::attach(int pin, PinMode mode){
   b5e54:	b538      	push	{r3, r4, r5, lr}
   b5e56:	460c      	mov	r4, r1
   b5e58:	4605      	mov	r5, r0
  pinMode(pin, mode);
   b5e5a:	4611      	mov	r1, r2
   b5e5c:	b2a0      	uxth	r0, r4
   b5e5e:	f001 fc53 	bl	b7708 <pinMode>
  
  this->attach(pin);
   b5e62:	4621      	mov	r1, r4
   b5e64:	4628      	mov	r0, r5
}
   b5e66:	e8bd 4038 	ldmia.w	sp!, {r3, r4, r5, lr}
  this->attach(pin);
   b5e6a:	f7ff bfe4 	b.w	b5e36 <_ZN8Debounce6attachEi>

000b5e6e <_ZN8Debounce6updateEv>:
{
    this->interval_millis = interval_millis;
}

bool Debounce::update()
{
   b5e6e:	b538      	push	{r3, r4, r5, lr}
   b5e70:	4604      	mov	r4, r0
    }
    // return just the sate changed bit
    return state & _BV(STATE_CHANGED);
#else
    // Read the state of the switch in a temporary variable.
    bool currentState = digitalRead(pin);
   b5e72:	79c0      	ldrb	r0, [r0, #7]
   b5e74:	f001 fc72 	bl	b775c <digitalRead>
    state &= ~_BV(STATE_CHANGED);
   b5e78:	79a5      	ldrb	r5, [r4, #6]
    bool currentState = digitalRead(pin);
   b5e7a:	3800      	subs	r0, #0
    state &= ~_BV(STATE_CHANGED);
   b5e7c:	f025 0308 	bic.w	r3, r5, #8
    bool currentState = digitalRead(pin);
   b5e80:	bf18      	it	ne
   b5e82:	2001      	movne	r0, #1

    // If the reading is different from last reading, reset the debounce counter
    if ( currentState != (bool)(state & _BV(UNSTABLE_STATE)) ) {
   b5e84:	f3c5 0540 	ubfx	r5, r5, #1, #1
   b5e88:	4285      	cmp	r5, r0
    state &= ~_BV(STATE_CHANGED);
   b5e8a:	71a3      	strb	r3, [r4, #6]
    if ( currentState != (bool)(state & _BV(UNSTABLE_STATE)) ) {
   b5e8c:	d00a      	beq.n	b5ea4 <_ZN8Debounce6updateEv+0x36>
   b5e8e:	f000 f911 	bl	b60b4 <HAL_Timer_Get_Milli_Seconds>
        previous_millis = millis();
        state ^= _BV(UNSTABLE_STATE);
   b5e92:	79a3      	ldrb	r3, [r4, #6]
        previous_millis = millis();
   b5e94:	6020      	str	r0, [r4, #0]
        state ^= _BV(UNSTABLE_STATE);
   b5e96:	f083 0302 	eor.w	r3, r3, #2
            // We have passed the threshold time, so the input is now stable
            // If it is different from last state, set the STATE_CHANGED flag
            if ((bool)(state & _BV(DEBOUNCED_STATE)) != currentState) {
                previous_millis = millis();
                state ^= _BV(DEBOUNCED_STATE);
                state |= _BV(STATE_CHANGED);
   b5e9a:	71a3      	strb	r3, [r4, #6]
            }
        }

    return state & _BV(STATE_CHANGED);
   b5e9c:	79a0      	ldrb	r0, [r4, #6]
#endif
}
   b5e9e:	f3c0 00c0 	ubfx	r0, r0, #3, #1
   b5ea2:	bd38      	pop	{r3, r4, r5, pc}
   b5ea4:	f000 f906 	bl	b60b4 <HAL_Timer_Get_Milli_Seconds>
        if ( millis() - previous_millis >= interval_millis ) {
   b5ea8:	6823      	ldr	r3, [r4, #0]
   b5eaa:	1ac0      	subs	r0, r0, r3
   b5eac:	88a3      	ldrh	r3, [r4, #4]
   b5eae:	4298      	cmp	r0, r3
   b5eb0:	d3f4      	bcc.n	b5e9c <_ZN8Debounce6updateEv+0x2e>
            if ((bool)(state & _BV(DEBOUNCED_STATE)) != currentState) {
   b5eb2:	79a3      	ldrb	r3, [r4, #6]
   b5eb4:	f003 0301 	and.w	r3, r3, #1
   b5eb8:	42ab      	cmp	r3, r5
   b5eba:	d0ef      	beq.n	b5e9c <_ZN8Debounce6updateEv+0x2e>
   b5ebc:	f000 f8fa 	bl	b60b4 <HAL_Timer_Get_Milli_Seconds>
                state ^= _BV(DEBOUNCED_STATE);
   b5ec0:	79a3      	ldrb	r3, [r4, #6]
                previous_millis = millis();
   b5ec2:	6020      	str	r0, [r4, #0]
                state ^= _BV(DEBOUNCED_STATE);
   b5ec4:	f083 0301 	eor.w	r3, r3, #1
                state |= _BV(STATE_CHANGED);
   b5ec8:	f043 0308 	orr.w	r3, r3, #8
   b5ecc:	e7e5      	b.n	b5e9a <_ZN8Debounce6updateEv+0x2c>

000b5ece <_ZN8Debounce4fellEv>:
    return ( state & _BV(DEBOUNCED_STATE) ) && ( state & _BV(STATE_CHANGED));
}

bool Debounce::fell()
{
    return !( state & _BV(DEBOUNCED_STATE) ) && ( state & _BV(STATE_CHANGED));
   b5ece:	7980      	ldrb	r0, [r0, #6]
   b5ed0:	f000 0009 	and.w	r0, r0, #9
   b5ed4:	f1a0 0308 	sub.w	r3, r0, #8
   b5ed8:	4258      	negs	r0, r3
   b5eda:	4158      	adcs	r0, r3
   b5edc:	4770      	bx	lr

000b5ede <_Z10BlynkDelaym>:
#endif

#ifdef _BLYNK_USE_DEFAULT_DELAY
    void BlynkDelay(millis_time_t ms)
    {
        return delay(ms);
   b5ede:	f000 bb8d 	b.w	b65fc <delay>

000b5ee2 <_Z11BlynkMillisv>:
   b5ee2:	f000 b8e7 	b.w	b60b4 <HAL_Timer_Get_Milli_Seconds>

000b5ee6 <BlynkWidgetRead>:
{}

void BlynkWidgetRead(BlynkReq BLYNK_UNUSED &request)
{
    BLYNK_LOG2(BLYNK_F("No handler for reading from pin "), request.pin);
}
   b5ee6:	4770      	bx	lr

000b5ee8 <BlynkWidgetWrite>:

void BlynkWidgetWrite(BlynkReq BLYNK_UNUSED &request, const BlynkParam BLYNK_UNUSED &param)
{
    BLYNK_LOG2(BLYNK_F("No handler for writing to pin "), request.pin);
}
   b5ee8:	4770      	bx	lr

000b5eea <BlynkNoOpCbk>:
{}
   b5eea:	4770      	bx	lr

000b5eec <GetReadHandler>:
#endif
};

WidgetReadHandler GetReadHandler(uint8_t pin)
{
    if (pin >= BLYNK_COUNT_OF(BlynkReadHandlerVector))
   b5eec:	0603      	lsls	r3, r0, #24
        return NULL;
#ifdef BLYNK_HAS_PROGMEM
    return (WidgetReadHandler)pgm_read_word(&BlynkReadHandlerVector[pin]);
#else
    return BlynkReadHandlerVector[pin];
   b5eee:	bf5a      	itte	pl
   b5ef0:	4b02      	ldrpl	r3, [pc, #8]	; (b5efc <GetReadHandler+0x10>)
   b5ef2:	f853 0020 	ldrpl.w	r0, [r3, r0, lsl #2]
        return NULL;
   b5ef6:	2000      	movmi	r0, #0
#endif
}
   b5ef8:	4770      	bx	lr
   b5efa:	bf00      	nop
   b5efc:	000b8990 	.word	0x000b8990

000b5f00 <GetWriteHandler>:

WidgetWriteHandler GetWriteHandler(uint8_t pin)
{
    if (pin >= BLYNK_COUNT_OF(BlynkWriteHandlerVector))
   b5f00:	0603      	lsls	r3, r0, #24
        return NULL;
#ifdef BLYNK_HAS_PROGMEM
    return (WidgetWriteHandler)pgm_read_word(&BlynkWriteHandlerVector[pin]);
#else
    return BlynkWriteHandlerVector[pin];
   b5f02:	bf5a      	itte	pl
   b5f04:	4b02      	ldrpl	r3, [pc, #8]	; (b5f10 <GetWriteHandler+0x10>)
   b5f06:	f853 0020 	ldrpl.w	r0, [r3, r0, lsl #2]
        return NULL;
   b5f0a:	2000      	movmi	r0, #0
#endif
}
   b5f0c:	4770      	bx	lr
   b5f0e:	bf00      	nop
   b5f10:	000b8b90 	.word	0x000b8b90

000b5f14 <_ZN16OledWingAdafruitD1Ev>:


OledWingAdafruit::OledWingAdafruit(int useButtons) : Adafruit_SSD1306(128, 32), useButtons(useButtons) {

}
OledWingAdafruit::~OledWingAdafruit() {
   b5f14:	b510      	push	{r4, lr}
   b5f16:	4b06      	ldr	r3, [pc, #24]	; (b5f30 <_ZN16OledWingAdafruitD1Ev+0x1c>)
   b5f18:	6003      	str	r3, [r0, #0]
   b5f1a:	4604      	mov	r4, r0
	if (mutex) {
   b5f1c:	6d00      	ldr	r0, [r0, #80]	; 0x50
   b5f1e:	b108      	cbz	r0, b5f24 <_ZN16OledWingAdafruitD1Ev+0x10>
		os_mutex_destroy(mutex);
   b5f20:	f000 f8a8 	bl	b6074 <os_mutex_destroy>
OledWingAdafruit::~OledWingAdafruit() {
   b5f24:	4620      	mov	r0, r4
   b5f26:	f7ff fb07 	bl	b5538 <_ZN16Adafruit_SSD1306D1Ev>
	}
}
   b5f2a:	4620      	mov	r0, r4
   b5f2c:	bd10      	pop	{r4, pc}
   b5f2e:	bf00      	nop
   b5f30:	000b8d98 	.word	0x000b8d98

000b5f34 <_ZN16OledWingAdafruitD0Ev>:
OledWingAdafruit::~OledWingAdafruit() {
   b5f34:	b510      	push	{r4, lr}
   b5f36:	4604      	mov	r4, r0
}
   b5f38:	f7ff ffec 	bl	b5f14 <_ZN16OledWingAdafruitD1Ev>
   b5f3c:	4620      	mov	r0, r4
   b5f3e:	2170      	movs	r1, #112	; 0x70
   b5f40:	f7fe f8ab 	bl	b409a <_ZdlPvj>
   b5f44:	4620      	mov	r0, r4
   b5f46:	bd10      	pop	{r4, pc}

000b5f48 <_ZN16OledWingAdafruitC1Ei>:
OledWingAdafruit::OledWingAdafruit(int useButtons) : Adafruit_SSD1306(128, 32), useButtons(useButtons) {
   b5f48:	b530      	push	{r4, r5, lr}
   b5f4a:	b085      	sub	sp, #20
   b5f4c:	4604      	mov	r4, r0
   b5f4e:	460d      	mov	r5, r1
   b5f50:	f001 fc6c 	bl	b782c <_Z19__fetch_global_Wirev>
   b5f54:	4a10      	ldr	r2, [pc, #64]	; (b5f98 <_ZN16OledWingAdafruitC1Ei+0x50>)
   b5f56:	4911      	ldr	r1, [pc, #68]	; (b5f9c <_ZN16OledWingAdafruitC1Ei+0x54>)
   b5f58:	e9cd 2101 	strd	r2, r1, [sp, #4]
   b5f5c:	f04f 32ff 	mov.w	r2, #4294967295	; 0xffffffff
   b5f60:	2180      	movs	r1, #128	; 0x80
   b5f62:	4603      	mov	r3, r0
   b5f64:	9200      	str	r2, [sp, #0]
   b5f66:	4620      	mov	r0, r4
   b5f68:	2220      	movs	r2, #32
   b5f6a:	f7ff fb5d 	bl	b5628 <_ZN16Adafruit_SSD1306C1EhhP7TwoWireamm>
   b5f6e:	4b0c      	ldr	r3, [pc, #48]	; (b5fa0 <_ZN16OledWingAdafruitC1Ei+0x58>)
   b5f70:	6023      	str	r3, [r4, #0]
   b5f72:	2300      	movs	r3, #0
   b5f74:	e9c4 3514 	strd	r3, r5, [r4, #80]	; 0x50
   b5f78:	f104 0058 	add.w	r0, r4, #88	; 0x58
   b5f7c:	f7ff ff56 	bl	b5e2c <_ZN8DebounceC1Ev>
   b5f80:	f104 0060 	add.w	r0, r4, #96	; 0x60
   b5f84:	f7ff ff52 	bl	b5e2c <_ZN8DebounceC1Ev>
   b5f88:	f104 0068 	add.w	r0, r4, #104	; 0x68
   b5f8c:	f7ff ff4e 	bl	b5e2c <_ZN8DebounceC1Ev>
}
   b5f90:	4620      	mov	r0, r4
   b5f92:	b005      	add	sp, #20
   b5f94:	bd30      	pop	{r4, r5, pc}
   b5f96:	bf00      	nop
   b5f98:	00061a80 	.word	0x00061a80
   b5f9c:	000186a0 	.word	0x000186a0
   b5fa0:	000b8d98 	.word	0x000b8d98

000b5fa4 <_ZN16OledWingAdafruit5setupEv>:

void OledWingAdafruit::setup() {
   b5fa4:	b513      	push	{r0, r1, r4, lr}
   b5fa6:	4604      	mov	r4, r0
	os_mutex_create(&mutex);
   b5fa8:	3050      	adds	r0, #80	; 0x50
   b5faa:	f000 f85b 	bl	b6064 <os_mutex_create>

	if (useButtons & USE_BUTTON_A) {
   b5fae:	6d63      	ldr	r3, [r4, #84]	; 0x54
   b5fb0:	07d9      	lsls	r1, r3, #31
   b5fb2:	d505      	bpl.n	b5fc0 <_ZN16OledWingAdafruit5setupEv+0x1c>
		buttonA.attach(BUTTON_A_PIN, INPUT_PULLUP);
   b5fb4:	2202      	movs	r2, #2
   b5fb6:	2104      	movs	r1, #4
   b5fb8:	f104 0058 	add.w	r0, r4, #88	; 0x58
   b5fbc:	f7ff ff4a 	bl	b5e54 <_ZN8Debounce6attachEi7PinMode>
	}
	if (useButtons & USE_BUTTON_B) {
   b5fc0:	6d63      	ldr	r3, [r4, #84]	; 0x54
   b5fc2:	079a      	lsls	r2, r3, #30
   b5fc4:	d505      	bpl.n	b5fd2 <_ZN16OledWingAdafruit5setupEv+0x2e>
		buttonB.attach(BUTTON_B_PIN, INPUT); // Button B has a hardware 100K pull-up on the board
   b5fc6:	2200      	movs	r2, #0
   b5fc8:	2103      	movs	r1, #3
   b5fca:	f104 0060 	add.w	r0, r4, #96	; 0x60
   b5fce:	f7ff ff41 	bl	b5e54 <_ZN8Debounce6attachEi7PinMode>
	}
	if (useButtons & USE_BUTTON_C) {
   b5fd2:	6d63      	ldr	r3, [r4, #84]	; 0x54
   b5fd4:	075b      	lsls	r3, r3, #29
   b5fd6:	d505      	bpl.n	b5fe4 <_ZN16OledWingAdafruit5setupEv+0x40>
		buttonC.attach(BUTTON_C_PIN, INPUT_PULLUP);
   b5fd8:	2202      	movs	r2, #2
   b5fda:	4611      	mov	r1, r2
   b5fdc:	f104 0068 	add.w	r0, r4, #104	; 0x68
   b5fe0:	f7ff ff38 	bl	b5e54 <_ZN8Debounce6attachEi7PinMode>
	}

	// 128x32 = I2C addr 0x3C. Method inherited from Adafruit_SSD1306.
	begin(SSD1306_SWITCHCAPVCC, 0x3C);
   b5fe4:	2301      	movs	r3, #1
   b5fe6:	9300      	str	r3, [sp, #0]
   b5fe8:	223c      	movs	r2, #60	; 0x3c
   b5fea:	2102      	movs	r1, #2
   b5fec:	4620      	mov	r0, r4
   b5fee:	f7ff fc23 	bl	b5838 <_ZN16Adafruit_SSD13065beginEhhbb>
}
   b5ff2:	b002      	add	sp, #8
   b5ff4:	bd10      	pop	{r4, pc}

000b5ff6 <_ZN16OledWingAdafruit4loopEv>:

void OledWingAdafruit::loop() {
   b5ff6:	b510      	push	{r4, lr}
	if (useButtons & USE_BUTTON_A) {
   b5ff8:	6d43      	ldr	r3, [r0, #84]	; 0x54
   b5ffa:	07d9      	lsls	r1, r3, #31
void OledWingAdafruit::loop() {
   b5ffc:	4604      	mov	r4, r0
	if (useButtons & USE_BUTTON_A) {
   b5ffe:	d502      	bpl.n	b6006 <_ZN16OledWingAdafruit4loopEv+0x10>
		buttonA.update();
   b6000:	3058      	adds	r0, #88	; 0x58
   b6002:	f7ff ff34 	bl	b5e6e <_ZN8Debounce6updateEv>
	}
	if (useButtons & USE_BUTTON_B) {
   b6006:	6d63      	ldr	r3, [r4, #84]	; 0x54
   b6008:	079a      	lsls	r2, r3, #30
   b600a:	d503      	bpl.n	b6014 <_ZN16OledWingAdafruit4loopEv+0x1e>
		buttonB.update();
   b600c:	f104 0060 	add.w	r0, r4, #96	; 0x60
   b6010:	f7ff ff2d 	bl	b5e6e <_ZN8Debounce6updateEv>
	}
	if (useButtons & USE_BUTTON_C) {
   b6014:	6d63      	ldr	r3, [r4, #84]	; 0x54
   b6016:	075b      	lsls	r3, r3, #29
   b6018:	d505      	bpl.n	b6026 <_ZN16OledWingAdafruit4loopEv+0x30>
		buttonC.update();
   b601a:	f104 0068 	add.w	r0, r4, #104	; 0x68
	}
}
   b601e:	e8bd 4010 	ldmia.w	sp!, {r4, lr}
		buttonC.update();
   b6022:	f7ff bf24 	b.w	b5e6e <_ZN8Debounce6updateEv>
}
   b6026:	bd10      	pop	{r4, pc}

000b6028 <_ZN16OledWingAdafruit8pressedAEv>:

bool OledWingAdafruit::pressedA() {
	return (useButtons & USE_BUTTON_A) && buttonA.fell();
   b6028:	6d43      	ldr	r3, [r0, #84]	; 0x54
bool OledWingAdafruit::pressedA() {
   b602a:	4602      	mov	r2, r0
	return (useButtons & USE_BUTTON_A) && buttonA.fell();
   b602c:	f013 0001 	ands.w	r0, r3, #1
   b6030:	d003      	beq.n	b603a <_ZN16OledWingAdafruit8pressedAEv+0x12>
   b6032:	f102 0058 	add.w	r0, r2, #88	; 0x58
   b6036:	f7ff bf4a 	b.w	b5ece <_ZN8Debounce4fellEv>
}
   b603a:	4770      	bx	lr

000b603c <_ZN16OledWingAdafruit8pressedBEv>:

bool OledWingAdafruit::pressedB() {
	return (useButtons & USE_BUTTON_B) && buttonB.fell();
   b603c:	6d43      	ldr	r3, [r0, #84]	; 0x54
bool OledWingAdafruit::pressedB() {
   b603e:	4602      	mov	r2, r0
	return (useButtons & USE_BUTTON_B) && buttonB.fell();
   b6040:	f013 0002 	ands.w	r0, r3, #2
   b6044:	d003      	beq.n	b604e <_ZN16OledWingAdafruit8pressedBEv+0x12>
   b6046:	f102 0060 	add.w	r0, r2, #96	; 0x60
   b604a:	f7ff bf40 	b.w	b5ece <_ZN8Debounce4fellEv>
}
   b604e:	4770      	bx	lr

000b6050 <_ZN16OledWingAdafruit8pressedCEv>:

bool OledWingAdafruit::pressedC() {
	return (useButtons & USE_BUTTON_C) && buttonC.fell();
   b6050:	6d43      	ldr	r3, [r0, #84]	; 0x54
bool OledWingAdafruit::pressedC() {
   b6052:	4602      	mov	r2, r0
	return (useButtons & USE_BUTTON_C) && buttonC.fell();
   b6054:	f013 0004 	ands.w	r0, r3, #4
   b6058:	d003      	beq.n	b6062 <_ZN16OledWingAdafruit8pressedCEv+0x12>
   b605a:	f102 0068 	add.w	r0, r2, #104	; 0x68
   b605e:	f7ff bf36 	b.w	b5ece <_ZN8Debounce4fellEv>
}
   b6062:	4770      	bx	lr

000b6064 <os_mutex_create>:
DYNALIB_FN(8, hal_concurrent, os_timer_create, int(os_timer_t*, unsigned, void(*)(os_timer_t), void*, bool, void*))
DYNALIB_FN(9, hal_concurrent, os_timer_destroy, int(os_timer_t, void*))
DYNALIB_FN(10, hal_concurrent, os_timer_get_id, int(os_timer_t, void**))
DYNALIB_FN(11, hal_concurrent, os_timer_change, int(os_timer_t, os_timer_change_t, bool, unsigned, unsigned, void*))

DYNALIB_FN(12, hal_concurrent, os_mutex_create, int(os_mutex_t*))
   b6064:	b508      	push	{r3, lr}
   b6066:	4b02      	ldr	r3, [pc, #8]	; (b6070 <os_mutex_create+0xc>)
   b6068:	681b      	ldr	r3, [r3, #0]
   b606a:	6b1b      	ldr	r3, [r3, #48]	; 0x30
   b606c:	9301      	str	r3, [sp, #4]
   b606e:	bd08      	pop	{r3, pc}
   b6070:	00030248 	.word	0x00030248

000b6074 <os_mutex_destroy>:
DYNALIB_FN(13, hal_concurrent, os_mutex_destroy, int(os_mutex_t))
   b6074:	b508      	push	{r3, lr}
   b6076:	4b02      	ldr	r3, [pc, #8]	; (b6080 <os_mutex_destroy+0xc>)
   b6078:	681b      	ldr	r3, [r3, #0]
   b607a:	6b5b      	ldr	r3, [r3, #52]	; 0x34
   b607c:	9301      	str	r3, [sp, #4]
   b607e:	bd08      	pop	{r3, pc}
   b6080:	00030248 	.word	0x00030248

000b6084 <os_mutex_recursive_create>:
DYNALIB_FN(14, hal_concurrent, os_mutex_lock, int(os_mutex_t))
DYNALIB_FN(15, hal_concurrent, os_mutex_trylock, int(os_mutex_t))
DYNALIB_FN(16, hal_concurrent, os_mutex_unlock, int(os_mutex_t))

DYNALIB_FN(17, hal_concurrent, os_mutex_recursive_create, int(os_mutex_recursive_t*))
   b6084:	b508      	push	{r3, lr}
   b6086:	4b02      	ldr	r3, [pc, #8]	; (b6090 <os_mutex_recursive_create+0xc>)
   b6088:	681b      	ldr	r3, [r3, #0]
   b608a:	6c5b      	ldr	r3, [r3, #68]	; 0x44
   b608c:	9301      	str	r3, [sp, #4]
   b608e:	bd08      	pop	{r3, pc}
   b6090:	00030248 	.word	0x00030248

000b6094 <HAL_RNG_GetRandomNumber>:

DYNALIB_BEGIN(hal)

#if PLATFORM_ID > 3
DYNALIB_FN(0, hal, HAL_RNG_Configuration, void(void))
DYNALIB_FN(1, hal, HAL_RNG_GetRandomNumber, uint32_t(void))
   b6094:	b508      	push	{r3, lr}
   b6096:	4b02      	ldr	r3, [pc, #8]	; (b60a0 <HAL_RNG_GetRandomNumber+0xc>)
   b6098:	681b      	ldr	r3, [r3, #0]
   b609a:	685b      	ldr	r3, [r3, #4]
   b609c:	9301      	str	r3, [sp, #4]
   b609e:	bd08      	pop	{r3, pc}
   b60a0:	00030218 	.word	0x00030218

000b60a4 <HAL_Delay_Microseconds>:
#else
#define BASE_IDX 0
#endif

DYNALIB_FN(BASE_IDX + 0, hal, HAL_Delay_Milliseconds, void(uint32_t))
DYNALIB_FN(BASE_IDX + 1, hal, HAL_Delay_Microseconds, void(uint32_t))
   b60a4:	b508      	push	{r3, lr}
   b60a6:	4b02      	ldr	r3, [pc, #8]	; (b60b0 <HAL_Delay_Microseconds+0xc>)
   b60a8:	681b      	ldr	r3, [r3, #0]
   b60aa:	68db      	ldr	r3, [r3, #12]
   b60ac:	9301      	str	r3, [sp, #4]
   b60ae:	bd08      	pop	{r3, pc}
   b60b0:	00030218 	.word	0x00030218

000b60b4 <HAL_Timer_Get_Milli_Seconds>:
DYNALIB_FN(BASE_IDX + 2, hal, HAL_Timer_Get_Micro_Seconds, system_tick_t(void))
DYNALIB_FN(BASE_IDX + 3, hal, HAL_Timer_Get_Milli_Seconds, system_tick_t(void))
   b60b4:	b508      	push	{r3, lr}
   b60b6:	4b02      	ldr	r3, [pc, #8]	; (b60c0 <HAL_Timer_Get_Milli_Seconds+0xc>)
   b60b8:	681b      	ldr	r3, [r3, #0]
   b60ba:	695b      	ldr	r3, [r3, #20]
   b60bc:	9301      	str	r3, [sp, #4]
   b60be:	bd08      	pop	{r3, pc}
   b60c0:	00030218 	.word	0x00030218

000b60c4 <HAL_Validate_Pin_Function>:
// GNINRAW

DYNALIB_BEGIN(hal_gpio)

DYNALIB_FN(0, hal_gpio, HAL_Pin_Map, Hal_Pin_Info*(void))
DYNALIB_FN(1, hal_gpio, HAL_Validate_Pin_Function, PinFunction(pin_t, PinFunction))
   b60c4:	b508      	push	{r3, lr}
   b60c6:	4b02      	ldr	r3, [pc, #8]	; (b60d0 <HAL_Validate_Pin_Function+0xc>)
   b60c8:	681b      	ldr	r3, [r3, #0]
   b60ca:	685b      	ldr	r3, [r3, #4]
   b60cc:	9301      	str	r3, [sp, #4]
   b60ce:	bd08      	pop	{r3, pc}
   b60d0:	0003022c 	.word	0x0003022c

000b60d4 <HAL_Pin_Mode>:
DYNALIB_FN(2, hal_gpio, HAL_Pin_Mode, void(pin_t, PinMode))
   b60d4:	b508      	push	{r3, lr}
   b60d6:	4b02      	ldr	r3, [pc, #8]	; (b60e0 <HAL_Pin_Mode+0xc>)
   b60d8:	681b      	ldr	r3, [r3, #0]
   b60da:	689b      	ldr	r3, [r3, #8]
   b60dc:	9301      	str	r3, [sp, #4]
   b60de:	bd08      	pop	{r3, pc}
   b60e0:	0003022c 	.word	0x0003022c

000b60e4 <HAL_Get_Pin_Mode>:
DYNALIB_FN(3, hal_gpio, HAL_Get_Pin_Mode, PinMode(pin_t))
   b60e4:	b508      	push	{r3, lr}
   b60e6:	4b02      	ldr	r3, [pc, #8]	; (b60f0 <HAL_Get_Pin_Mode+0xc>)
   b60e8:	681b      	ldr	r3, [r3, #0]
   b60ea:	68db      	ldr	r3, [r3, #12]
   b60ec:	9301      	str	r3, [sp, #4]
   b60ee:	bd08      	pop	{r3, pc}
   b60f0:	0003022c 	.word	0x0003022c

000b60f4 <HAL_GPIO_Write>:
DYNALIB_FN(4, hal_gpio, HAL_GPIO_Write, void(pin_t, uint8_t))
   b60f4:	b508      	push	{r3, lr}
   b60f6:	4b02      	ldr	r3, [pc, #8]	; (b6100 <HAL_GPIO_Write+0xc>)
   b60f8:	681b      	ldr	r3, [r3, #0]
   b60fa:	691b      	ldr	r3, [r3, #16]
   b60fc:	9301      	str	r3, [sp, #4]
   b60fe:	bd08      	pop	{r3, pc}
   b6100:	0003022c 	.word	0x0003022c

000b6104 <HAL_GPIO_Read>:
DYNALIB_FN(5, hal_gpio, HAL_GPIO_Read, int32_t(pin_t))
   b6104:	b508      	push	{r3, lr}
   b6106:	4b02      	ldr	r3, [pc, #8]	; (b6110 <HAL_GPIO_Read+0xc>)
   b6108:	681b      	ldr	r3, [r3, #0]
   b610a:	695b      	ldr	r3, [r3, #20]
   b610c:	9301      	str	r3, [sp, #4]
   b610e:	bd08      	pop	{r3, pc}
   b6110:	0003022c 	.word	0x0003022c

000b6114 <HAL_DAC_Write>:
DYNALIB_FN(6, hal_gpio, HAL_Interrupts_Attach, int(uint16_t, HAL_InterruptHandler, void*, InterruptMode, HAL_InterruptExtraConfiguration*))
DYNALIB_FN(7, hal_gpio, HAL_Interrupts_Detach, int(uint16_t))
DYNALIB_FN(8, hal_gpio, HAL_Interrupts_Enable_All, void(void))
DYNALIB_FN(9, hal_gpio, HAL_Interrupts_Disable_All, void(void))

DYNALIB_FN(10, hal_gpio, HAL_DAC_Write, void(pin_t, uint16_t))
   b6114:	b508      	push	{r3, lr}
   b6116:	4b02      	ldr	r3, [pc, #8]	; (b6120 <HAL_DAC_Write+0xc>)
   b6118:	681b      	ldr	r3, [r3, #0]
   b611a:	6a9b      	ldr	r3, [r3, #40]	; 0x28
   b611c:	9301      	str	r3, [sp, #4]
   b611e:	bd08      	pop	{r3, pc}
   b6120:	0003022c 	.word	0x0003022c

000b6124 <hal_adc_read>:
DYNALIB_FN(11, hal_gpio, hal_adc_set_sample_time, void(uint8_t))
DYNALIB_FN(12, hal_gpio, hal_adc_read, int32_t(uint16_t))
   b6124:	b508      	push	{r3, lr}
   b6126:	4b02      	ldr	r3, [pc, #8]	; (b6130 <hal_adc_read+0xc>)
   b6128:	681b      	ldr	r3, [r3, #0]
   b612a:	6b1b      	ldr	r3, [r3, #48]	; 0x30
   b612c:	9301      	str	r3, [sp, #4]
   b612e:	bd08      	pop	{r3, pc}
   b6130:	0003022c 	.word	0x0003022c

000b6134 <hal_pwm_write_ext>:
DYNALIB_FN(25, hal_gpio, HAL_DAC_Get_Resolution, uint8_t(pin_t))
DYNALIB_FN(26, hal_gpio, HAL_DAC_Set_Resolution, void(pin_t, uint8_t))
DYNALIB_FN(27, hal_gpio, HAL_DAC_Enable_Buffer, void(pin_t pin, uint8_t state))
DYNALIB_FN(28, hal_gpio, hal_pwm_get_resolution, uint8_t(uint16_t))
DYNALIB_FN(29, hal_gpio, hal_pwm_set_resolution, void(uint16_t, uint8_t))
DYNALIB_FN(30, hal_gpio, hal_pwm_write_ext, void(uint16_t, uint32_t))
   b6134:	b508      	push	{r3, lr}
   b6136:	4b02      	ldr	r3, [pc, #8]	; (b6140 <hal_pwm_write_ext+0xc>)
   b6138:	681b      	ldr	r3, [r3, #0]
   b613a:	6f9b      	ldr	r3, [r3, #120]	; 0x78
   b613c:	9301      	str	r3, [sp, #4]
   b613e:	bd08      	pop	{r3, pc}
   b6140:	0003022c 	.word	0x0003022c

000b6144 <hal_i2c_set_speed>:
#define BASE_IDX 16 // Base index for all subsequent functions
#else
#define BASE_IDX 0
#endif

DYNALIB_FN(BASE_IDX + 0, hal_i2c, hal_i2c_set_speed, void(hal_i2c_interface_t, uint32_t, void*))
   b6144:	b508      	push	{r3, lr}
   b6146:	4b02      	ldr	r3, [pc, #8]	; (b6150 <hal_i2c_set_speed+0xc>)
   b6148:	681b      	ldr	r3, [r3, #0]
   b614a:	681b      	ldr	r3, [r3, #0]
   b614c:	9301      	str	r3, [sp, #4]
   b614e:	bd08      	pop	{r3, pc}
   b6150:	00030228 	.word	0x00030228

000b6154 <hal_i2c_begin>:
DYNALIB_FN(BASE_IDX + 1, hal_i2c, hal_i2c_enable_dma_mode, void(hal_i2c_interface_t, bool, void*))
DYNALIB_FN(BASE_IDX + 2, hal_i2c, hal_i2c_stretch_clock, void(hal_i2c_interface_t, bool, void*))
DYNALIB_FN(BASE_IDX + 3, hal_i2c, hal_i2c_begin, void(hal_i2c_interface_t, hal_i2c_mode_t, uint8_t, void*))
   b6154:	b508      	push	{r3, lr}
   b6156:	4b02      	ldr	r3, [pc, #8]	; (b6160 <hal_i2c_begin+0xc>)
   b6158:	681b      	ldr	r3, [r3, #0]
   b615a:	68db      	ldr	r3, [r3, #12]
   b615c:	9301      	str	r3, [sp, #4]
   b615e:	bd08      	pop	{r3, pc}
   b6160:	00030228 	.word	0x00030228

000b6164 <hal_i2c_begin_transmission>:
DYNALIB_FN(BASE_IDX + 4, hal_i2c, hal_i2c_end, void(hal_i2c_interface_t, void*))
DYNALIB_FN(BASE_IDX + 5, hal_i2c, hal_i2c_request, uint32_t(hal_i2c_interface_t, uint8_t, uint8_t, uint8_t, void*))
DYNALIB_FN(BASE_IDX + 6, hal_i2c, hal_i2c_begin_transmission, void(hal_i2c_interface_t, uint8_t, const hal_i2c_transmission_config_t*))
   b6164:	b508      	push	{r3, lr}
   b6166:	4b02      	ldr	r3, [pc, #8]	; (b6170 <hal_i2c_begin_transmission+0xc>)
   b6168:	681b      	ldr	r3, [r3, #0]
   b616a:	699b      	ldr	r3, [r3, #24]
   b616c:	9301      	str	r3, [sp, #4]
   b616e:	bd08      	pop	{r3, pc}
   b6170:	00030228 	.word	0x00030228

000b6174 <hal_i2c_end_transmission>:
DYNALIB_FN(BASE_IDX + 7, hal_i2c, hal_i2c_end_transmission, uint8_t(hal_i2c_interface_t, uint8_t, void*))
   b6174:	b508      	push	{r3, lr}
   b6176:	4b02      	ldr	r3, [pc, #8]	; (b6180 <hal_i2c_end_transmission+0xc>)
   b6178:	681b      	ldr	r3, [r3, #0]
   b617a:	69db      	ldr	r3, [r3, #28]
   b617c:	9301      	str	r3, [sp, #4]
   b617e:	bd08      	pop	{r3, pc}
   b6180:	00030228 	.word	0x00030228

000b6184 <hal_i2c_write>:
DYNALIB_FN(BASE_IDX + 8, hal_i2c, hal_i2c_write, uint32_t(hal_i2c_interface_t, uint8_t, void*))
   b6184:	b508      	push	{r3, lr}
   b6186:	4b02      	ldr	r3, [pc, #8]	; (b6190 <hal_i2c_write+0xc>)
   b6188:	681b      	ldr	r3, [r3, #0]
   b618a:	6a1b      	ldr	r3, [r3, #32]
   b618c:	9301      	str	r3, [sp, #4]
   b618e:	bd08      	pop	{r3, pc}
   b6190:	00030228 	.word	0x00030228

000b6194 <hal_i2c_available>:
DYNALIB_FN(BASE_IDX + 9, hal_i2c, hal_i2c_available, int32_t(hal_i2c_interface_t, void*))
   b6194:	b508      	push	{r3, lr}
   b6196:	4b02      	ldr	r3, [pc, #8]	; (b61a0 <hal_i2c_available+0xc>)
   b6198:	681b      	ldr	r3, [r3, #0]
   b619a:	6a5b      	ldr	r3, [r3, #36]	; 0x24
   b619c:	9301      	str	r3, [sp, #4]
   b619e:	bd08      	pop	{r3, pc}
   b61a0:	00030228 	.word	0x00030228

000b61a4 <hal_i2c_read>:
DYNALIB_FN(BASE_IDX + 10, hal_i2c, hal_i2c_read, int32_t(hal_i2c_interface_t, void*))
   b61a4:	b508      	push	{r3, lr}
   b61a6:	4b02      	ldr	r3, [pc, #8]	; (b61b0 <hal_i2c_read+0xc>)
   b61a8:	681b      	ldr	r3, [r3, #0]
   b61aa:	6a9b      	ldr	r3, [r3, #40]	; 0x28
   b61ac:	9301      	str	r3, [sp, #4]
   b61ae:	bd08      	pop	{r3, pc}
   b61b0:	00030228 	.word	0x00030228

000b61b4 <hal_i2c_peek>:
DYNALIB_FN(BASE_IDX + 11, hal_i2c, hal_i2c_peek, int32_t(hal_i2c_interface_t, void*))
   b61b4:	b508      	push	{r3, lr}
   b61b6:	4b02      	ldr	r3, [pc, #8]	; (b61c0 <hal_i2c_peek+0xc>)
   b61b8:	681b      	ldr	r3, [r3, #0]
   b61ba:	6adb      	ldr	r3, [r3, #44]	; 0x2c
   b61bc:	9301      	str	r3, [sp, #4]
   b61be:	bd08      	pop	{r3, pc}
   b61c0:	00030228 	.word	0x00030228

000b61c4 <hal_i2c_flush>:
DYNALIB_FN(BASE_IDX + 12, hal_i2c, hal_i2c_flush, void(hal_i2c_interface_t, void*))
   b61c4:	b508      	push	{r3, lr}
   b61c6:	4b02      	ldr	r3, [pc, #8]	; (b61d0 <hal_i2c_flush+0xc>)
   b61c8:	681b      	ldr	r3, [r3, #0]
   b61ca:	6b1b      	ldr	r3, [r3, #48]	; 0x30
   b61cc:	9301      	str	r3, [sp, #4]
   b61ce:	bd08      	pop	{r3, pc}
   b61d0:	00030228 	.word	0x00030228

000b61d4 <hal_i2c_is_enabled>:
DYNALIB_FN(BASE_IDX + 13, hal_i2c, hal_i2c_is_enabled, bool(hal_i2c_interface_t, void*))
   b61d4:	b508      	push	{r3, lr}
   b61d6:	4b02      	ldr	r3, [pc, #8]	; (b61e0 <hal_i2c_is_enabled+0xc>)
   b61d8:	681b      	ldr	r3, [r3, #0]
   b61da:	6b5b      	ldr	r3, [r3, #52]	; 0x34
   b61dc:	9301      	str	r3, [sp, #4]
   b61de:	bd08      	pop	{r3, pc}
   b61e0:	00030228 	.word	0x00030228

000b61e4 <hal_i2c_init>:
DYNALIB_FN(BASE_IDX + 14, hal_i2c, hal_i2c_set_callback_on_received, void(hal_i2c_interface_t, void(*)(int), void*))
DYNALIB_FN(BASE_IDX + 15, hal_i2c, hal_i2c_set_callback_on_requested, void(hal_i2c_interface_t, void(*)(void), void*))
DYNALIB_FN(BASE_IDX + 16, hal_i2c, hal_i2c_init, int(hal_i2c_interface_t, const hal_i2c_config_t*))
   b61e4:	b508      	push	{r3, lr}
   b61e6:	4b02      	ldr	r3, [pc, #8]	; (b61f0 <hal_i2c_init+0xc>)
   b61e8:	681b      	ldr	r3, [r3, #0]
   b61ea:	6c1b      	ldr	r3, [r3, #64]	; 0x40
   b61ec:	9301      	str	r3, [sp, #4]
   b61ee:	bd08      	pop	{r3, pc}
   b61f0:	00030228 	.word	0x00030228

000b61f4 <hal_i2c_request_ex>:
DYNALIB_FN(BASE_IDX + 17, hal_i2c, hal_i2c_reset, uint8_t(hal_i2c_interface_t, uint32_t, void*))
DYNALIB_FN(BASE_IDX + 18, hal_i2c, hal_i2c_lock, int32_t(hal_i2c_interface_t, void*))
DYNALIB_FN(BASE_IDX + 19, hal_i2c, hal_i2c_unlock, int32_t(hal_i2c_interface_t, void*))
DYNALIB_FN(BASE_IDX + 20, hal_i2c, hal_i2c_request_ex, int32_t(hal_i2c_interface_t, const hal_i2c_transmission_config_t*, void*))
   b61f4:	b508      	push	{r3, lr}
   b61f6:	4b02      	ldr	r3, [pc, #8]	; (b6200 <hal_i2c_request_ex+0xc>)
   b61f8:	681b      	ldr	r3, [r3, #0]
   b61fa:	6d1b      	ldr	r3, [r3, #80]	; 0x50
   b61fc:	9301      	str	r3, [sp, #4]
   b61fe:	bd08      	pop	{r3, pc}
   b6200:	00030228 	.word	0x00030228

000b6204 <if_index_to_name>:
DYNALIB_FN(0, hal_ifapi, if_get_list, int(struct if_list**))
DYNALIB_FN(1, hal_ifapi, if_free_list, int(struct if_list*))
DYNALIB_FN(2, hal_ifapi, if_get_name_index, int(struct if_nameindex**))
DYNALIB_FN(3, hal_ifapi, if_free_name_index, int(struct if_nameindex*))
DYNALIB_FN(4, hal_ifapi, if_name_to_index, int(const char*, uint8_t*))
DYNALIB_FN(5, hal_ifapi, if_index_to_name, int(uint8_t, char*))
   b6204:	b508      	push	{r3, lr}
   b6206:	4b02      	ldr	r3, [pc, #8]	; (b6210 <if_index_to_name+0xc>)
   b6208:	681b      	ldr	r3, [r3, #0]
   b620a:	695b      	ldr	r3, [r3, #20]
   b620c:	9301      	str	r3, [sp, #4]
   b620e:	bd08      	pop	{r3, pc}
   b6210:	0003026c 	.word	0x0003026c

000b6214 <inet_inet_ntop>:
DYNALIB_FN(0, hal_inet, inet_inet_addr, in_addr_t(const char*))
DYNALIB_FN(1, hal_inet, inet_inet_aton, int(const char*, struct in_addr*))
DYNALIB_FN(2, hal_inet, inet_inet_network, in_addr_t(const char*))
DYNALIB_FN(3, hal_inet, inet_inet_ntoa, char*(struct in_addr))
DYNALIB_FN(4, hal_inet, inet_inet_ntoa_r, char*(struct in_addr, char*, socklen_t))
DYNALIB_FN(5, hal_inet, inet_inet_ntop, const char*(int, const void*, char*, socklen_t))
   b6214:	b508      	push	{r3, lr}
   b6216:	4b02      	ldr	r3, [pc, #8]	; (b6220 <inet_inet_ntop+0xc>)
   b6218:	681b      	ldr	r3, [r3, #0]
   b621a:	695b      	ldr	r3, [r3, #20]
   b621c:	9301      	str	r3, [sp, #4]
   b621e:	bd08      	pop	{r3, pc}
   b6220:	00030264 	.word	0x00030264

000b6224 <inet_htonl>:
DYNALIB_FN(6, hal_inet, inet_inet_pton, int(int, const char*, void*))
DYNALIB_FN(7, hal_inet, inet_ntohl, uint32_t(uint32_t))
DYNALIB_FN(8, hal_inet, inet_htonl, uint32_t(uint32_t))
   b6224:	b508      	push	{r3, lr}
   b6226:	4b02      	ldr	r3, [pc, #8]	; (b6230 <inet_htonl+0xc>)
   b6228:	681b      	ldr	r3, [r3, #0]
   b622a:	6a1b      	ldr	r3, [r3, #32]
   b622c:	9301      	str	r3, [sp, #4]
   b622e:	bd08      	pop	{r3, pc}
   b6230:	00030264 	.word	0x00030264

000b6234 <inet_htons>:
DYNALIB_FN(9, hal_inet, inet_ntohs, uint16_t(uint16_t))
DYNALIB_FN(10, hal_inet, inet_htons, uint16_t(uint16_t))
   b6234:	b508      	push	{r3, lr}
   b6236:	4b02      	ldr	r3, [pc, #8]	; (b6240 <inet_htons+0xc>)
   b6238:	681b      	ldr	r3, [r3, #0]
   b623a:	6a9b      	ldr	r3, [r3, #40]	; 0x28
   b623c:	9301      	str	r3, [sp, #4]
   b623e:	bd08      	pop	{r3, pc}
   b6240:	00030264 	.word	0x00030264

000b6244 <netdb_freeaddrinfo>:

DYNALIB_BEGIN(hal_netdb)

DYNALIB_FN(0, hal_netdb, netdb_gethostbyname, struct hostent*(const char*))
DYNALIB_FN(1, hal_netdb, netdb_gethostbyname_r, int(const char*, struct hostent*, char*, size_t, struct hostent**, int*))
DYNALIB_FN(2, hal_netdb, netdb_freeaddrinfo, void(struct addrinfo*))
   b6244:	b508      	push	{r3, lr}
   b6246:	4b02      	ldr	r3, [pc, #8]	; (b6250 <netdb_freeaddrinfo+0xc>)
   b6248:	681b      	ldr	r3, [r3, #0]
   b624a:	689b      	ldr	r3, [r3, #8]
   b624c:	9301      	str	r3, [sp, #4]
   b624e:	bd08      	pop	{r3, pc}
   b6250:	00030268 	.word	0x00030268

000b6254 <netdb_getaddrinfo>:
DYNALIB_FN(3, hal_netdb, netdb_getaddrinfo, int(const char*, const char*, const struct addrinfo*, struct addrinfo**))
   b6254:	b508      	push	{r3, lr}
   b6256:	4b02      	ldr	r3, [pc, #8]	; (b6260 <netdb_getaddrinfo+0xc>)
   b6258:	681b      	ldr	r3, [r3, #0]
   b625a:	68db      	ldr	r3, [r3, #12]
   b625c:	9301      	str	r3, [sp, #4]
   b625e:	bd08      	pop	{r3, pc}
   b6260:	00030268 	.word	0x00030268

000b6264 <sock_setsockopt>:
DYNALIB_FN(1, hal_socket, sock_bind, int(int, const struct sockaddr*, socklen_t))
DYNALIB_FN(2, hal_socket, sock_shutdown, int(int, int))
DYNALIB_FN(3, hal_socket, sock_getpeername, int(int, struct sockaddr*, socklen_t*))
DYNALIB_FN(4, hal_socket, sock_getsockname, int(int, struct sockaddr*, socklen_t*))
DYNALIB_FN(5, hal_socket, sock_getsockopt, int(int, int, int, void*, socklen_t*))
DYNALIB_FN(6, hal_socket, sock_setsockopt, int(int, int, int, const void*, socklen_t))
   b6264:	b508      	push	{r3, lr}
   b6266:	4b02      	ldr	r3, [pc, #8]	; (b6270 <sock_setsockopt+0xc>)
   b6268:	681b      	ldr	r3, [r3, #0]
   b626a:	699b      	ldr	r3, [r3, #24]
   b626c:	9301      	str	r3, [sp, #4]
   b626e:	bd08      	pop	{r3, pc}
   b6270:	00030238 	.word	0x00030238

000b6274 <sock_close>:
DYNALIB_FN(7, hal_socket, sock_close, int(int))
   b6274:	b508      	push	{r3, lr}
   b6276:	4b02      	ldr	r3, [pc, #8]	; (b6280 <sock_close+0xc>)
   b6278:	681b      	ldr	r3, [r3, #0]
   b627a:	69db      	ldr	r3, [r3, #28]
   b627c:	9301      	str	r3, [sp, #4]
   b627e:	bd08      	pop	{r3, pc}
   b6280:	00030238 	.word	0x00030238

000b6284 <sock_connect>:
DYNALIB_FN(8, hal_socket, sock_connect, int(int, const struct sockaddr*, socklen_t))
   b6284:	b508      	push	{r3, lr}
   b6286:	4b02      	ldr	r3, [pc, #8]	; (b6290 <sock_connect+0xc>)
   b6288:	681b      	ldr	r3, [r3, #0]
   b628a:	6a1b      	ldr	r3, [r3, #32]
   b628c:	9301      	str	r3, [sp, #4]
   b628e:	bd08      	pop	{r3, pc}
   b6290:	00030238 	.word	0x00030238

000b6294 <sock_recv>:
DYNALIB_FN(9, hal_socket, sock_listen, int(int, int))
DYNALIB_FN(10, hal_socket, sock_recv, int(int, void*, size_t, int))
   b6294:	b508      	push	{r3, lr}
   b6296:	4b02      	ldr	r3, [pc, #8]	; (b62a0 <sock_recv+0xc>)
   b6298:	681b      	ldr	r3, [r3, #0]
   b629a:	6a9b      	ldr	r3, [r3, #40]	; 0x28
   b629c:	9301      	str	r3, [sp, #4]
   b629e:	bd08      	pop	{r3, pc}
   b62a0:	00030238 	.word	0x00030238

000b62a4 <sock_send>:
DYNALIB_FN(11, hal_socket, sock_recvfrom, int(int, void*, size_t, int, struct sockaddr*, socklen_t*))
DYNALIB_FN(12, hal_socket, sock_send, int(int, const void*, size_t, int))
   b62a4:	b508      	push	{r3, lr}
   b62a6:	4b02      	ldr	r3, [pc, #8]	; (b62b0 <sock_send+0xc>)
   b62a8:	681b      	ldr	r3, [r3, #0]
   b62aa:	6b1b      	ldr	r3, [r3, #48]	; 0x30
   b62ac:	9301      	str	r3, [sp, #4]
   b62ae:	bd08      	pop	{r3, pc}
   b62b0:	00030238 	.word	0x00030238

000b62b4 <sock_socket>:
DYNALIB_FN(13, hal_socket, sock_sendto, int(int, const void*, size_t, int, const struct sockaddr*, socklen_t))
DYNALIB_FN(14, hal_socket, sock_socket, int(int, int, int))
   b62b4:	b508      	push	{r3, lr}
   b62b6:	4b02      	ldr	r3, [pc, #8]	; (b62c0 <sock_socket+0xc>)
   b62b8:	681b      	ldr	r3, [r3, #0]
   b62ba:	6b9b      	ldr	r3, [r3, #56]	; 0x38
   b62bc:	9301      	str	r3, [sp, #4]
   b62be:	bd08      	pop	{r3, pc}
   b62c0:	00030238 	.word	0x00030238

000b62c4 <hal_spi_begin>:
// New HAL functions must be added to the end of this list.
// GNINRAW

DYNALIB_BEGIN(hal_spi)

DYNALIB_FN(0, hal_spi, hal_spi_begin, void(hal_spi_interface_t, uint16_t))
   b62c4:	b508      	push	{r3, lr}
   b62c6:	4b02      	ldr	r3, [pc, #8]	; (b62d0 <hal_spi_begin+0xc>)
   b62c8:	681b      	ldr	r3, [r3, #0]
   b62ca:	681b      	ldr	r3, [r3, #0]
   b62cc:	9301      	str	r3, [sp, #4]
   b62ce:	bd08      	pop	{r3, pc}
   b62d0:	00030230 	.word	0x00030230

000b62d4 <hal_spi_transfer>:
DYNALIB_FN(1, hal_spi, hal_spi_end, void(hal_spi_interface_t))
DYNALIB_FN(2, hal_spi, hal_spi_set_bit_order, void(hal_spi_interface_t, uint8_t))
DYNALIB_FN(3, hal_spi, hal_spi_set_data_mode, void(hal_spi_interface_t, uint8_t))
DYNALIB_FN(4, hal_spi, hal_spi_set_clock_divider, void(hal_spi_interface_t, uint8_t))
DYNALIB_FN(5, hal_spi, hal_spi_transfer, uint16_t(hal_spi_interface_t, uint16_t))
   b62d4:	b508      	push	{r3, lr}
   b62d6:	4b02      	ldr	r3, [pc, #8]	; (b62e0 <hal_spi_transfer+0xc>)
   b62d8:	681b      	ldr	r3, [r3, #0]
   b62da:	695b      	ldr	r3, [r3, #20]
   b62dc:	9301      	str	r3, [sp, #4]
   b62de:	bd08      	pop	{r3, pc}
   b62e0:	00030230 	.word	0x00030230

000b62e4 <hal_spi_init>:
DYNALIB_FN(6, hal_spi, hal_spi_is_enabled_deprecated, bool(void))
DYNALIB_FN(7, hal_spi, hal_spi_init, void(hal_spi_interface_t))
   b62e4:	b508      	push	{r3, lr}
   b62e6:	4b02      	ldr	r3, [pc, #8]	; (b62f0 <hal_spi_init+0xc>)
   b62e8:	681b      	ldr	r3, [r3, #0]
   b62ea:	69db      	ldr	r3, [r3, #28]
   b62ec:	9301      	str	r3, [sp, #4]
   b62ee:	bd08      	pop	{r3, pc}
   b62f0:	00030230 	.word	0x00030230

000b62f4 <hal_spi_is_enabled>:
DYNALIB_FN(8, hal_spi, hal_spi_is_enabled, bool(hal_spi_interface_t))
   b62f4:	b508      	push	{r3, lr}
   b62f6:	4b02      	ldr	r3, [pc, #8]	; (b6300 <hal_spi_is_enabled+0xc>)
   b62f8:	681b      	ldr	r3, [r3, #0]
   b62fa:	6a1b      	ldr	r3, [r3, #32]
   b62fc:	9301      	str	r3, [sp, #4]
   b62fe:	bd08      	pop	{r3, pc}
   b6300:	00030230 	.word	0x00030230

000b6304 <hal_spi_info>:
DYNALIB_FN(9, hal_spi, hal_spi_info, void(hal_spi_interface_t, hal_spi_info_t*, void*))
   b6304:	b508      	push	{r3, lr}
   b6306:	4b02      	ldr	r3, [pc, #8]	; (b6310 <hal_spi_info+0xc>)
   b6308:	681b      	ldr	r3, [r3, #0]
   b630a:	6a5b      	ldr	r3, [r3, #36]	; 0x24
   b630c:	9301      	str	r3, [sp, #4]
   b630e:	bd08      	pop	{r3, pc}
   b6310:	00030230 	.word	0x00030230

000b6314 <hal_spi_set_settings>:
DYNALIB_FN(10, hal_spi, hal_spi_transfer_dma, void(hal_spi_interface_t, const void*, void*, uint32_t, hal_spi_dma_user_callback))
DYNALIB_FN(11, hal_spi, hal_spi_begin_ext, void(hal_spi_interface_t, hal_spi_mode_t, uint16_t, void*))
DYNALIB_FN(12, hal_spi, hal_spi_set_callback_on_selected, void(hal_spi_interface_t, hal_spi_select_user_callback, void*))
DYNALIB_FN(13, hal_spi, hal_spi_transfer_dma_cancel, void(hal_spi_interface_t))
DYNALIB_FN(14, hal_spi, hal_spi_transfer_dma_status, int32_t(hal_spi_interface_t, hal_spi_transfer_status_t*))
DYNALIB_FN(15, hal_spi, hal_spi_set_settings, int32_t(hal_spi_interface_t, uint8_t, uint8_t, uint8_t, uint8_t, void*))
   b6314:	b508      	push	{r3, lr}
   b6316:	4b02      	ldr	r3, [pc, #8]	; (b6320 <hal_spi_set_settings+0xc>)
   b6318:	681b      	ldr	r3, [r3, #0]
   b631a:	6bdb      	ldr	r3, [r3, #60]	; 0x3c
   b631c:	9301      	str	r3, [sp, #4]
   b631e:	bd08      	pop	{r3, pc}
   b6320:	00030230 	.word	0x00030230

000b6324 <hal_spi_acquire>:
#if HAL_PLATFORM_SPI_HAL_THREAD_SAFETY
DYNALIB_FN(16, hal_spi, hal_spi_acquire, int32_t(hal_spi_interface_t, const hal_spi_acquire_config_t*))
   b6324:	b508      	push	{r3, lr}
   b6326:	4b02      	ldr	r3, [pc, #8]	; (b6330 <hal_spi_acquire+0xc>)
   b6328:	681b      	ldr	r3, [r3, #0]
   b632a:	6c1b      	ldr	r3, [r3, #64]	; 0x40
   b632c:	9301      	str	r3, [sp, #4]
   b632e:	bd08      	pop	{r3, pc}
   b6330:	00030230 	.word	0x00030230

000b6334 <hal_spi_release>:
DYNALIB_FN(17, hal_spi, hal_spi_release, int32_t(hal_spi_interface_t, void*))
   b6334:	b508      	push	{r3, lr}
   b6336:	4b02      	ldr	r3, [pc, #8]	; (b6340 <hal_spi_release+0xc>)
   b6338:	681b      	ldr	r3, [r3, #0]
   b633a:	6c5b      	ldr	r3, [r3, #68]	; 0x44
   b633c:	9301      	str	r3, [sp, #4]
   b633e:	bd08      	pop	{r3, pc}
   b6340:	00030230 	.word	0x00030230

000b6344 <hal_usart_write>:
#endif

DYNALIB_FN(BASE_IDX + 0, hal_usart, hal_usart_init, void(hal_usart_interface_t, hal_usart_ring_buffer_t*, hal_usart_ring_buffer_t*))
DYNALIB_FN(BASE_IDX + 1, hal_usart, hal_usart_begin, void(hal_usart_interface_t, uint32_t))
DYNALIB_FN(BASE_IDX + 2, hal_usart, hal_usart_end, void(hal_usart_interface_t))
DYNALIB_FN(BASE_IDX + 3, hal_usart, hal_usart_write, uint32_t(hal_usart_interface_t, uint8_t))
   b6344:	b508      	push	{r3, lr}
   b6346:	4b02      	ldr	r3, [pc, #8]	; (b6350 <hal_usart_write+0xc>)
   b6348:	681b      	ldr	r3, [r3, #0]
   b634a:	68db      	ldr	r3, [r3, #12]
   b634c:	9301      	str	r3, [sp, #4]
   b634e:	bd08      	pop	{r3, pc}
   b6350:	0003023c 	.word	0x0003023c

000b6354 <hal_usart_available>:
DYNALIB_FN(BASE_IDX + 4, hal_usart, hal_usart_available, int32_t(hal_usart_interface_t))
   b6354:	b508      	push	{r3, lr}
   b6356:	4b02      	ldr	r3, [pc, #8]	; (b6360 <hal_usart_available+0xc>)
   b6358:	681b      	ldr	r3, [r3, #0]
   b635a:	691b      	ldr	r3, [r3, #16]
   b635c:	9301      	str	r3, [sp, #4]
   b635e:	bd08      	pop	{r3, pc}
   b6360:	0003023c 	.word	0x0003023c

000b6364 <hal_usart_read>:
DYNALIB_FN(BASE_IDX + 5, hal_usart, hal_usart_read, int32_t(hal_usart_interface_t))
   b6364:	b508      	push	{r3, lr}
   b6366:	4b02      	ldr	r3, [pc, #8]	; (b6370 <hal_usart_read+0xc>)
   b6368:	681b      	ldr	r3, [r3, #0]
   b636a:	695b      	ldr	r3, [r3, #20]
   b636c:	9301      	str	r3, [sp, #4]
   b636e:	bd08      	pop	{r3, pc}
   b6370:	0003023c 	.word	0x0003023c

000b6374 <hal_usart_peek>:
DYNALIB_FN(BASE_IDX + 6, hal_usart, hal_usart_peek, int32_t(hal_usart_interface_t))
   b6374:	b508      	push	{r3, lr}
   b6376:	4b02      	ldr	r3, [pc, #8]	; (b6380 <hal_usart_peek+0xc>)
   b6378:	681b      	ldr	r3, [r3, #0]
   b637a:	699b      	ldr	r3, [r3, #24]
   b637c:	9301      	str	r3, [sp, #4]
   b637e:	bd08      	pop	{r3, pc}
   b6380:	0003023c 	.word	0x0003023c

000b6384 <hal_usart_flush>:
DYNALIB_FN(BASE_IDX + 7, hal_usart, hal_usart_flush, void(hal_usart_interface_t))
   b6384:	b508      	push	{r3, lr}
   b6386:	4b02      	ldr	r3, [pc, #8]	; (b6390 <hal_usart_flush+0xc>)
   b6388:	681b      	ldr	r3, [r3, #0]
   b638a:	69db      	ldr	r3, [r3, #28]
   b638c:	9301      	str	r3, [sp, #4]
   b638e:	bd08      	pop	{r3, pc}
   b6390:	0003023c 	.word	0x0003023c

000b6394 <hal_usart_is_enabled>:
DYNALIB_FN(BASE_IDX + 8, hal_usart, hal_usart_is_enabled, bool(hal_usart_interface_t))
   b6394:	b508      	push	{r3, lr}
   b6396:	4b02      	ldr	r3, [pc, #8]	; (b63a0 <hal_usart_is_enabled+0xc>)
   b6398:	681b      	ldr	r3, [r3, #0]
   b639a:	6a1b      	ldr	r3, [r3, #32]
   b639c:	9301      	str	r3, [sp, #4]
   b639e:	bd08      	pop	{r3, pc}
   b63a0:	0003023c 	.word	0x0003023c

000b63a4 <hal_usart_available_data_for_write>:
DYNALIB_FN(BASE_IDX + 9, hal_usart, hal_usart_half_duplex, void(hal_usart_interface_t, bool))
DYNALIB_FN(BASE_IDX + 10, hal_usart, hal_usart_available_data_for_write, int32_t(hal_usart_interface_t))
   b63a4:	b508      	push	{r3, lr}
   b63a6:	4b02      	ldr	r3, [pc, #8]	; (b63b0 <hal_usart_available_data_for_write+0xc>)
   b63a8:	681b      	ldr	r3, [r3, #0]
   b63aa:	6a9b      	ldr	r3, [r3, #40]	; 0x28
   b63ac:	9301      	str	r3, [sp, #4]
   b63ae:	bd08      	pop	{r3, pc}
   b63b0:	0003023c 	.word	0x0003023c

000b63b4 <hal_usart_init_ex>:
DYNALIB_FN(BASE_IDX2 + 0, hal_usart, hal_usart_begin_config, void(hal_usart_interface_t serial, uint32_t baud, uint32_t config, void *ptr))
DYNALIB_FN(BASE_IDX2 + 1, hal_usart, hal_usart_write_nine_bits, uint32_t(hal_usart_interface_t serial, uint16_t data))
DYNALIB_FN(BASE_IDX2 + 2, hal_usart, hal_usart_send_break, void(hal_usart_interface_t, void*))
DYNALIB_FN(BASE_IDX2 + 3, hal_usart, hal_usart_break_detected, uint8_t(hal_usart_interface_t))
DYNALIB_FN(BASE_IDX2 + 4, hal_usart, hal_usart_sleep, int(hal_usart_interface_t serial, bool, void*))
DYNALIB_FN(BASE_IDX2 + 5, hal_usart, hal_usart_init_ex, int(hal_usart_interface_t, const hal_usart_buffer_config_t*, void*))
   b63b4:	b508      	push	{r3, lr}
   b63b6:	4b02      	ldr	r3, [pc, #8]	; (b63c0 <hal_usart_init_ex+0xc>)
   b63b8:	681b      	ldr	r3, [r3, #0]
   b63ba:	6c1b      	ldr	r3, [r3, #64]	; 0x40
   b63bc:	9301      	str	r3, [sp, #4]
   b63be:	bd08      	pop	{r3, pc}
   b63c0:	0003023c 	.word	0x0003023c

000b63c4 <HAL_USB_USART_Init>:
#endif

DYNALIB_BEGIN(hal_usb)

#ifdef USB_CDC_ENABLE
DYNALIB_FN(0, hal_usb, HAL_USB_USART_Init, void(HAL_USB_USART_Serial, const HAL_USB_USART_Config*))
   b63c4:	b508      	push	{r3, lr}
   b63c6:	4b02      	ldr	r3, [pc, #8]	; (b63d0 <HAL_USB_USART_Init+0xc>)
   b63c8:	681b      	ldr	r3, [r3, #0]
   b63ca:	681b      	ldr	r3, [r3, #0]
   b63cc:	9301      	str	r3, [sp, #4]
   b63ce:	bd08      	pop	{r3, pc}
   b63d0:	0003024c 	.word	0x0003024c

000b63d4 <HAL_USB_USART_Begin>:
DYNALIB_FN(1, hal_usb, HAL_USB_USART_Begin, void(HAL_USB_USART_Serial, uint32_t, void *))
   b63d4:	b508      	push	{r3, lr}
   b63d6:	4b02      	ldr	r3, [pc, #8]	; (b63e0 <HAL_USB_USART_Begin+0xc>)
   b63d8:	681b      	ldr	r3, [r3, #0]
   b63da:	685b      	ldr	r3, [r3, #4]
   b63dc:	9301      	str	r3, [sp, #4]
   b63de:	bd08      	pop	{r3, pc}
   b63e0:	0003024c 	.word	0x0003024c

000b63e4 <HAL_USB_USART_Available_Data>:
DYNALIB_FN(2, hal_usb, HAL_USB_USART_End, void(HAL_USB_USART_Serial))
DYNALIB_FN(3, hal_usb, HAL_USB_USART_Baud_Rate, unsigned int(HAL_USB_USART_Serial))
DYNALIB_FN(4, hal_usb, HAL_USB_USART_Available_Data, int32_t(HAL_USB_USART_Serial))
   b63e4:	b508      	push	{r3, lr}
   b63e6:	4b02      	ldr	r3, [pc, #8]	; (b63f0 <HAL_USB_USART_Available_Data+0xc>)
   b63e8:	681b      	ldr	r3, [r3, #0]
   b63ea:	691b      	ldr	r3, [r3, #16]
   b63ec:	9301      	str	r3, [sp, #4]
   b63ee:	bd08      	pop	{r3, pc}
   b63f0:	0003024c 	.word	0x0003024c

000b63f4 <HAL_USB_USART_Available_Data_For_Write>:
DYNALIB_FN(5, hal_usb, HAL_USB_USART_Available_Data_For_Write, int32_t(HAL_USB_USART_Serial))
   b63f4:	b508      	push	{r3, lr}
   b63f6:	4b02      	ldr	r3, [pc, #8]	; (b6400 <HAL_USB_USART_Available_Data_For_Write+0xc>)
   b63f8:	681b      	ldr	r3, [r3, #0]
   b63fa:	695b      	ldr	r3, [r3, #20]
   b63fc:	9301      	str	r3, [sp, #4]
   b63fe:	bd08      	pop	{r3, pc}
   b6400:	0003024c 	.word	0x0003024c

000b6404 <HAL_USB_USART_Receive_Data>:
DYNALIB_FN(6, hal_usb, HAL_USB_USART_Receive_Data, int32_t(HAL_USB_USART_Serial, uint8_t))
   b6404:	b508      	push	{r3, lr}
   b6406:	4b02      	ldr	r3, [pc, #8]	; (b6410 <HAL_USB_USART_Receive_Data+0xc>)
   b6408:	681b      	ldr	r3, [r3, #0]
   b640a:	699b      	ldr	r3, [r3, #24]
   b640c:	9301      	str	r3, [sp, #4]
   b640e:	bd08      	pop	{r3, pc}
   b6410:	0003024c 	.word	0x0003024c

000b6414 <HAL_USB_USART_Send_Data>:
DYNALIB_FN(7, hal_usb, HAL_USB_USART_Send_Data, int32_t(HAL_USB_USART_Serial, uint8_t))
   b6414:	b508      	push	{r3, lr}
   b6416:	4b02      	ldr	r3, [pc, #8]	; (b6420 <HAL_USB_USART_Send_Data+0xc>)
   b6418:	681b      	ldr	r3, [r3, #0]
   b641a:	69db      	ldr	r3, [r3, #28]
   b641c:	9301      	str	r3, [sp, #4]
   b641e:	bd08      	pop	{r3, pc}
   b6420:	0003024c 	.word	0x0003024c

000b6424 <HAL_USB_USART_Flush_Data>:
DYNALIB_FN(8, hal_usb, HAL_USB_USART_Flush_Data, void(HAL_USB_USART_Serial))
   b6424:	b508      	push	{r3, lr}
   b6426:	4b02      	ldr	r3, [pc, #8]	; (b6430 <HAL_USB_USART_Flush_Data+0xc>)
   b6428:	681b      	ldr	r3, [r3, #0]
   b642a:	6a1b      	ldr	r3, [r3, #32]
   b642c:	9301      	str	r3, [sp, #4]
   b642e:	bd08      	pop	{r3, pc}
   b6430:	0003024c 	.word	0x0003024c

000b6434 <panic_>:
DYNALIB_FN(9, services, LED_Toggle, void(Led_TypeDef))
DYNALIB_FN(10, services, LED_Fade, void(Led_TypeDef))
DYNALIB_FN(11, services, Get_LED_Brightness, uint8_t(void))

DYNALIB_FN(12, services, set_logger_output, void(debug_output_fn, LoggerOutputLevel)) // Deprecated
DYNALIB_FN(13, services, panic_, void(ePanicCode, void*, void(*)(uint32_t)))
   b6434:	b508      	push	{r3, lr}
   b6436:	4b02      	ldr	r3, [pc, #8]	; (b6440 <panic_+0xc>)
   b6438:	681b      	ldr	r3, [r3, #0]
   b643a:	6b5b      	ldr	r3, [r3, #52]	; 0x34
   b643c:	9301      	str	r3, [sp, #4]
   b643e:	bd08      	pop	{r3, pc}
   b6440:	00030260 	.word	0x00030260

000b6444 <log_message>:
DYNALIB_FN(16, services, log_print_, void(int, int, const char*, const char*, const char*, ...)) // Deprecated
DYNALIB_FN(17, services, LED_RGB_SetChangeHandler, void(led_update_handler_fn, void*))
DYNALIB_FN(18, services, log_print_direct_, void(int, void*, const char*, ...)) // Deprecated
DYNALIB_FN(19, services, LED_GetColor, uint32_t(uint32_t, void*))

DYNALIB_FN(20, services, log_message, void(int, const char*, LogAttributes*, void*, const char*, ...))
   b6444:	b508      	push	{r3, lr}
   b6446:	4b02      	ldr	r3, [pc, #8]	; (b6450 <log_message+0xc>)
   b6448:	681b      	ldr	r3, [r3, #0]
   b644a:	6d1b      	ldr	r3, [r3, #80]	; 0x50
   b644c:	9301      	str	r3, [sp, #4]
   b644e:	bd08      	pop	{r3, pc}
   b6450:	00030260 	.word	0x00030260

000b6454 <set_system_mode>:
#endif

DYNALIB_BEGIN(system)

DYNALIB_FN(0, system, system_mode, System_Mode_TypeDef(void))
DYNALIB_FN(1, system, set_system_mode, void(System_Mode_TypeDef))
   b6454:	b508      	push	{r3, lr}
   b6456:	4b02      	ldr	r3, [pc, #8]	; (b6460 <set_system_mode+0xc>)
   b6458:	681b      	ldr	r3, [r3, #0]
   b645a:	685b      	ldr	r3, [r3, #4]
   b645c:	9301      	str	r3, [sp, #4]
   b645e:	bd08      	pop	{r3, pc}
   b6460:	00030220 	.word	0x00030220

000b6464 <system_delay_ms>:

DYNALIB_FN(2, system, set_ymodem_serial_flash_update_handler, void(ymodem_serial_flash_update_handler))
DYNALIB_FN(3, system, system_firmwareUpdate, bool(Stream*, void*))
DYNALIB_FN(4, system, system_fileTransfer, bool(system_file_transfer_t*, void*))

DYNALIB_FN(5, system, system_delay_ms, void(unsigned long, bool))
   b6464:	b508      	push	{r3, lr}
   b6466:	4b02      	ldr	r3, [pc, #8]	; (b6470 <system_delay_ms+0xc>)
   b6468:	681b      	ldr	r3, [r3, #0]
   b646a:	695b      	ldr	r3, [r3, #20]
   b646c:	9301      	str	r3, [sp, #4]
   b646e:	bd08      	pop	{r3, pc}
   b6470:	00030220 	.word	0x00030220

000b6474 <system_thread_set_state>:
DYNALIB_FN(6, system, system_sleep, int(Spark_Sleep_TypeDef, long, uint32_t, void*))
DYNALIB_FN(7, system, system_sleep_pin, int(uint16_t, uint16_t, long, uint32_t, void*))
DYNALIB_FN(8, system, system_subscribe_event, int(system_event_t, system_event_handler_t*, SystemEventContext*))
DYNALIB_FN(9, system, system_unsubscribe_event, void(system_event_t, system_event_handler_t*, const SystemEventContext*))
DYNALIB_FN(10, system, system_button_pushed_duration, uint16_t(uint8_t, void*))
DYNALIB_FN(11, system, system_thread_set_state, void(spark::feature::State, void*))
   b6474:	b508      	push	{r3, lr}
   b6476:	4b02      	ldr	r3, [pc, #8]	; (b6480 <system_thread_set_state+0xc>)
   b6478:	681b      	ldr	r3, [r3, #0]
   b647a:	6adb      	ldr	r3, [r3, #44]	; 0x2c
   b647c:	9301      	str	r3, [sp, #4]
   b647e:	bd08      	pop	{r3, pc}
   b6480:	00030220 	.word	0x00030220

000b6484 <system_ctrl_set_app_request_handler>:
DYNALIB_FN(BASE_IDX + 6, system, led_pattern_period, uint16_t(int, int, void*))
DYNALIB_FN(BASE_IDX + 7, system, system_set_tester_handlers, int(system_tester_handlers_t*, void*))
DYNALIB_FN(BASE_IDX + 8, system, system_format_diag_data, int(const uint16_t*, size_t, unsigned, appender_fn, void*, void*))

// Control requests
DYNALIB_FN(BASE_IDX + 9, system, system_ctrl_set_app_request_handler, int(ctrl_request_handler_fn, void*))
   b6484:	b508      	push	{r3, lr}
   b6486:	4b03      	ldr	r3, [pc, #12]	; (b6494 <system_ctrl_set_app_request_handler+0x10>)
   b6488:	681b      	ldr	r3, [r3, #0]
   b648a:	f8d3 3088 	ldr.w	r3, [r3, #136]	; 0x88
   b648e:	9301      	str	r3, [sp, #4]
   b6490:	bd08      	pop	{r3, pc}
   b6492:	0000      	.short	0x0000
   b6494:	00030220 	.word	0x00030220

000b6498 <system_ctrl_set_result>:
DYNALIB_FN(BASE_IDX + 10, system, system_ctrl_alloc_reply_data, int(ctrl_request*, size_t, void*))
DYNALIB_FN(BASE_IDX + 11, system, system_ctrl_free_request_data, void(ctrl_request*, void*))
DYNALIB_FN(BASE_IDX + 12, system, system_ctrl_set_result, void(ctrl_request*, int, ctrl_completion_handler_fn, void*, void*))
   b6498:	b508      	push	{r3, lr}
   b649a:	4b03      	ldr	r3, [pc, #12]	; (b64a8 <system_ctrl_set_result+0x10>)
   b649c:	681b      	ldr	r3, [r3, #0]
   b649e:	f8d3 3094 	ldr.w	r3, [r3, #148]	; 0x94
   b64a2:	9301      	str	r3, [sp, #4]
   b64a4:	bd08      	pop	{r3, pc}
   b64a6:	0000      	.short	0x0000
   b64a8:	00030220 	.word	0x00030220

000b64ac <spark_process>:

DYNALIB_BEGIN(system_cloud)

DYNALIB_FN(0, system_cloud, spark_variable, bool(const char*, const void*, Spark_Data_TypeDef, spark_variable_t*))
DYNALIB_FN(1, system_cloud, spark_function, bool(const char*, p_user_function_int_str_t, void*))
DYNALIB_FN(2, system_cloud, spark_process, void(void))
   b64ac:	b508      	push	{r3, lr}
   b64ae:	4b02      	ldr	r3, [pc, #8]	; (b64b8 <spark_process+0xc>)
   b64b0:	681b      	ldr	r3, [r3, #0]
   b64b2:	689b      	ldr	r3, [r3, #8]
   b64b4:	9301      	str	r3, [sp, #4]
   b64b6:	bd08      	pop	{r3, pc}
   b64b8:	00030244 	.word	0x00030244

000b64bc <spark_set_random_seed_from_cloud_handler>:
DYNALIB_FN(10, system_cloud, spark_unsubscribe, void(void*))
DYNALIB_FN(11, system_cloud, spark_sync_time, bool(void*))
DYNALIB_FN(12, system_cloud, spark_sync_time_pending, bool(void*))
DYNALIB_FN(13, system_cloud, spark_sync_time_last, system_tick_t(time32_t*, time_t*))
DYNALIB_FN(14, system_cloud, spark_set_connection_property, int(unsigned, unsigned, const void*, void*))
DYNALIB_FN(15, system_cloud, spark_set_random_seed_from_cloud_handler, int(void (*handler)(unsigned int), void*))
   b64bc:	b508      	push	{r3, lr}
   b64be:	4b02      	ldr	r3, [pc, #8]	; (b64c8 <spark_set_random_seed_from_cloud_handler+0xc>)
   b64c0:	681b      	ldr	r3, [r3, #0]
   b64c2:	6bdb      	ldr	r3, [r3, #60]	; 0x3c
   b64c4:	9301      	str	r3, [sp, #4]
   b64c6:	bd08      	pop	{r3, pc}
   b64c8:	00030244 	.word	0x00030244

000b64cc <network_connect>:
#endif

DYNALIB_BEGIN(system_net)

DYNALIB_FN(0, system_net, network_config, const void*(network_handle_t, uint32_t, void*))
DYNALIB_FN(1, system_net, network_connect, void(network_handle_t, uint32_t, uint32_t, void*))
   b64cc:	b508      	push	{r3, lr}
   b64ce:	4b02      	ldr	r3, [pc, #8]	; (b64d8 <network_connect+0xc>)
   b64d0:	681b      	ldr	r3, [r3, #0]
   b64d2:	685b      	ldr	r3, [r3, #4]
   b64d4:	9301      	str	r3, [sp, #4]
   b64d6:	bd08      	pop	{r3, pc}
   b64d8:	00030240 	.word	0x00030240

000b64dc <network_connecting>:
DYNALIB_FN(2, system_net, network_connecting, bool(network_handle_t, uint32_t, void*))
   b64dc:	b508      	push	{r3, lr}
   b64de:	4b02      	ldr	r3, [pc, #8]	; (b64e8 <network_connecting+0xc>)
   b64e0:	681b      	ldr	r3, [r3, #0]
   b64e2:	689b      	ldr	r3, [r3, #8]
   b64e4:	9301      	str	r3, [sp, #4]
   b64e6:	bd08      	pop	{r3, pc}
   b64e8:	00030240 	.word	0x00030240

000b64ec <network_disconnect>:
DYNALIB_FN(3, system_net, network_disconnect, void(network_handle_t, uint32_t, void*))
   b64ec:	b508      	push	{r3, lr}
   b64ee:	4b02      	ldr	r3, [pc, #8]	; (b64f8 <network_disconnect+0xc>)
   b64f0:	681b      	ldr	r3, [r3, #0]
   b64f2:	68db      	ldr	r3, [r3, #12]
   b64f4:	9301      	str	r3, [sp, #4]
   b64f6:	bd08      	pop	{r3, pc}
   b64f8:	00030240 	.word	0x00030240

000b64fc <network_ready>:
DYNALIB_FN(4, system_net, network_ready, bool(network_handle_t, uint32_t, void*))
   b64fc:	b508      	push	{r3, lr}
   b64fe:	4b02      	ldr	r3, [pc, #8]	; (b6508 <network_ready+0xc>)
   b6500:	681b      	ldr	r3, [r3, #0]
   b6502:	691b      	ldr	r3, [r3, #16]
   b6504:	9301      	str	r3, [sp, #4]
   b6506:	bd08      	pop	{r3, pc}
   b6508:	00030240 	.word	0x00030240

000b650c <network_on>:
DYNALIB_FN(5, system_net, network_on, void(network_handle_t, uint32_t, uint32_t, void*))
   b650c:	b508      	push	{r3, lr}
   b650e:	4b02      	ldr	r3, [pc, #8]	; (b6518 <network_on+0xc>)
   b6510:	681b      	ldr	r3, [r3, #0]
   b6512:	695b      	ldr	r3, [r3, #20]
   b6514:	9301      	str	r3, [sp, #4]
   b6516:	bd08      	pop	{r3, pc}
   b6518:	00030240 	.word	0x00030240

000b651c <network_off>:
DYNALIB_FN(6, system_net, network_off, void(network_handle_t, uint32_t, uint32_t, void*))
   b651c:	b508      	push	{r3, lr}
   b651e:	4b02      	ldr	r3, [pc, #8]	; (b6528 <network_off+0xc>)
   b6520:	681b      	ldr	r3, [r3, #0]
   b6522:	699b      	ldr	r3, [r3, #24]
   b6524:	9301      	str	r3, [sp, #4]
   b6526:	bd08      	pop	{r3, pc}
   b6528:	00030240 	.word	0x00030240

000b652c <network_listen>:
DYNALIB_FN(7, system_net, network_listen, void(network_handle_t, uint32_t, void*))
   b652c:	b508      	push	{r3, lr}
   b652e:	4b02      	ldr	r3, [pc, #8]	; (b6538 <network_listen+0xc>)
   b6530:	681b      	ldr	r3, [r3, #0]
   b6532:	69db      	ldr	r3, [r3, #28]
   b6534:	9301      	str	r3, [sp, #4]
   b6536:	bd08      	pop	{r3, pc}
   b6538:	00030240 	.word	0x00030240

000b653c <network_listening>:
DYNALIB_FN(8, system_net, network_listening, bool(network_handle_t, uint32_t, void*))
   b653c:	b508      	push	{r3, lr}
   b653e:	4b02      	ldr	r3, [pc, #8]	; (b6548 <network_listening+0xc>)
   b6540:	681b      	ldr	r3, [r3, #0]
   b6542:	6a1b      	ldr	r3, [r3, #32]
   b6544:	9301      	str	r3, [sp, #4]
   b6546:	bd08      	pop	{r3, pc}
   b6548:	00030240 	.word	0x00030240

000b654c <network_set_listen_timeout>:
DYNALIB_FN(9, system_net, network_has_credentials, bool(network_handle_t, uint32_t, void*))
DYNALIB_FN(10, system_net, network_set_credentials, int(network_handle_t, uint32_t, NetworkCredentials*, void*))
DYNALIB_FN(11, system_net, network_clear_credentials, bool(network_handle_t, uint32_t, NetworkCredentials*, void*))
DYNALIB_FN(12, system_net, network_set_listen_timeout, void(network_handle_t, uint16_t, void*))
   b654c:	b508      	push	{r3, lr}
   b654e:	4b02      	ldr	r3, [pc, #8]	; (b6558 <network_set_listen_timeout+0xc>)
   b6550:	681b      	ldr	r3, [r3, #0]
   b6552:	6b1b      	ldr	r3, [r3, #48]	; 0x30
   b6554:	9301      	str	r3, [sp, #4]
   b6556:	bd08      	pop	{r3, pc}
   b6558:	00030240 	.word	0x00030240

000b655c <network_get_listen_timeout>:
DYNALIB_FN(13, system_net, network_get_listen_timeout, uint16_t(network_handle_t, uint32_t, void*))
   b655c:	b508      	push	{r3, lr}
   b655e:	4b02      	ldr	r3, [pc, #8]	; (b6568 <network_get_listen_timeout+0xc>)
   b6560:	681b      	ldr	r3, [r3, #0]
   b6562:	6b5b      	ldr	r3, [r3, #52]	; 0x34
   b6564:	9301      	str	r3, [sp, #4]
   b6566:	bd08      	pop	{r3, pc}
   b6568:	00030240 	.word	0x00030240

000b656c <network_is_on>:
DYNALIB_FN(14, system_net, network_set_hostname, int(network_handle_t, uint32_t, const char*, void*))
DYNALIB_FN(15, system_net, network_get_hostname, int(network_handle_t, uint32_t, char*, size_t, void*))
DYNALIB_FN(16, system_net, network_is_on, bool(network_handle_t, void*))
   b656c:	b508      	push	{r3, lr}
   b656e:	4b02      	ldr	r3, [pc, #8]	; (b6578 <network_is_on+0xc>)
   b6570:	681b      	ldr	r3, [r3, #0]
   b6572:	6c1b      	ldr	r3, [r3, #64]	; 0x40
   b6574:	9301      	str	r3, [sp, #4]
   b6576:	bd08      	pop	{r3, pc}
   b6578:	00030240 	.word	0x00030240

000b657c <network_is_off>:
DYNALIB_FN(17, system_net, network_is_off, bool(network_handle_t, void*))
   b657c:	b508      	push	{r3, lr}
   b657e:	4b02      	ldr	r3, [pc, #8]	; (b6588 <network_is_off+0xc>)
   b6580:	681b      	ldr	r3, [r3, #0]
   b6582:	6c5b      	ldr	r3, [r3, #68]	; 0x44
   b6584:	9301      	str	r3, [sp, #4]
   b6586:	bd08      	pop	{r3, pc}
   b6588:	00030240 	.word	0x00030240

000b658c <malloc>:
#include "hal_platform.h"
#endif // defined(DYNALIB_EXPORT) || (defined(DYNALIB_IMPORT) && !defined(RT_DYNALIB_NO_DEPENDENCY_BREAKING_IMPORTS))

DYNALIB_BEGIN(rt)

DYNALIB_FN(0, rt, malloc, void*(size_t))
   b658c:	b508      	push	{r3, lr}
   b658e:	4b02      	ldr	r3, [pc, #8]	; (b6598 <malloc+0xc>)
   b6590:	681b      	ldr	r3, [r3, #0]
   b6592:	681b      	ldr	r3, [r3, #0]
   b6594:	9301      	str	r3, [sp, #4]
   b6596:	bd08      	pop	{r3, pc}
   b6598:	0003021c 	.word	0x0003021c

000b659c <free>:
DYNALIB_FN(1, rt, free, void(void*))
   b659c:	b508      	push	{r3, lr}
   b659e:	4b02      	ldr	r3, [pc, #8]	; (b65a8 <free+0xc>)
   b65a0:	681b      	ldr	r3, [r3, #0]
   b65a2:	685b      	ldr	r3, [r3, #4]
   b65a4:	9301      	str	r3, [sp, #4]
   b65a6:	bd08      	pop	{r3, pc}
   b65a8:	0003021c 	.word	0x0003021c

000b65ac <snprintf>:
DYNALIB_FN(2, rt, realloc, void*(void*, size_t))
DYNALIB_FN(3, rt, sprintf, int(char*, const char*, ...))
DYNALIB_FN(4, rt, siprintf, int(char*, const char*, ...))
DYNALIB_FN(5, rt, sscanf, int(const char*, const char*, ...))
DYNALIB_FN(6, rt, siscanf, int(const char*, const char*, ...))
DYNALIB_FN(7, rt, snprintf, int(char*, size_t, const char*, ...))
   b65ac:	b508      	push	{r3, lr}
   b65ae:	4b02      	ldr	r3, [pc, #8]	; (b65b8 <snprintf+0xc>)
   b65b0:	681b      	ldr	r3, [r3, #0]
   b65b2:	69db      	ldr	r3, [r3, #28]
   b65b4:	9301      	str	r3, [sp, #4]
   b65b6:	bd08      	pop	{r3, pc}
   b65b8:	0003021c 	.word	0x0003021c

000b65bc <vsnprintf>:
DYNALIB_FN(8, rt, sniprintf, int(char*, size_t, const char*, ...))
DYNALIB_FN(9, rt, vsnprintf, int(char*, size_t, const char*, va_list))
   b65bc:	b508      	push	{r3, lr}
   b65be:	4b02      	ldr	r3, [pc, #8]	; (b65c8 <vsnprintf+0xc>)
   b65c0:	681b      	ldr	r3, [r3, #0]
   b65c2:	6a5b      	ldr	r3, [r3, #36]	; 0x24
   b65c4:	9301      	str	r3, [sp, #4]
   b65c6:	bd08      	pop	{r3, pc}
   b65c8:	0003021c 	.word	0x0003021c

000b65cc <__errno>:
DYNALIB_FN(10, rt, vsniprintf, int(char*, size_t, const char*, va_list))
DYNALIB_FN(11, rt, abort, void(void))
DYNALIB_FN(12, rt, _malloc_r, void*(struct _reent*, size_t))
DYNALIB_FN(13, rt, _free_r, void(struct _reent*, void*))
DYNALIB_FN(14, rt, _realloc_r, void*(struct _reent*, void*, size_t))
DYNALIB_FN(15, rt, __errno, int*())
   b65cc:	b508      	push	{r3, lr}
   b65ce:	4b02      	ldr	r3, [pc, #8]	; (b65d8 <__errno+0xc>)
   b65d0:	681b      	ldr	r3, [r3, #0]
   b65d2:	6bdb      	ldr	r3, [r3, #60]	; 0x3c
   b65d4:	9301      	str	r3, [sp, #4]
   b65d6:	bd08      	pop	{r3, pc}
   b65d8:	0003021c 	.word	0x0003021c

000b65dc <__assert_func>:
// on Gen 2 platforms without breaking inter-module dependencies.
// RT is currently being imported into system-part1 from system-part2,
// which is the reverse direction.

#if defined(DYNALIB_EXPORT) || (defined(DYNALIB_IMPORT) && !defined(RT_DYNALIB_NO_DEPENDENCY_BREAKING_IMPORTS))
DYNALIB_FN(16, rt, __assert_func, void(const char*, int, const char*, const char*))
   b65dc:	b508      	push	{r3, lr}
   b65de:	4b02      	ldr	r3, [pc, #8]	; (b65e8 <__assert_func+0xc>)
   b65e0:	681b      	ldr	r3, [r3, #0]
   b65e2:	6c1b      	ldr	r3, [r3, #64]	; 0x40
   b65e4:	9301      	str	r3, [sp, #4]
   b65e6:	bd08      	pop	{r3, pc}
   b65e8:	0003021c 	.word	0x0003021c

000b65ec <newlib_impure_ptr_callback>:
DYNALIB_FN(17, rt, newlib_impure_ptr_callback, void(void (*)(struct _reent*, size_t, uint32_t, void*), void*))
   b65ec:	b508      	push	{r3, lr}
   b65ee:	4b02      	ldr	r3, [pc, #8]	; (b65f8 <newlib_impure_ptr_callback+0xc>)
   b65f0:	681b      	ldr	r3, [r3, #0]
   b65f2:	6c5b      	ldr	r3, [r3, #68]	; 0x44
   b65f4:	9301      	str	r3, [sp, #4]
   b65f6:	bd08      	pop	{r3, pc}
   b65f8:	0003021c 	.word	0x0003021c

000b65fc <delay>:
    return (value - fromStart) * (toEnd - toStart) / (fromEnd - fromStart) + toStart;
}

void delay(unsigned long ms)
{
    system_delay_ms(ms, false);
   b65fc:	2100      	movs	r1, #0
   b65fe:	f7ff bf31 	b.w	b6464 <system_delay_ms>
	...

000b6604 <_GLOBAL__sub_I__ZN8particle3ble13WiringBleLock6mutex_E>:
    /**
     * Creates a shared mutex.
     */
    RecursiveMutex(os_mutex_recursive_t handle) : handle_(handle) {}

    RecursiveMutex() : handle_(nullptr)
   b6604:	4802      	ldr	r0, [pc, #8]	; (b6610 <_GLOBAL__sub_I__ZN8particle3ble13WiringBleLock6mutex_E+0xc>)
   b6606:	2300      	movs	r3, #0
   b6608:	6003      	str	r3, [r0, #0]
    {
        os_mutex_recursive_create(&handle_);
   b660a:	f7ff bd3b 	b.w	b6084 <os_mutex_recursive_create>
   b660e:	bf00      	nop
   b6610:	2003e6c4 	.word	0x2003e6c4

000b6614 <_ZN5spark13EthernetClass9listeningEv>:
    uint16_t getListenTimeout(void) {
        return network_get_listen_timeout(*this, 0, NULL);
    }

    bool listening(void) {
        return network_listening(*this, 0, NULL);
   b6614:	2200      	movs	r2, #0
   b6616:	6840      	ldr	r0, [r0, #4]
   b6618:	4611      	mov	r1, r2
   b661a:	f7ff bf8f 	b.w	b653c <network_listening>

000b661e <_ZN5spark13EthernetClass16getListenTimeoutEv>:
        return network_get_listen_timeout(*this, 0, NULL);
   b661e:	2200      	movs	r2, #0
   b6620:	6840      	ldr	r0, [r0, #4]
   b6622:	4611      	mov	r1, r2
   b6624:	f7ff bf9a 	b.w	b655c <network_get_listen_timeout>

000b6628 <_ZN5spark13EthernetClass16setListenTimeoutEt>:
        network_set_listen_timeout(*this, timeout, NULL);
   b6628:	6840      	ldr	r0, [r0, #4]
   b662a:	2200      	movs	r2, #0
   b662c:	f7ff bf8e 	b.w	b654c <network_set_listen_timeout>

000b6630 <_ZN5spark13EthernetClass6listenEb>:
        network_listen(*this, begin ? 0 : 1, NULL);
   b6630:	6840      	ldr	r0, [r0, #4]
   b6632:	2200      	movs	r2, #0
   b6634:	f081 0101 	eor.w	r1, r1, #1
   b6638:	f7ff bf78 	b.w	b652c <network_listen>

000b663c <_ZN5spark13EthernetClass3offEv>:
        network_off(*this, 0, 0, NULL);
   b663c:	2300      	movs	r3, #0
   b663e:	6840      	ldr	r0, [r0, #4]
   b6640:	461a      	mov	r2, r3
   b6642:	4619      	mov	r1, r3
   b6644:	f7ff bf6a 	b.w	b651c <network_off>

000b6648 <_ZN5spark13EthernetClass2onEv>:
        network_on(*this, 0, 0, NULL);
   b6648:	2300      	movs	r3, #0
   b664a:	6840      	ldr	r0, [r0, #4]
   b664c:	461a      	mov	r2, r3
   b664e:	4619      	mov	r1, r3
   b6650:	f7ff bf5c 	b.w	b650c <network_on>

000b6654 <_ZN5spark13EthernetClass5readyEv>:
    }

    bool ready() {
        return network_ready(*this, 0,  NULL);
   b6654:	2200      	movs	r2, #0
   b6656:	6840      	ldr	r0, [r0, #4]
   b6658:	4611      	mov	r1, r2
   b665a:	f7ff bf4f 	b.w	b64fc <network_ready>

000b665e <_ZN5spark13EthernetClass10connectingEv>:
        return network_connecting(*this, 0, NULL);
   b665e:	2200      	movs	r2, #0
   b6660:	6840      	ldr	r0, [r0, #4]
   b6662:	4611      	mov	r1, r2
   b6664:	f7ff bf3a 	b.w	b64dc <network_connecting>

000b6668 <_ZN5spark13EthernetClass10disconnectEv>:
        network_disconnect(*this, NETWORK_DISCONNECT_REASON_USER, NULL);
   b6668:	6840      	ldr	r0, [r0, #4]
   b666a:	2200      	movs	r2, #0
   b666c:	2102      	movs	r1, #2
   b666e:	f7ff bf3d 	b.w	b64ec <network_disconnect>

000b6672 <_ZN5spark13EthernetClass7connectEj>:
        network_connect(*this, flags, 0, NULL);
   b6672:	2300      	movs	r3, #0
   b6674:	6840      	ldr	r0, [r0, #4]
   b6676:	461a      	mov	r2, r3
   b6678:	f7ff bf28 	b.w	b64cc <network_connect>

000b667c <_GLOBAL__sub_I__ZN5spark8EthernetE>:
    static NetworkClass& from(network_interface_t nif);

    virtual IPAddress resolve(const char* name);

    explicit NetworkClass(network_interface_t iface)
            : iface_(iface) {
   b667c:	4b02      	ldr	r3, [pc, #8]	; (b6688 <_GLOBAL__sub_I__ZN5spark8EthernetE+0xc>)
   b667e:	2203      	movs	r2, #3
   b6680:	605a      	str	r2, [r3, #4]
            NetworkClass(NETWORK_INTERFACE_ETHERNET) {
   b6682:	4a02      	ldr	r2, [pc, #8]	; (b668c <_GLOBAL__sub_I__ZN5spark8EthernetE+0x10>)
   b6684:	601a      	str	r2, [r3, #0]

namespace spark {

EthernetClass Ethernet;

} // spark
   b6686:	4770      	bx	lr
   b6688:	2003e6c8 	.word	0x2003e6c8
   b668c:	000b8df8 	.word	0x000b8df8

000b6690 <_ZN7TwoWireD1Ev>:
private:
  hal_i2c_interface_t _i2c;

public:
  TwoWire(hal_i2c_interface_t i2c, const hal_i2c_config_t& config);
  virtual ~TwoWire() {};
   b6690:	4770      	bx	lr

000b6692 <_ZN7TwoWire5writeEPKhj>:

// must be called in:
// slave tx event callback
// or after beginTransmission(address)
size_t TwoWire::write(const uint8_t *data, size_t quantity)
{
   b6692:	b5f8      	push	{r3, r4, r5, r6, r7, lr}
   b6694:	4606      	mov	r6, r0
   b6696:	4615      	mov	r5, r2
   b6698:	460c      	mov	r4, r1
   b669a:	188f      	adds	r7, r1, r2
  // in master/slave transmitter mode
  for(size_t i = 0; i < quantity; ++i)
   b669c:	42bc      	cmp	r4, r7
   b669e:	d006      	beq.n	b66ae <_ZN7TwoWire5writeEPKhj+0x1c>
  {
    write(data[i]);
   b66a0:	6833      	ldr	r3, [r6, #0]
   b66a2:	f814 1b01 	ldrb.w	r1, [r4], #1
   b66a6:	689b      	ldr	r3, [r3, #8]
   b66a8:	4630      	mov	r0, r6
   b66aa:	4798      	blx	r3
  for(size_t i = 0; i < quantity; ++i)
   b66ac:	e7f6      	b.n	b669c <_ZN7TwoWire5writeEPKhj+0xa>
  }

  return quantity;
}
   b66ae:	4628      	mov	r0, r5
   b66b0:	bdf8      	pop	{r3, r4, r5, r6, r7, pc}

000b66b2 <_ZN7TwoWire5writeEh>:
  return hal_i2c_write(_i2c, data, NULL);
   b66b2:	7c00      	ldrb	r0, [r0, #16]
   b66b4:	2200      	movs	r2, #0
   b66b6:	f7ff bd65 	b.w	b6184 <hal_i2c_write>

000b66ba <_ZN7TwoWire9availableEv>:
// must be called in:
// slave rx event callback
// or after requestFrom(address, numBytes)
int TwoWire::available(void)
{
  return hal_i2c_available(_i2c, NULL);
   b66ba:	7c00      	ldrb	r0, [r0, #16]
   b66bc:	2100      	movs	r1, #0
   b66be:	f7ff bd69 	b.w	b6194 <hal_i2c_available>

000b66c2 <_ZN7TwoWire4readEv>:
// must be called in:
// slave rx event callback
// or after requestFrom(address, numBytes)
int TwoWire::read(void)
{
  return hal_i2c_read(_i2c, NULL);
   b66c2:	7c00      	ldrb	r0, [r0, #16]
   b66c4:	2100      	movs	r1, #0
   b66c6:	f7ff bd6d 	b.w	b61a4 <hal_i2c_read>

000b66ca <_ZN7TwoWire4peekEv>:
// must be called in:
// slave rx event callback
// or after requestFrom(address, numBytes)
int TwoWire::peek(void)
{
  return hal_i2c_peek(_i2c, NULL);
   b66ca:	7c00      	ldrb	r0, [r0, #16]
   b66cc:	2100      	movs	r1, #0
   b66ce:	f7ff bd71 	b.w	b61b4 <hal_i2c_peek>

000b66d2 <_ZN7TwoWire5flushEv>:
}

void TwoWire::flush(void)
{
  hal_i2c_flush(_i2c, NULL);
   b66d2:	7c00      	ldrb	r0, [r0, #16]
   b66d4:	2100      	movs	r1, #0
   b66d6:	f7ff bd75 	b.w	b61c4 <hal_i2c_flush>

000b66da <_ZN7TwoWireD0Ev>:
   b66da:	b510      	push	{r4, lr}
   b66dc:	2114      	movs	r1, #20
   b66de:	4604      	mov	r4, r0
   b66e0:	f7fd fcdb 	bl	b409a <_ZdlPvj>
   b66e4:	4620      	mov	r0, r4
   b66e6:	bd10      	pop	{r4, pc}

000b66e8 <_ZN7TwoWireC1E19hal_i2c_interface_tRK16hal_i2c_config_t>:
TwoWire::TwoWire(hal_i2c_interface_t i2c, const hal_i2c_config_t& conf)
   b66e8:	b510      	push	{r4, lr}
    virtual int available() = 0;
    virtual int read() = 0;
    virtual int peek() = 0;
    virtual void flush() = 0;

    Stream() {_timeout=1000;}
   b66ea:	f44f 737a 	mov.w	r3, #1000	; 0x3e8
   b66ee:	4604      	mov	r4, r0
   b66f0:	4608      	mov	r0, r1
   b66f2:	2100      	movs	r1, #0
   b66f4:	e9c4 1301 	strd	r1, r3, [r4, #4]
   b66f8:	4b03      	ldr	r3, [pc, #12]	; (b6708 <_ZN7TwoWireC1E19hal_i2c_interface_tRK16hal_i2c_config_t+0x20>)
   b66fa:	6023      	str	r3, [r4, #0]
  _i2c = i2c;
   b66fc:	7420      	strb	r0, [r4, #16]
  hal_i2c_init(_i2c, &conf);
   b66fe:	4611      	mov	r1, r2
   b6700:	f7ff fd70 	bl	b61e4 <hal_i2c_init>
}
   b6704:	4620      	mov	r0, r4
   b6706:	bd10      	pop	{r4, pc}
   b6708:	000b8e34 	.word	0x000b8e34

000b670c <_ZN7TwoWire8setSpeedEm>:
  hal_i2c_set_speed(_i2c, clockSpeed, NULL);
   b670c:	7c00      	ldrb	r0, [r0, #16]
   b670e:	2200      	movs	r2, #0
   b6710:	f7ff bd18 	b.w	b6144 <hal_i2c_set_speed>

000b6714 <_ZN7TwoWire5beginEv>:
	hal_i2c_begin(_i2c, I2C_MODE_MASTER, 0x00, NULL);
   b6714:	2300      	movs	r3, #0
   b6716:	7c00      	ldrb	r0, [r0, #16]
   b6718:	461a      	mov	r2, r3
   b671a:	4619      	mov	r1, r3
   b671c:	f7ff bd1a 	b.w	b6154 <hal_i2c_begin>

000b6720 <_ZN7TwoWire11requestFromERK16WireTransmission>:
size_t TwoWire::requestFrom(const WireTransmission& transfer) {
   b6720:	b57f      	push	{r0, r1, r2, r3, r4, r5, r6, lr}
    hal_i2c_transmission_config_t conf = {
   b6722:	2200      	movs	r2, #0
   b6724:	2314      	movs	r3, #20
   b6726:	e9cd 2201 	strd	r2, r2, [sp, #4]
   b672a:	f8ad 3004 	strh.w	r3, [sp, #4]
    };
   b672e:	780b      	ldrb	r3, [r1, #0]
   b6730:	f88d 3008 	strb.w	r3, [sp, #8]
   b6734:	684b      	ldr	r3, [r1, #4]
   b6736:	9303      	str	r3, [sp, #12]
   b6738:	68cb      	ldr	r3, [r1, #12]
   b673a:	9304      	str	r3, [sp, #16]
  return hal_i2c_request_ex(_i2c, &conf, nullptr);
   b673c:	7c00      	ldrb	r0, [r0, #16]
      .flags = (uint32_t)(stop_ ? HAL_I2C_TRANSMISSION_FLAG_STOP : 0)
   b673e:	7a0b      	ldrb	r3, [r1, #8]
   b6740:	9305      	str	r3, [sp, #20]
   b6742:	a901      	add	r1, sp, #4
   b6744:	f7ff fd56 	bl	b61f4 <hal_i2c_request_ex>
}
   b6748:	b007      	add	sp, #28
   b674a:	f85d fb04 	ldr.w	pc, [sp], #4

000b674e <_ZN7TwoWire11requestFromEhjh>:
{
   b674e:	b51f      	push	{r0, r1, r2, r3, r4, lr}
  return requestFrom(WireTransmission(address).quantity(quantity).stop(sendStop));
   b6750:	3b00      	subs	r3, #0
        timeout_{HAL_I2C_DEFAULT_TIMEOUT_MS} {
   b6752:	f88d 1000 	strb.w	r1, [sp]
   b6756:	f04f 0164 	mov.w	r1, #100	; 0x64
   b675a:	9103      	str	r1, [sp, #12]
   b675c:	bf18      	it	ne
   b675e:	2301      	movne	r3, #1
   b6760:	4669      	mov	r1, sp
    size_ = size;
   b6762:	9201      	str	r2, [sp, #4]
   b6764:	f88d 3008 	strb.w	r3, [sp, #8]
   b6768:	f7ff ffda 	bl	b6720 <_ZN7TwoWire11requestFromERK16WireTransmission>
}
   b676c:	b005      	add	sp, #20
   b676e:	f85d fb04 	ldr.w	pc, [sp], #4

000b6772 <_ZN7TwoWire11requestFromEhj>:
  return requestFrom(address, quantity, (uint8_t)true);
   b6772:	2301      	movs	r3, #1
   b6774:	f7ff bfeb 	b.w	b674e <_ZN7TwoWire11requestFromEhjh>

000b6778 <_ZN7TwoWire17beginTransmissionEh>:
	hal_i2c_begin_transmission(_i2c, address, NULL);
   b6778:	7c00      	ldrb	r0, [r0, #16]
   b677a:	2200      	movs	r2, #0
   b677c:	f7ff bcf2 	b.w	b6164 <hal_i2c_begin_transmission>

000b6780 <_ZN7TwoWire17beginTransmissionEi>:
  beginTransmission((uint8_t)address);
   b6780:	b2c9      	uxtb	r1, r1
   b6782:	f7ff bff9 	b.w	b6778 <_ZN7TwoWire17beginTransmissionEh>

000b6786 <_ZN7TwoWire15endTransmissionEh>:
	return hal_i2c_end_transmission(_i2c, sendStop, NULL);
   b6786:	7c00      	ldrb	r0, [r0, #16]
   b6788:	2200      	movs	r2, #0
   b678a:	f7ff bcf3 	b.w	b6174 <hal_i2c_end_transmission>

000b678e <_ZN7TwoWire15endTransmissionEv>:
  return endTransmission(true);
   b678e:	2101      	movs	r1, #1
   b6790:	f7ff bff9 	b.w	b6786 <_ZN7TwoWire15endTransmissionEh>

000b6794 <_ZN9IPAddressD1Ev>:
    IPAddress(uint32_t address);
    // 4 bytes defining the IP address in network order
    IPAddress(const uint8_t* address);
    IPAddress(const HAL_IPAddress& address);

    virtual ~IPAddress() {}
   b6794:	4770      	bx	lr

000b6796 <_ZN9IPAddressD0Ev>:
   b6796:	b510      	push	{r4, lr}
   b6798:	2118      	movs	r1, #24
   b679a:	4604      	mov	r4, r0
   b679c:	f7fd fc7d 	bl	b409a <_ZdlPvj>
   b67a0:	4620      	mov	r0, r4
   b67a2:	bd10      	pop	{r4, pc}

000b67a4 <_ZNK9IPAddress7printToER5Print>:
#endif // Wiring_IPv6
	return address.ipv4==that.address.ipv4;
}

size_t IPAddress::printTo(Print& p) const
{
   b67a4:	b5f0      	push	{r4, r5, r6, r7, lr}
#if Wiring_IPv6
#if HAL_USE_INET_HAL_POSIX
	if (address.v==6) {
   b67a6:	7d03      	ldrb	r3, [r0, #20]
   b67a8:	2b06      	cmp	r3, #6
{
   b67aa:	b08d      	sub	sp, #52	; 0x34
   b67ac:	460e      	mov	r6, r1
		char buf[INET6_ADDRSTRLEN+1];
		buf[0] = 0;
		inet_inet_ntop(AF_INET6, address.ipv6, buf, sizeof(buf));
   b67ae:	f100 0704 	add.w	r7, r0, #4
   b67b2:	f04f 0400 	mov.w	r4, #0
	if (address.v==6) {
   b67b6:	d012      	beq.n	b67de <_ZNK9IPAddress7printToER5Print+0x3a>
   b67b8:	f100 0508 	add.w	r5, r0, #8
            val = n;
        }
#if __GNUC__ >= 9
#pragma GCC diagnostic pop
#endif // __GNUC__ >= 9
        return printNumber(val, base) + t;
   b67bc:	f815 1d01 	ldrb.w	r1, [r5, #-1]!
   b67c0:	220a      	movs	r2, #10
   b67c2:	4630      	mov	r0, r6
   b67c4:	f000 f975 	bl	b6ab2 <_ZN5Print11printNumberEmh>
#else
#pragma message "HAL_USE_INET_HAL_POSIX is required for IPv6 support in IPAddress::printTo()"
#endif // HAL_USE_INET_HAL_POSIX
#endif // Wiring_IPv6
    size_t n = 0;
    for (int i = 0; i < 4; i++)
   b67c8:	42af      	cmp	r7, r5
    {
        if (n)
            n += p.print('.');
        n += p.print((*this)[i], DEC);
   b67ca:	4404      	add	r4, r0
    for (int i = 0; i < 4; i++)
   b67cc:	d019      	beq.n	b6802 <_ZNK9IPAddress7printToER5Print+0x5e>
        if (n)
   b67ce:	2c00      	cmp	r4, #0
   b67d0:	d0f4      	beq.n	b67bc <_ZNK9IPAddress7printToER5Print+0x18>
            n += p.print('.');
   b67d2:	212e      	movs	r1, #46	; 0x2e
   b67d4:	4630      	mov	r0, r6
   b67d6:	f000 f95d 	bl	b6a94 <_ZN5Print5printEc>
   b67da:	4404      	add	r4, r0
   b67dc:	e7ee      	b.n	b67bc <_ZNK9IPAddress7printToER5Print+0x18>
		inet_inet_ntop(AF_INET6, address.ipv6, buf, sizeof(buf));
   b67de:	232f      	movs	r3, #47	; 0x2f
   b67e0:	466a      	mov	r2, sp
   b67e2:	4639      	mov	r1, r7
   b67e4:	200a      	movs	r0, #10
		buf[0] = 0;
   b67e6:	f88d 4000 	strb.w	r4, [sp]
		inet_inet_ntop(AF_INET6, address.ipv6, buf, sizeof(buf));
   b67ea:	f7ff fd13 	bl	b6214 <inet_inet_ntop>
      return write((const uint8_t *)str, strlen(str));
   b67ee:	4668      	mov	r0, sp
   b67f0:	f001 f9f0 	bl	b7bd4 <strlen>
   b67f4:	6833      	ldr	r3, [r6, #0]
   b67f6:	4602      	mov	r2, r0
   b67f8:	68db      	ldr	r3, [r3, #12]
   b67fa:	4669      	mov	r1, sp
   b67fc:	4630      	mov	r0, r6
   b67fe:	4798      	blx	r3
   b6800:	4604      	mov	r4, r0
    }
    return n;
}
   b6802:	4620      	mov	r0, r4
   b6804:	b00d      	add	sp, #52	; 0x34
   b6806:	bdf0      	pop	{r4, r5, r6, r7, pc}

000b6808 <_ZN9IPAddressC1Ev>:
IPAddress::IPAddress()
   b6808:	b510      	push	{r4, lr}
   b680a:	4b05      	ldr	r3, [pc, #20]	; (b6820 <_ZN9IPAddressC1Ev+0x18>)
   b680c:	4604      	mov	r4, r0
        return address;
    }

    virtual size_t printTo(Print& p) const;

    void clear() { memset(&address, 0, sizeof (address)); }
   b680e:	2211      	movs	r2, #17
   b6810:	f840 3b04 	str.w	r3, [r0], #4
   b6814:	2100      	movs	r1, #0
   b6816:	f001 f99d 	bl	b7b54 <memset>
}
   b681a:	4620      	mov	r0, r4
   b681c:	bd10      	pop	{r4, pc}
   b681e:	bf00      	nop
   b6820:	000b8e5c 	.word	0x000b8e5c

000b6824 <_ZN9IPAddressC1ERK16_HAL_IPAddress_t>:
IPAddress::IPAddress(const HAL_IPAddress& address)
   b6824:	4603      	mov	r3, r0
   b6826:	4a07      	ldr	r2, [pc, #28]	; (b6844 <_ZN9IPAddressC1ERK16_HAL_IPAddress_t+0x20>)
   b6828:	b510      	push	{r4, lr}
   b682a:	f843 2b04 	str.w	r2, [r3], #4
    memcpy(&this->address, &address, sizeof(address));
   b682e:	f101 0210 	add.w	r2, r1, #16
   b6832:	f851 4b04 	ldr.w	r4, [r1], #4
   b6836:	f843 4b04 	str.w	r4, [r3], #4
   b683a:	4291      	cmp	r1, r2
   b683c:	d1f9      	bne.n	b6832 <_ZN9IPAddressC1ERK16_HAL_IPAddress_t+0xe>
   b683e:	780a      	ldrb	r2, [r1, #0]
   b6840:	701a      	strb	r2, [r3, #0]
}
   b6842:	bd10      	pop	{r4, pc}
   b6844:	000b8e5c 	.word	0x000b8e5c

000b6848 <_ZNK9IPAddresscvbEv>:

    String toString() const { return String(*this); }

    uint8_t version() const {
#if HAL_IPv6
    		return address.v;
   b6848:	7d03      	ldrb	r3, [r0, #20]
    if (version() == 4) {
   b684a:	2b04      	cmp	r3, #4
   b684c:	d104      	bne.n	b6858 <_ZNK9IPAddresscvbEv+0x10>
        return address.ipv4 != 0;
   b684e:	6840      	ldr	r0, [r0, #4]
        return address.ipv6[0] != 0 || address.ipv6[1] != 0 || address.ipv6[2] != 0 || address.ipv6[3] != 0;
   b6850:	3800      	subs	r0, #0
   b6852:	bf18      	it	ne
   b6854:	2001      	movne	r0, #1
   b6856:	4770      	bx	lr
    } else if (version() == 6) {
   b6858:	2b06      	cmp	r3, #6
   b685a:	d107      	bne.n	b686c <_ZNK9IPAddresscvbEv+0x24>
        return address.ipv6[0] != 0 || address.ipv6[1] != 0 || address.ipv6[2] != 0 || address.ipv6[3] != 0;
   b685c:	6843      	ldr	r3, [r0, #4]
   b685e:	b93b      	cbnz	r3, b6870 <_ZNK9IPAddresscvbEv+0x28>
   b6860:	6883      	ldr	r3, [r0, #8]
   b6862:	b92b      	cbnz	r3, b6870 <_ZNK9IPAddresscvbEv+0x28>
   b6864:	68c3      	ldr	r3, [r0, #12]
   b6866:	b91b      	cbnz	r3, b6870 <_ZNK9IPAddresscvbEv+0x28>
   b6868:	6900      	ldr	r0, [r0, #16]
   b686a:	e7f1      	b.n	b6850 <_ZNK9IPAddresscvbEv+0x8>
        return false;
   b686c:	2000      	movs	r0, #0
   b686e:	4770      	bx	lr
        return address.ipv6[0] != 0 || address.ipv6[1] != 0 || address.ipv6[2] != 0 || address.ipv6[3] != 0;
   b6870:	2001      	movs	r0, #1
}
   b6872:	4770      	bx	lr

000b6874 <_ZN9IPAddress8set_ipv4Ehhhh>:
{
   b6874:	b510      	push	{r4, lr}
    address.ipv4 = b0<<24 | b1 << 16 | b2 << 8 | b3;
   b6876:	f89d 4008 	ldrb.w	r4, [sp, #8]
   b687a:	ea44 2303 	orr.w	r3, r4, r3, lsl #8
   b687e:	ea43 4202 	orr.w	r2, r3, r2, lsl #16
   b6882:	ea42 6101 	orr.w	r1, r2, r1, lsl #24
        address.v = version;
   b6886:	2304      	movs	r3, #4
   b6888:	6041      	str	r1, [r0, #4]
   b688a:	7503      	strb	r3, [r0, #20]
}
   b688c:	bd10      	pop	{r4, pc}
	...

000b6890 <_ZN9IPAddressC1Ehhhh>:
IPAddress::IPAddress(uint8_t first_octet, uint8_t second_octet, uint8_t third_octet, uint8_t fourth_octet)
   b6890:	b513      	push	{r0, r1, r4, lr}
   b6892:	4c04      	ldr	r4, [pc, #16]	; (b68a4 <_ZN9IPAddressC1Ehhhh+0x14>)
   b6894:	6004      	str	r4, [r0, #0]
    set_ipv4(first_octet, second_octet, third_octet, fourth_octet);
   b6896:	f89d 4010 	ldrb.w	r4, [sp, #16]
   b689a:	9400      	str	r4, [sp, #0]
   b689c:	f7ff ffea 	bl	b6874 <_ZN9IPAddress8set_ipv4Ehhhh>
}
   b68a0:	b002      	add	sp, #8
   b68a2:	bd10      	pop	{r4, pc}
   b68a4:	000b8e5c 	.word	0x000b8e5c

000b68a8 <_ZN9IPAddressC1EPKh>:
IPAddress::IPAddress(const uint8_t* addr)
   b68a8:	b507      	push	{r0, r1, r2, lr}
   b68aa:	4b06      	ldr	r3, [pc, #24]	; (b68c4 <_ZN9IPAddressC1EPKh+0x1c>)
   b68ac:	6003      	str	r3, [r0, #0]
    set_ipv4(addr[0], addr[1], addr[2], addr[3]);
   b68ae:	78cb      	ldrb	r3, [r1, #3]
   b68b0:	9300      	str	r3, [sp, #0]
   b68b2:	788b      	ldrb	r3, [r1, #2]
   b68b4:	784a      	ldrb	r2, [r1, #1]
   b68b6:	7809      	ldrb	r1, [r1, #0]
   b68b8:	f7ff ffdc 	bl	b6874 <_ZN9IPAddress8set_ipv4Ehhhh>
}
   b68bc:	b003      	add	sp, #12
   b68be:	f85d fb04 	ldr.w	pc, [sp], #4
   b68c2:	bf00      	nop
   b68c4:	000b8e5c 	.word	0x000b8e5c

000b68c8 <_GLOBAL__sub_I__ZN5spark3LogE>:
    // This handler doesn't support direct logging
}

// spark::Logger
inline spark::Logger::Logger(const char *name) :
        name_(name) {
   b68c8:	4b01      	ldr	r3, [pc, #4]	; (b68d0 <_GLOBAL__sub_I__ZN5spark3LogE+0x8>)
   b68ca:	4a02      	ldr	r2, [pc, #8]	; (b68d4 <_GLOBAL__sub_I__ZN5spark3LogE+0xc>)
   b68cc:	601a      	str	r2, [r3, #0]
#if Wiring_LogConfig

// spark::
void spark::logProcessControlRequest(ctrl_request* req) {
    JSONRequestHandler::process(req);
}
   b68ce:	4770      	bx	lr
   b68d0:	2003e6d0 	.word	0x2003e6d0
   b68d4:	000b8e68 	.word	0x000b8e68

000b68d8 <_ZN5spark12NetworkClass7connectEj>:
        return Network;
    }
}

void NetworkClass::connect(unsigned flags) {
    network_connect(*this, flags, 0, nullptr);
   b68d8:	2300      	movs	r3, #0
   b68da:	6840      	ldr	r0, [r0, #4]
   b68dc:	461a      	mov	r2, r3
   b68de:	f7ff bdf5 	b.w	b64cc <network_connect>

000b68e2 <_ZN5spark12NetworkClass10disconnectEv>:
}

void NetworkClass::disconnect() {
    network_disconnect(*this, NETWORK_DISCONNECT_REASON_USER, nullptr);
   b68e2:	6840      	ldr	r0, [r0, #4]
   b68e4:	2200      	movs	r2, #0
   b68e6:	2102      	movs	r1, #2
   b68e8:	f7ff be00 	b.w	b64ec <network_disconnect>

000b68ec <_ZN5spark12NetworkClass10connectingEv>:
}

bool NetworkClass::connecting() {
    return network_connecting(*this, 0, nullptr);
   b68ec:	2200      	movs	r2, #0
   b68ee:	6840      	ldr	r0, [r0, #4]
   b68f0:	4611      	mov	r1, r2
   b68f2:	f7ff bdf3 	b.w	b64dc <network_connecting>

000b68f6 <_ZN5spark12NetworkClass5readyEv>:
}

bool NetworkClass::ready() {
    return network_ready(*this, 0, nullptr);
   b68f6:	2200      	movs	r2, #0
   b68f8:	6840      	ldr	r0, [r0, #4]
   b68fa:	4611      	mov	r1, r2
   b68fc:	f7ff bdfe 	b.w	b64fc <network_ready>

000b6900 <_ZN5spark12NetworkClass2onEv>:
}

void NetworkClass::on() {
    network_on(*this, 0, 0, nullptr);
   b6900:	2300      	movs	r3, #0
   b6902:	6840      	ldr	r0, [r0, #4]
   b6904:	461a      	mov	r2, r3
   b6906:	4619      	mov	r1, r3
   b6908:	f7ff be00 	b.w	b650c <network_on>

000b690c <_ZN5spark12NetworkClass3offEv>:
}

void NetworkClass::off() {
    network_off(*this, 0, 0, nullptr);
   b690c:	2300      	movs	r3, #0
   b690e:	6840      	ldr	r0, [r0, #4]
   b6910:	461a      	mov	r2, r3
   b6912:	4619      	mov	r1, r3
   b6914:	f7ff be02 	b.w	b651c <network_off>

000b6918 <_ZN5spark12NetworkClass4isOnEv>:
}

bool NetworkClass::isOn() {
    return network_is_on(*this, nullptr);
   b6918:	6840      	ldr	r0, [r0, #4]
   b691a:	2100      	movs	r1, #0
   b691c:	f7ff be26 	b.w	b656c <network_is_on>

000b6920 <_ZN5spark12NetworkClass5isOffEv>:
}

bool NetworkClass::isOff() {
    return network_is_off(*this, nullptr);
   b6920:	6840      	ldr	r0, [r0, #4]
   b6922:	2100      	movs	r1, #0
   b6924:	f7ff be2a 	b.w	b657c <network_is_off>

000b6928 <_ZN5spark12NetworkClass6listenEb>:
}

void NetworkClass::listen(bool begin) {
    network_listen(*this, begin ? 0 : 1, nullptr);
   b6928:	6840      	ldr	r0, [r0, #4]
   b692a:	2200      	movs	r2, #0
   b692c:	f081 0101 	eor.w	r1, r1, #1
   b6930:	f7ff bdfc 	b.w	b652c <network_listen>

000b6934 <_ZN5spark12NetworkClass16setListenTimeoutEt>:
}

void NetworkClass::setListenTimeout(uint16_t timeout) {
    network_set_listen_timeout(*this, timeout, nullptr);
   b6934:	6840      	ldr	r0, [r0, #4]
   b6936:	2200      	movs	r2, #0
   b6938:	f7ff be08 	b.w	b654c <network_set_listen_timeout>

000b693c <_ZN5spark12NetworkClass16getListenTimeoutEv>:
}

uint16_t NetworkClass::getListenTimeout() {
    return network_get_listen_timeout(*this, 0, nullptr);
   b693c:	2200      	movs	r2, #0
   b693e:	6840      	ldr	r0, [r0, #4]
   b6940:	4611      	mov	r1, r2
   b6942:	f7ff be0b 	b.w	b655c <network_get_listen_timeout>

000b6946 <_ZN5spark12NetworkClass9listeningEv>:
}

bool NetworkClass::listening() {
    return network_listening(*this, 0, nullptr);
   b6946:	2200      	movs	r2, #0
   b6948:	6840      	ldr	r0, [r0, #4]
   b694a:	4611      	mov	r1, r2
   b694c:	f7ff bdf6 	b.w	b653c <network_listening>

000b6950 <_ZN5spark12NetworkClass7resolveEPKc>:
}

IPAddress NetworkClass::resolve(const char* name) {
   b6950:	e92d 43f0 	stmdb	sp!, {r4, r5, r6, r7, r8, r9, lr}
   b6954:	b095      	sub	sp, #84	; 0x54
   b6956:	4614      	mov	r4, r2
   b6958:	460d      	mov	r5, r1
   b695a:	4607      	mov	r7, r0
    IPAddress addr;
   b695c:	f7ff ff54 	bl	b6808 <_ZN9IPAddressC1Ev>
#if HAL_USE_INET_HAL_POSIX
    struct addrinfo *ai = nullptr;
   b6960:	2100      	movs	r1, #0
    struct addrinfo hints = {};
   b6962:	221c      	movs	r2, #28
   b6964:	a80d      	add	r0, sp, #52	; 0x34
    struct addrinfo *ai = nullptr;
   b6966:	9100      	str	r1, [sp, #0]
    struct addrinfo hints = {};
   b6968:	f001 f8f4 	bl	b7b54 <memset>
    hints.ai_flags = AI_ADDRCONFIG;
   b696c:	2340      	movs	r3, #64	; 0x40
   b696e:	930c      	str	r3, [sp, #48]	; 0x30
    hints.ai_family = AF_UNSPEC;
    const int r = getaddrinfo(name, nullptr, &hints, &ai);
   b6970:	4620      	mov	r0, r4
   b6972:	466b      	mov	r3, sp
   b6974:	aa0c      	add	r2, sp, #48	; 0x30
   b6976:	2100      	movs	r1, #0
   b6978:	f7ff fc6c 	bl	b6254 <netdb_getaddrinfo>
    if (!r) {
   b697c:	4604      	mov	r4, r0
   b697e:	2800      	cmp	r0, #0
   b6980:	d14b      	bne.n	b6a1a <_ZN5spark12NetworkClass7resolveEPKc+0xca>
        bool ok = false;
        // This is not really needed if AI_ADDRCONFIG is properly supported
        bool ipv4 = network_ready(*this, NETWORK_READY_TYPE_IPV4, nullptr);
   b6982:	4602      	mov	r2, r0
   b6984:	2101      	movs	r1, #1
   b6986:	6868      	ldr	r0, [r5, #4]
   b6988:	f7ff fdb8 	bl	b64fc <network_ready>
        bool ipv6 = network_ready(*this, NETWORK_READY_TYPE_IPV6, nullptr);
   b698c:	2102      	movs	r1, #2
        bool ipv4 = network_ready(*this, NETWORK_READY_TYPE_IPV4, nullptr);
   b698e:	4680      	mov	r8, r0
        bool ipv6 = network_ready(*this, NETWORK_READY_TYPE_IPV6, nullptr);
   b6990:	4622      	mov	r2, r4
   b6992:	6868      	ldr	r0, [r5, #4]
   b6994:	f7ff fdb2 	bl	b64fc <network_ready>
        for (auto cur = ai; cur != nullptr && !ok; cur = cur->ai_next) {
   b6998:	9e00      	ldr	r6, [sp, #0]
        bool ipv6 = network_ready(*this, NETWORK_READY_TYPE_IPV6, nullptr);
   b699a:	4681      	mov	r9, r0
        bool ok = false;
   b699c:	4621      	mov	r1, r4
        for (auto cur = ai; cur != nullptr && !ok; cur = cur->ai_next) {
   b699e:	2e00      	cmp	r6, #0
   b69a0:	d03b      	beq.n	b6a1a <_ZN5spark12NetworkClass7resolveEPKc+0xca>
   b69a2:	2900      	cmp	r1, #0
   b69a4:	d139      	bne.n	b6a1a <_ZN5spark12NetworkClass7resolveEPKc+0xca>
            // NOTE: using only the first entry that matches the current state of IPv4/IPv6 connectivity
            switch (cur->ai_family) {
   b69a6:	6873      	ldr	r3, [r6, #4]
   b69a8:	2b02      	cmp	r3, #2
   b69aa:	d003      	beq.n	b69b4 <_ZN5spark12NetworkClass7resolveEPKc+0x64>
   b69ac:	2b0a      	cmp	r3, #10
   b69ae:	d011      	beq.n	b69d4 <_ZN5spark12NetworkClass7resolveEPKc+0x84>
        for (auto cur = ai; cur != nullptr && !ok; cur = cur->ai_next) {
   b69b0:	69f6      	ldr	r6, [r6, #28]
   b69b2:	e7f4      	b.n	b699e <_ZN5spark12NetworkClass7resolveEPKc+0x4e>
                case AF_INET: {
                    if (!ipv4) {
   b69b4:	f1b8 0f00 	cmp.w	r8, #0
   b69b8:	d0fa      	beq.n	b69b0 <_ZN5spark12NetworkClass7resolveEPKc+0x60>
                        continue;
                    }
                    // NOTE: HAL_IPAddress is little-endian
                    auto in = (struct sockaddr_in*)cur->ai_addr;
                    addr = (const uint8_t*)(&in->sin_addr.s_addr);
   b69ba:	6971      	ldr	r1, [r6, #20]
        return *this = IPAddress(address);
   b69bc:	a806      	add	r0, sp, #24
   b69be:	3104      	adds	r1, #4
class IPAddress : public Printable {
   b69c0:	ad07      	add	r5, sp, #28
        return *this = IPAddress(address);
   b69c2:	f7ff ff71 	bl	b68a8 <_ZN9IPAddressC1EPKh>
class IPAddress : public Printable {
   b69c6:	cd0f      	ldmia	r5!, {r0, r1, r2, r3}
   b69c8:	1d3c      	adds	r4, r7, #4
   b69ca:	c40f      	stmia	r4!, {r0, r1, r2, r3}
   b69cc:	682b      	ldr	r3, [r5, #0]
   b69ce:	7023      	strb	r3, [r4, #0]
                    ok = true;
   b69d0:	4641      	mov	r1, r8
        return *this = IPAddress(address);
   b69d2:	e7ed      	b.n	b69b0 <_ZN5spark12NetworkClass7resolveEPKc+0x60>
                    break;
                }
                case AF_INET6: {
                    if (!ipv6) {
   b69d4:	f1b9 0f00 	cmp.w	r9, #0
   b69d8:	d0ea      	beq.n	b69b0 <_ZN5spark12NetworkClass7resolveEPKc+0x60>
                        continue;
                    }
                    auto in6 = (struct sockaddr_in6*)cur->ai_addr;
   b69da:	6974      	ldr	r4, [r6, #20]
                    HAL_IPAddress a = {};
   b69dc:	2210      	movs	r2, #16
   b69de:	a801      	add	r0, sp, #4
   b69e0:	f001 f8b8 	bl	b7b54 <memset>
                    a.v = 6;
   b69e4:	2306      	movs	r3, #6
   b69e6:	f88d 3014 	strb.w	r3, [sp, #20]
                    memcpy(a.ipv6, in6->sin6_addr.s6_addr, sizeof(a.ipv6));
   b69ea:	ad01      	add	r5, sp, #4
   b69ec:	f104 0308 	add.w	r3, r4, #8
   b69f0:	3418      	adds	r4, #24
   b69f2:	6818      	ldr	r0, [r3, #0]
   b69f4:	6859      	ldr	r1, [r3, #4]
   b69f6:	462a      	mov	r2, r5
   b69f8:	c203      	stmia	r2!, {r0, r1}
   b69fa:	3308      	adds	r3, #8
   b69fc:	42a3      	cmp	r3, r4
   b69fe:	4615      	mov	r5, r2
   b6a00:	d1f7      	bne.n	b69f2 <_ZN5spark12NetworkClass7resolveEPKc+0xa2>
                    addr = IPAddress(a);
   b6a02:	a901      	add	r1, sp, #4
   b6a04:	a806      	add	r0, sp, #24
class IPAddress : public Printable {
   b6a06:	ad07      	add	r5, sp, #28
   b6a08:	f7ff ff0c 	bl	b6824 <_ZN9IPAddressC1ERK16_HAL_IPAddress_t>
   b6a0c:	cd0f      	ldmia	r5!, {r0, r1, r2, r3}
   b6a0e:	1d3c      	adds	r4, r7, #4
   b6a10:	c40f      	stmia	r4!, {r0, r1, r2, r3}
   b6a12:	682b      	ldr	r3, [r5, #0]
   b6a14:	7023      	strb	r3, [r4, #0]
                    ok = true;
   b6a16:	4649      	mov	r1, r9
   b6a18:	e7ca      	b.n	b69b0 <_ZN5spark12NetworkClass7resolveEPKc+0x60>
                    break;
                }
            }
        }
    }
    freeaddrinfo(ai);
   b6a1a:	9800      	ldr	r0, [sp, #0]
   b6a1c:	f7ff fc12 	bl	b6244 <netdb_freeaddrinfo>
    return Cellular.resolve(name);
#endif // Wiring_Cellular

#endif // HAL_USE_INET_HAL_POSIX
    return addr;
}
   b6a20:	4638      	mov	r0, r7
   b6a22:	b015      	add	sp, #84	; 0x54
   b6a24:	e8bd 83f0 	ldmia.w	sp!, {r4, r5, r6, r7, r8, r9, pc}

000b6a28 <_GLOBAL__sub_I__ZN5spark7NetworkE>:
   b6a28:	4b02      	ldr	r3, [pc, #8]	; (b6a34 <_GLOBAL__sub_I__ZN5spark7NetworkE+0xc>)
   b6a2a:	4a03      	ldr	r2, [pc, #12]	; (b6a38 <_GLOBAL__sub_I__ZN5spark7NetworkE+0x10>)
   b6a2c:	601a      	str	r2, [r3, #0]
   b6a2e:	2200      	movs	r2, #0
   b6a30:	605a      	str	r2, [r3, #4]

} // spark
   b6a32:	4770      	bx	lr
   b6a34:	2003e6d4 	.word	0x2003e6d4
   b6a38:	000b8e74 	.word	0x000b8e74

000b6a3c <_ZN5Print5writeEPKhj>:

// Public Methods //////////////////////////////////////////////////////////////

/* default implementation: may be overridden */
size_t Print::write(const uint8_t *buffer, size_t size)
{
   b6a3c:	b5f8      	push	{r3, r4, r5, r6, r7, lr}
   b6a3e:	4606      	mov	r6, r0
   b6a40:	460d      	mov	r5, r1
  size_t n = 0;
   b6a42:	188f      	adds	r7, r1, r2
   b6a44:	2400      	movs	r4, #0
  while (size--) {
   b6a46:	42bd      	cmp	r5, r7
   b6a48:	d00c      	beq.n	b6a64 <_ZN5Print5writeEPKhj+0x28>
     int chunk = write(*buffer++);
   b6a4a:	6833      	ldr	r3, [r6, #0]
   b6a4c:	f815 1b01 	ldrb.w	r1, [r5], #1
   b6a50:	689b      	ldr	r3, [r3, #8]
   b6a52:	4630      	mov	r0, r6
   b6a54:	4798      	blx	r3
     if (chunk>=0)
   b6a56:	1e03      	subs	r3, r0, #0
   b6a58:	db01      	blt.n	b6a5e <_ZN5Print5writeEPKhj+0x22>
         n += chunk;
   b6a5a:	441c      	add	r4, r3
  while (size--) {
   b6a5c:	e7f3      	b.n	b6a46 <_ZN5Print5writeEPKhj+0xa>
     int chunk = write(*buffer++);
   b6a5e:	2c00      	cmp	r4, #0
   b6a60:	bf08      	it	eq
   b6a62:	461c      	moveq	r4, r3
             n = chunk;
         break;
     }
  }
  return n;
}
   b6a64:	4620      	mov	r0, r4
   b6a66:	bdf8      	pop	{r3, r4, r5, r6, r7, pc}

000b6a68 <_ZN5Print5writeEPKc>:
    size_t write(const char *str) {
   b6a68:	b513      	push	{r0, r1, r4, lr}
   b6a6a:	4604      	mov	r4, r0
    }
   b6a6c:	4608      	mov	r0, r1
      if (str == NULL) return 0;
   b6a6e:	b159      	cbz	r1, b6a88 <_ZN5Print5writeEPKc+0x20>
      return write((const uint8_t *)str, strlen(str));
   b6a70:	9101      	str	r1, [sp, #4]
   b6a72:	f001 f8af 	bl	b7bd4 <strlen>
   b6a76:	6823      	ldr	r3, [r4, #0]
   b6a78:	9901      	ldr	r1, [sp, #4]
   b6a7a:	68db      	ldr	r3, [r3, #12]
   b6a7c:	4602      	mov	r2, r0
   b6a7e:	4620      	mov	r0, r4
    }
   b6a80:	b002      	add	sp, #8
   b6a82:	e8bd 4010 	ldmia.w	sp!, {r4, lr}
      return write((const uint8_t *)str, strlen(str));
   b6a86:	4718      	bx	r3
    }
   b6a88:	b002      	add	sp, #8
   b6a8a:	bd10      	pop	{r4, pc}

000b6a8c <_ZN5Print5printEPKc>:

size_t Print::print(const char str[])
{
   b6a8c:	b508      	push	{r3, lr}
  return write(str);
   b6a8e:	f7ff ffeb 	bl	b6a68 <_ZN5Print5writeEPKc>
}
   b6a92:	bd08      	pop	{r3, pc}

000b6a94 <_ZN5Print5printEc>:

size_t Print::print(char c)
{
  return write(c);
   b6a94:	6803      	ldr	r3, [r0, #0]
   b6a96:	689b      	ldr	r3, [r3, #8]
   b6a98:	4718      	bx	r3

000b6a9a <_ZN5Print7printlnEv>:
{
  return print(reinterpret_cast<const char*>(str));
}

size_t Print::println(void)
{
   b6a9a:	b538      	push	{r3, r4, r5, lr}
  size_t n = print('\r');
   b6a9c:	210d      	movs	r1, #13
{
   b6a9e:	4605      	mov	r5, r0
  size_t n = print('\r');
   b6aa0:	f7ff fff8 	bl	b6a94 <_ZN5Print5printEc>
  n += print('\n');
   b6aa4:	210a      	movs	r1, #10
  size_t n = print('\r');
   b6aa6:	4604      	mov	r4, r0
  n += print('\n');
   b6aa8:	4628      	mov	r0, r5
   b6aaa:	f7ff fff3 	bl	b6a94 <_ZN5Print5printEc>
  return n;
}
   b6aae:	4420      	add	r0, r4
   b6ab0:	bd38      	pop	{r3, r4, r5, pc}

000b6ab2 <_ZN5Print11printNumberEmh>:
  return println(reinterpret_cast<const char*>(str));
}

// Private Methods /////////////////////////////////////////////////////////////

size_t Print::printNumber(unsigned long n, uint8_t base) {
   b6ab2:	b530      	push	{r4, r5, lr}
   b6ab4:	b08b      	sub	sp, #44	; 0x2c
  char buf[8 * sizeof(n) + 1]; // Assumes 8-bit chars plus zero byte.
  char *str = &buf[sizeof(buf) - 1];

  *str = '\0';
   b6ab6:	2300      	movs	r3, #0

  // prevent crash if called with base == 1
  if (base < 2) base = 10;
   b6ab8:	2a01      	cmp	r2, #1
  *str = '\0';
   b6aba:	f88d 3024 	strb.w	r3, [sp, #36]	; 0x24
  if (base < 2) base = 10;
   b6abe:	bf98      	it	ls
   b6ac0:	220a      	movls	r2, #10
   b6ac2:	ac09      	add	r4, sp, #36	; 0x24

  do {
   decltype(n) m = n;
   n /= base;
   b6ac4:	460d      	mov	r5, r1
   b6ac6:	fbb1 f1f2 	udiv	r1, r1, r2
   char c = m - base * n;
   b6aca:	fb01 5312 	mls	r3, r1, r2, r5
   b6ace:	f003 03ff 	and.w	r3, r3, #255	; 0xff
   *--str = c < 10 ? c + '0' : c + 'A' - 10;
   b6ad2:	2b09      	cmp	r3, #9
   b6ad4:	bf94      	ite	ls
   b6ad6:	3330      	addls	r3, #48	; 0x30
   b6ad8:	3337      	addhi	r3, #55	; 0x37
   b6ada:	b2db      	uxtb	r3, r3
  } while(n);
   b6adc:	42aa      	cmp	r2, r5
   *--str = c < 10 ? c + '0' : c + 'A' - 10;
   b6ade:	f804 3d01 	strb.w	r3, [r4, #-1]!
  } while(n);
   b6ae2:	d9ef      	bls.n	b6ac4 <_ZN5Print11printNumberEmh+0x12>

  return write(str);
   b6ae4:	4621      	mov	r1, r4
   b6ae6:	f7ff ffbf 	bl	b6a68 <_ZN5Print5writeEPKc>
}
   b6aea:	b00b      	add	sp, #44	; 0x2c
   b6aec:	bd30      	pop	{r4, r5, pc}

000b6aee <_ZN5Print7vprintfEbPKcSt9__va_list>:

  return n;
}

size_t Print::vprintf(bool newline, const char* format, va_list args)
{
   b6aee:	e92d 41f0 	stmdb	sp!, {r4, r5, r6, r7, r8, lr}
   b6af2:	b086      	sub	sp, #24
   b6af4:	af00      	add	r7, sp, #0
   b6af6:	4605      	mov	r5, r0
   b6af8:	460e      	mov	r6, r1
    const int bufsize = 20;
    char test[bufsize];
    va_list args2;
    va_copy(args2, args);
    size_t n = vsnprintf(test, bufsize, format, args);
   b6afa:	1d38      	adds	r0, r7, #4
   b6afc:	2114      	movs	r1, #20
{
   b6afe:	4614      	mov	r4, r2
    va_copy(args2, args);
   b6b00:	603b      	str	r3, [r7, #0]
    size_t n = vsnprintf(test, bufsize, format, args);
   b6b02:	f7ff fd5b 	bl	b65bc <vsnprintf>

    if (n<bufsize)
   b6b06:	2813      	cmp	r0, #19
   b6b08:	d80e      	bhi.n	b6b28 <_ZN5Print7vprintfEbPKcSt9__va_list+0x3a>
  return write(str);
   b6b0a:	1d39      	adds	r1, r7, #4
   b6b0c:	4628      	mov	r0, r5
   b6b0e:	f7ff ffab 	bl	b6a68 <_ZN5Print5writeEPKc>
   b6b12:	4604      	mov	r4, r0
    {
        char bigger[n+1];
        n = vsnprintf(bigger, n+1, format, args2);
        n = print(bigger);
    }
    if (newline)
   b6b14:	b11e      	cbz	r6, b6b1e <_ZN5Print7vprintfEbPKcSt9__va_list+0x30>
        n += println();
   b6b16:	4628      	mov	r0, r5
   b6b18:	f7ff ffbf 	bl	b6a9a <_ZN5Print7printlnEv>
   b6b1c:	4404      	add	r4, r0

    va_end(args2);
    return n;
}
   b6b1e:	4620      	mov	r0, r4
   b6b20:	3718      	adds	r7, #24
   b6b22:	46bd      	mov	sp, r7
   b6b24:	e8bd 81f0 	ldmia.w	sp!, {r4, r5, r6, r7, r8, pc}
        char bigger[n+1];
   b6b28:	f100 0308 	add.w	r3, r0, #8
   b6b2c:	f023 0307 	bic.w	r3, r3, #7
        n = print(bigger);
   b6b30:	46e8      	mov	r8, sp
        char bigger[n+1];
   b6b32:	ebad 0d03 	sub.w	sp, sp, r3
        n = vsnprintf(bigger, n+1, format, args2);
   b6b36:	4622      	mov	r2, r4
   b6b38:	1c41      	adds	r1, r0, #1
   b6b3a:	683b      	ldr	r3, [r7, #0]
   b6b3c:	4668      	mov	r0, sp
   b6b3e:	f7ff fd3d 	bl	b65bc <vsnprintf>
  return write(str);
   b6b42:	4669      	mov	r1, sp
   b6b44:	4628      	mov	r0, r5
   b6b46:	f7ff ff8f 	bl	b6a68 <_ZN5Print5writeEPKc>
   b6b4a:	4604      	mov	r4, r0
   b6b4c:	46c5      	mov	sp, r8
   b6b4e:	e7e1      	b.n	b6b14 <_ZN5Print7vprintfEbPKcSt9__va_list+0x26>

000b6b50 <_GLOBAL__sub_I_RGB>:
	static void
	_M_init_functor(_Any_data& __functor, _Functor&& __f, false_type)
	{ __functor._M_access<_Functor*>() = new _Functor(std::move(__f)); }
      };

    _Function_base() : _M_manager(nullptr) { }
   b6b50:	4b01      	ldr	r3, [pc, #4]	; (b6b58 <_GLOBAL__sub_I_RGB+0x8>)
   b6b52:	2200      	movs	r2, #0
   b6b54:	609a      	str	r2, [r3, #8]
{
    RGBClass* const d = static_cast<RGBClass*>(data);
    if (d->changeHandler_) {
        d->changeHandler_(r, g, b);
    }
}
   b6b56:	4770      	bx	lr
   b6b58:	2003e6dc 	.word	0x2003e6dc

000b6b5c <_ZN8SPIClass6unlockEv.isra.0>:
  }

  void unlock()
  {
#if HAL_PLATFORM_SPI_HAL_THREAD_SAFETY
    hal_spi_release(_spi, nullptr);
   b6b5c:	2100      	movs	r1, #0
   b6b5e:	f7ff bbe9 	b.w	b6334 <hal_spi_release>

000b6b62 <_ZN8SPIClass4lockEv.isra.0>:
    return hal_spi_acquire(_spi, nullptr);
   b6b62:	2100      	movs	r1, #0
   b6b64:	f7ff bbde 	b.w	b6324 <hal_spi_acquire>

000b6b68 <_ZN8SPIClassC1E19hal_spi_interface_t>:
    }
    return particle::SPISettings(info->clock, info->bit_order, info->data_mode);
}
} // namespace

SPIClass::SPIClass(hal_spi_interface_t spi)
   b6b68:	b510      	push	{r4, lr}
   b6b6a:	4604      	mov	r4, r0
   b6b6c:	4608      	mov	r0, r1
{
    _spi = spi;
   b6b6e:	7021      	strb	r1, [r4, #0]
    hal_spi_init(_spi);
   b6b70:	f7ff fbb8 	bl	b62e4 <hal_spi_init>
    _dividerReference = SPI_CLK_SYSTEM; // 0 indicates the system clock
   b6b74:	2300      	movs	r3, #0
   b6b76:	6063      	str	r3, [r4, #4]
}
   b6b78:	4620      	mov	r0, r4
   b6b7a:	bd10      	pop	{r4, pc}

000b6b7c <_ZN8SPIClass5beginEv>:

void SPIClass::begin()
{
   b6b7c:	b513      	push	{r0, r1, r4, lr}
   b6b7e:	4604      	mov	r4, r0
    // TODO: Fetch default pin from HAL
    if (!lock())
   b6b80:	7800      	ldrb	r0, [r0, #0]
   b6b82:	f7ff ffee 	bl	b6b62 <_ZN8SPIClass4lockEv.isra.0>
   b6b86:	b958      	cbnz	r0, b6ba0 <_ZN8SPIClass5beginEv+0x24>
   b6b88:	7820      	ldrb	r0, [r4, #0]
    {
        hal_spi_begin(_spi, SPI_DEFAULT_SS);
   b6b8a:	9001      	str	r0, [sp, #4]
   b6b8c:	f64f 71ff 	movw	r1, #65535	; 0xffff
   b6b90:	f7ff fb98 	bl	b62c4 <hal_spi_begin>
        unlock();
   b6b94:	9801      	ldr	r0, [sp, #4]
    }
}
   b6b96:	b002      	add	sp, #8
   b6b98:	e8bd 4010 	ldmia.w	sp!, {r4, lr}
   b6b9c:	f7ff bfde 	b.w	b6b5c <_ZN8SPIClass6unlockEv.isra.0>
   b6ba0:	b002      	add	sp, #8
   b6ba2:	bd10      	pop	{r4, pc}

000b6ba4 <_ZN8SPIClass14endTransactionEv>:
}

void SPIClass::endTransaction()
{
    // Release peripheral
    unlock();
   b6ba4:	7800      	ldrb	r0, [r0, #0]
   b6ba6:	f7ff bfd9 	b.w	b6b5c <_ZN8SPIClass6unlockEv.isra.0>
	...

000b6bac <_ZN8SPIClass19computeClockDividerEjjRhRj>:
void SPIClass::computeClockDivider(unsigned reference, unsigned targetSpeed, uint8_t& divider,
                                   unsigned& clock)
{
    clock = reference;
    uint8_t scale = 0;
    clock >>= 1; // div2 is the first
   b6bac:	0840      	lsrs	r0, r0, #1
{
   b6bae:	b530      	push	{r4, r5, lr}
    clock >>= 1; // div2 is the first
   b6bb0:	6018      	str	r0, [r3, #0]
   b6bb2:	2400      	movs	r4, #0
    while (clock > targetSpeed && scale < 7)
   b6bb4:	6818      	ldr	r0, [r3, #0]
   b6bb6:	4288      	cmp	r0, r1
   b6bb8:	b2e5      	uxtb	r5, r4
   b6bba:	d906      	bls.n	b6bca <_ZN8SPIClass19computeClockDividerEjjRhRj+0x1e>
   b6bbc:	3401      	adds	r4, #1
   b6bbe:	2c08      	cmp	r4, #8
   b6bc0:	d002      	beq.n	b6bc8 <_ZN8SPIClass19computeClockDividerEjjRhRj+0x1c>
    {
        clock >>= 1;
   b6bc2:	0840      	lsrs	r0, r0, #1
   b6bc4:	6018      	str	r0, [r3, #0]
    while (clock > targetSpeed && scale < 7)
   b6bc6:	e7f5      	b.n	b6bb4 <_ZN8SPIClass19computeClockDividerEjjRhRj+0x8>
   b6bc8:	2507      	movs	r5, #7
        scale++;
    }
    divider = clock_divisors[scale];
   b6bca:	4b02      	ldr	r3, [pc, #8]	; (b6bd4 <_ZN8SPIClass19computeClockDividerEjjRhRj+0x28>)
   b6bcc:	5d5b      	ldrb	r3, [r3, r5]
   b6bce:	7013      	strb	r3, [r2, #0]
}
   b6bd0:	bd30      	pop	{r4, r5, pc}
   b6bd2:	bf00      	nop
   b6bd4:	000b8ea8 	.word	0x000b8ea8

000b6bd8 <_ZN8SPIClass16beginTransactionERKN8particle11SPISettingsE>:
{
   b6bd8:	e92d 43f0 	stmdb	sp!, {r4, r5, r6, r7, r8, r9, lr}
   b6bdc:	4606      	mov	r6, r0
   b6bde:	b08f      	sub	sp, #60	; 0x3c
    CHECK(lock());
   b6be0:	7800      	ldrb	r0, [r0, #0]
{
   b6be2:	460c      	mov	r4, r1
    CHECK(lock());
   b6be4:	f7ff ffbd 	bl	b6b62 <_ZN8SPIClass4lockEv.isra.0>
   b6be8:	2800      	cmp	r0, #0
   b6bea:	db1b      	blt.n	b6c24 <_ZN8SPIClass16beginTransactionERKN8particle11SPISettingsE+0x4c>
    querySpiInfo(_spi, &spi_info);
   b6bec:	7835      	ldrb	r5, [r6, #0]
    memset(info, 0, sizeof(hal_spi_info_t));
   b6bee:	2214      	movs	r2, #20
   b6bf0:	2100      	movs	r1, #0
   b6bf2:	a809      	add	r0, sp, #36	; 0x24
   b6bf4:	f000 ffae 	bl	b7b54 <memset>
    info->version = HAL_SPI_INFO_VERSION_1;
   b6bf8:	230b      	movs	r3, #11
    hal_spi_info(spi, info, nullptr);
   b6bfa:	2200      	movs	r2, #0
   b6bfc:	a909      	add	r1, sp, #36	; 0x24
   b6bfe:	4628      	mov	r0, r5
    info->version = HAL_SPI_INFO_VERSION_1;
   b6c00:	f8ad 3024 	strh.w	r3, [sp, #36]	; 0x24
    hal_spi_info(spi, info, nullptr);
   b6c04:	f7ff fb7e 	bl	b6304 <hal_spi_info>
    if (!info || !info->enabled || info->default_settings)
   b6c08:	f89d 302d 	ldrb.w	r3, [sp, #45]	; 0x2d
   b6c0c:	b113      	cbz	r3, b6c14 <_ZN8SPIClass16beginTransactionERKN8particle11SPISettingsE+0x3c>
   b6c0e:	f89d 502c 	ldrb.w	r5, [sp, #44]	; 0x2c
   b6c12:	b155      	cbz	r5, b6c2a <_ZN8SPIClass16beginTransactionERKN8particle11SPISettingsE+0x52>
  {
   b6c14:	2700      	movs	r7, #0
   b6c16:	46b9      	mov	r9, r7
   b6c18:	46b8      	mov	r8, r7
   b6c1a:	2501      	movs	r5, #1
    if (default_ && other.default_)
   b6c1c:	7923      	ldrb	r3, [r4, #4]
   b6c1e:	b15d      	cbz	r5, b6c38 <_ZN8SPIClass16beginTransactionERKN8particle11SPISettingsE+0x60>
   b6c20:	b1c3      	cbz	r3, b6c54 <_ZN8SPIClass16beginTransactionERKN8particle11SPISettingsE+0x7c>
    return 0;
   b6c22:	2000      	movs	r0, #0
}
   b6c24:	b00f      	add	sp, #60	; 0x3c
   b6c26:	e8bd 83f0 	ldmia.w	sp!, {r4, r5, r6, r7, r8, r9, pc}
    return particle::SPISettings(info->clock, info->bit_order, info->data_mode);
   b6c2a:	f8dd 8030 	ldr.w	r8, [sp, #48]	; 0x30
   b6c2e:	f89d 9034 	ldrb.w	r9, [sp, #52]	; 0x34
   b6c32:	f89d 7035 	ldrb.w	r7, [sp, #53]	; 0x35
  }
   b6c36:	e7f1      	b.n	b6c1c <_ZN8SPIClass16beginTransactionERKN8particle11SPISettingsE+0x44>
    if (default_ == other.default_ &&
   b6c38:	2b00      	cmp	r3, #0
   b6c3a:	d135      	bne.n	b6ca8 <_ZN8SPIClass16beginTransactionERKN8particle11SPISettingsE+0xd0>
   b6c3c:	68a3      	ldr	r3, [r4, #8]
   b6c3e:	4543      	cmp	r3, r8
   b6c40:	d108      	bne.n	b6c54 <_ZN8SPIClass16beginTransactionERKN8particle11SPISettingsE+0x7c>
        bitOrder_ == other.bitOrder_ &&
   b6c42:	f88d 9020 	strb.w	r9, [sp, #32]
   b6c46:	f88d 7021 	strb.w	r7, [sp, #33]	; 0x21
   b6c4a:	f8bd 2020 	ldrh.w	r2, [sp, #32]
   b6c4e:	89a3      	ldrh	r3, [r4, #12]
   b6c50:	429a      	cmp	r2, r3
   b6c52:	d0e6      	beq.n	b6c22 <_ZN8SPIClass16beginTransactionERKN8particle11SPISettingsE+0x4a>
            uint8_t divisor = 0;
   b6c54:	2300      	movs	r3, #0
            computeClockDivider((unsigned int)spi_info.system_clock, settings.clock_, divisor,
   b6c56:	68a1      	ldr	r1, [r4, #8]
            uint8_t divisor = 0;
   b6c58:	f88d 300f 	strb.w	r3, [sp, #15]
            computeClockDivider((unsigned int)spi_info.system_clock, settings.clock_, divisor,
   b6c5c:	980a      	ldr	r0, [sp, #40]	; 0x28
   b6c5e:	ab04      	add	r3, sp, #16
   b6c60:	f10d 020f 	add.w	r2, sp, #15
   b6c64:	f7ff ffa2 	bl	b6bac <_ZN8SPIClass19computeClockDividerEjjRhRj>
    if (default_ && other.default_)
   b6c68:	7921      	ldrb	r1, [r4, #4]
   b6c6a:	b985      	cbnz	r5, b6c8e <_ZN8SPIClass16beginTransactionERKN8particle11SPISettingsE+0xb6>
    if (default_ == other.default_ &&
   b6c6c:	b989      	cbnz	r1, b6c92 <_ZN8SPIClass16beginTransactionERKN8particle11SPISettingsE+0xba>
   b6c6e:	68a3      	ldr	r3, [r4, #8]
   b6c70:	4543      	cmp	r3, r8
   b6c72:	d30e      	bcc.n	b6c92 <_ZN8SPIClass16beginTransactionERKN8particle11SPISettingsE+0xba>
        bitOrder_ == other.bitOrder_ &&
   b6c74:	f88d 9020 	strb.w	r9, [sp, #32]
   b6c78:	f88d 7021 	strb.w	r7, [sp, #33]	; 0x21
   b6c7c:	f8bd 2020 	ldrh.w	r2, [sp, #32]
   b6c80:	89a3      	ldrh	r3, [r4, #12]
   b6c82:	429a      	cmp	r2, r3
   b6c84:	d105      	bne.n	b6c92 <_ZN8SPIClass16beginTransactionERKN8particle11SPISettingsE+0xba>
            if (!(spi_settings <= settings && clock == spi_settings.clock_))
   b6c86:	9b04      	ldr	r3, [sp, #16]
   b6c88:	4543      	cmp	r3, r8
   b6c8a:	d102      	bne.n	b6c92 <_ZN8SPIClass16beginTransactionERKN8particle11SPISettingsE+0xba>
   b6c8c:	e7c9      	b.n	b6c22 <_ZN8SPIClass16beginTransactionERKN8particle11SPISettingsE+0x4a>
    if (default_ && other.default_)
   b6c8e:	2900      	cmp	r1, #0
   b6c90:	d1f9      	bne.n	b6c86 <_ZN8SPIClass16beginTransactionERKN8particle11SPISettingsE+0xae>
                hal_spi_set_settings(_spi, settings.default_, divisor, settings.bitOrder_,
   b6c92:	2300      	movs	r3, #0
   b6c94:	9301      	str	r3, [sp, #4]
   b6c96:	7b63      	ldrb	r3, [r4, #13]
   b6c98:	9300      	str	r3, [sp, #0]
   b6c9a:	f89d 200f 	ldrb.w	r2, [sp, #15]
   b6c9e:	7b23      	ldrb	r3, [r4, #12]
            hal_spi_set_settings(_spi, settings.default_, 0, 0, 0, nullptr);
   b6ca0:	7830      	ldrb	r0, [r6, #0]
   b6ca2:	f7ff fb37 	bl	b6314 <hal_spi_set_settings>
   b6ca6:	e7bc      	b.n	b6c22 <_ZN8SPIClass16beginTransactionERKN8particle11SPISettingsE+0x4a>
   b6ca8:	e9cd 5500 	strd	r5, r5, [sp]
   b6cac:	462b      	mov	r3, r5
   b6cae:	462a      	mov	r2, r5
   b6cb0:	2101      	movs	r1, #1
   b6cb2:	e7f5      	b.n	b6ca0 <_ZN8SPIClass16beginTransactionERKN8particle11SPISettingsE+0xc8>

000b6cb4 <_ZN8SPIClass8transferEh>:

    return clock;
}

byte SPIClass::transfer(byte _data)
{
   b6cb4:	b508      	push	{r3, lr}
    return static_cast<byte>(hal_spi_transfer(_spi, _data));
   b6cb6:	7800      	ldrb	r0, [r0, #0]
   b6cb8:	f7ff fb0c 	bl	b62d4 <hal_spi_transfer>
}
   b6cbc:	b2c0      	uxtb	r0, r0
   b6cbe:	bd08      	pop	{r3, pc}

000b6cc0 <_ZN6Stream9timedReadEv>:
#define PARSE_TIMEOUT 1000  // default number of milli-seconds to wait
#define NO_SKIP_CHAR  1  // a magic char not found in a valid ASCII numeric field

// private method to read stream with timeout
int Stream::timedRead()
{
   b6cc0:	b510      	push	{r4, lr}
   b6cc2:	4604      	mov	r4, r0

#ifdef __cplusplus
extern "C" {
#endif

inline system_tick_t millis(void) { return HAL_Timer_Get_Milli_Seconds(); }
   b6cc4:	f7ff f9f6 	bl	b60b4 <HAL_Timer_Get_Milli_Seconds>
  int c;
  _startMillis = millis();
   b6cc8:	60e0      	str	r0, [r4, #12]
  do {
    c = read();
   b6cca:	6823      	ldr	r3, [r4, #0]
   b6ccc:	4620      	mov	r0, r4
   b6cce:	695b      	ldr	r3, [r3, #20]
   b6cd0:	4798      	blx	r3
    if (c >= 0) return c;
   b6cd2:	2800      	cmp	r0, #0
   b6cd4:	da08      	bge.n	b6ce8 <_ZN6Stream9timedReadEv+0x28>
   b6cd6:	f7ff f9ed 	bl	b60b4 <HAL_Timer_Get_Milli_Seconds>
  } while(millis() - _startMillis < _timeout);
   b6cda:	68e3      	ldr	r3, [r4, #12]
   b6cdc:	1ac0      	subs	r0, r0, r3
   b6cde:	68a3      	ldr	r3, [r4, #8]
   b6ce0:	4298      	cmp	r0, r3
   b6ce2:	d3f2      	bcc.n	b6cca <_ZN6Stream9timedReadEv+0xa>
  return -1;     // -1 indicates timeout
   b6ce4:	f04f 30ff 	mov.w	r0, #4294967295	; 0xffffffff
}
   b6ce8:	bd10      	pop	{r4, pc}

000b6cea <_ZN6Stream9readBytesEPcj>:
// terminates if length characters have been read, or timeout (see setTimeout)
// returns the number of characters placed in the buffer
// the buffer is NOT null terminated.
//
size_t Stream::readBytes(char *buffer, size_t length)
{
   b6cea:	e92d 41f0 	stmdb	sp!, {r4, r5, r6, r7, r8, lr}
   b6cee:	4607      	mov	r7, r0
   b6cf0:	460c      	mov	r4, r1
   b6cf2:	188e      	adds	r6, r1, r2
   b6cf4:	460d      	mov	r5, r1
  size_t count = 0;
  while (count < length) {
   b6cf6:	42b5      	cmp	r5, r6
   b6cf8:	eba5 0804 	sub.w	r8, r5, r4
   b6cfc:	d007      	beq.n	b6d0e <_ZN6Stream9readBytesEPcj+0x24>
    int c = timedRead();
   b6cfe:	4638      	mov	r0, r7
   b6d00:	f7ff ffde 	bl	b6cc0 <_ZN6Stream9timedReadEv>
    if (c < 0) break;
   b6d04:	1e03      	subs	r3, r0, #0
   b6d06:	db02      	blt.n	b6d0e <_ZN6Stream9readBytesEPcj+0x24>
    *buffer++ = (char)c;
   b6d08:	f805 3b01 	strb.w	r3, [r5], #1
  while (count < length) {
   b6d0c:	e7f3      	b.n	b6cf6 <_ZN6Stream9readBytesEPcj+0xc>
    count++;
  }
  return count;
}
   b6d0e:	4640      	mov	r0, r8
   b6d10:	e8bd 81f0 	ldmia.w	sp!, {r4, r5, r6, r7, r8, pc}

000b6d14 <_GLOBAL__sub_I_System>:
} // namespace particle

// particle::Flag<TagT, ValueT>
template<typename TagT, typename ValueT>
inline particle::Flag<TagT, ValueT>::Flag(ValueT val) :
        val_(val) {
   b6d14:	4b05      	ldr	r3, [pc, #20]	; (b6d2c <_GLOBAL__sub_I_System+0x18>)
   b6d16:	2202      	movs	r2, #2
   b6d18:	601a      	str	r2, [r3, #0]

class SystemSleepResult {
public:
    SystemSleepResult()
            : wakeupSource_(nullptr),
              error_(SYSTEM_ERROR_NONE) {
   b6d1a:	4b05      	ldr	r3, [pc, #20]	; (b6d30 <_GLOBAL__sub_I_System+0x1c>)
    SleepResult() {}
   b6d1c:	4a05      	ldr	r2, [pc, #20]	; (b6d34 <_GLOBAL__sub_I_System+0x20>)
   b6d1e:	609a      	str	r2, [r3, #8]
              error_(SYSTEM_ERROR_NONE) {
   b6d20:	2000      	movs	r0, #0
   b6d22:	e9c3 0000 	strd	r0, r0, [r3]

class SystemClass {
public:

    SystemClass(System_Mode_TypeDef mode = DEFAULT) {
        set_system_mode(mode);
   b6d26:	f7ff bb95 	b.w	b6454 <set_system_mode>
   b6d2a:	bf00      	nop
   b6d2c:	2003e6f8 	.word	0x2003e6f8
   b6d30:	2003e6ec 	.word	0x2003e6ec
   b6d34:	ffff0000 	.word	0xffff0000

000b6d38 <_ZN9TCPClient5writeEh>:
    done.dismiss();

    return 1; // success
}

size_t TCPClient::write(uint8_t b) {
   b6d38:	b513      	push	{r0, r1, r4, lr}
    return write(&b, 1, SOCKET_WAIT_FOREVER);
   b6d3a:	6803      	ldr	r3, [r0, #0]
size_t TCPClient::write(uint8_t b) {
   b6d3c:	f88d 1007 	strb.w	r1, [sp, #7]
    return write(&b, 1, SOCKET_WAIT_FOREVER);
   b6d40:	6bdc      	ldr	r4, [r3, #60]	; 0x3c
   b6d42:	2201      	movs	r2, #1
   b6d44:	f04f 33ff 	mov.w	r3, #4294967295	; 0xffffffff
   b6d48:	f10d 0107 	add.w	r1, sp, #7
   b6d4c:	47a0      	blx	r4
}
   b6d4e:	b002      	add	sp, #8
   b6d50:	bd10      	pop	{r4, pc}

000b6d52 <_ZN9TCPClient5writeEPKhj>:

size_t TCPClient::write(const uint8_t *buffer, size_t size) {
   b6d52:	b410      	push	{r4}
    return write(buffer, size, SOCKET_WAIT_FOREVER);
   b6d54:	6803      	ldr	r3, [r0, #0]
   b6d56:	6bdc      	ldr	r4, [r3, #60]	; 0x3c
   b6d58:	f04f 33ff 	mov.w	r3, #4294967295	; 0xffffffff
   b6d5c:	46a4      	mov	ip, r4
}
   b6d5e:	f85d 4b04 	ldr.w	r4, [sp], #4
    return write(buffer, size, SOCKET_WAIT_FOREVER);
   b6d62:	4760      	bx	ip

000b6d64 <_ZN9TCPClient5writeEhm>:

size_t TCPClient::write(uint8_t b, system_tick_t timeout) {
   b6d64:	b513      	push	{r0, r1, r4, lr}
   b6d66:	4613      	mov	r3, r2
    return write(&b, 1, timeout);
   b6d68:	6802      	ldr	r2, [r0, #0]
size_t TCPClient::write(uint8_t b, system_tick_t timeout) {
   b6d6a:	f88d 1007 	strb.w	r1, [sp, #7]
    return write(&b, 1, timeout);
   b6d6e:	6bd4      	ldr	r4, [r2, #60]	; 0x3c
   b6d70:	f10d 0107 	add.w	r1, sp, #7
   b6d74:	2201      	movs	r2, #1
   b6d76:	47a0      	blx	r4
}
   b6d78:	b002      	add	sp, #8
   b6d7a:	bd10      	pop	{r4, pc}

000b6d7c <_ZN9TCPClient4readEv>:
    } // isOpen(d_->sock)
    avail = bufferCount();
    return avail;
}

int TCPClient::read() {
   b6d7c:	b510      	push	{r4, lr}
        { __shared_ptr(__p, std::move(__d), std::move(__a)).swap(*this); }

      /// Return the stored pointer.
      element_type*
      get() const noexcept
      { return _M_ptr; }
   b6d7e:	6943      	ldr	r3, [r0, #20]
    return (bufferCount() || available()) ? d_->buffer[d_->offset++] : -1;
   b6d80:	f8b3 2086 	ldrh.w	r2, [r3, #134]	; 0x86
   b6d84:	f8b3 3084 	ldrh.w	r3, [r3, #132]	; 0x84
   b6d88:	429a      	cmp	r2, r3
int TCPClient::read() {
   b6d8a:	4604      	mov	r4, r0
    return (bufferCount() || available()) ? d_->buffer[d_->offset++] : -1;
   b6d8c:	d008      	beq.n	b6da0 <_ZN9TCPClient4readEv+0x24>
   b6d8e:	6963      	ldr	r3, [r4, #20]
   b6d90:	f8b3 2084 	ldrh.w	r2, [r3, #132]	; 0x84
   b6d94:	1c51      	adds	r1, r2, #1
   b6d96:	f8a3 1084 	strh.w	r1, [r3, #132]	; 0x84
   b6d9a:	4413      	add	r3, r2
   b6d9c:	7918      	ldrb	r0, [r3, #4]
}
   b6d9e:	bd10      	pop	{r4, pc}
    return (bufferCount() || available()) ? d_->buffer[d_->offset++] : -1;
   b6da0:	6803      	ldr	r3, [r0, #0]
   b6da2:	691b      	ldr	r3, [r3, #16]
   b6da4:	4798      	blx	r3
   b6da6:	2800      	cmp	r0, #0
   b6da8:	d1f1      	bne.n	b6d8e <_ZN9TCPClient4readEv+0x12>
   b6daa:	f04f 30ff 	mov.w	r0, #4294967295	; 0xffffffff
   b6dae:	e7f6      	b.n	b6d9e <_ZN9TCPClient4readEv+0x22>

000b6db0 <_ZN9TCPClient5flushEv>:
    d_->offset = 0;
    d_->total = 0;
}

void TCPClient::flush() {
}
   b6db0:	4770      	bx	lr

000b6db2 <_ZN9TCPClientcvbEv>:
    }
    return rv;
}

uint8_t TCPClient::status() {
    return (isOpen(d_->sock));
   b6db2:	6943      	ldr	r3, [r0, #20]
    return socket_handle_valid(sd);
   b6db4:	6818      	ldr	r0, [r3, #0]
}

TCPClient::operator bool() {
   return (status() != 0);
}
   b6db6:	43c0      	mvns	r0, r0
   b6db8:	0fc0      	lsrs	r0, r0, #31
   b6dba:	4770      	bx	lr

000b6dbc <_ZNSt23_Sp_counted_ptr_inplaceIN9TCPClient4DataESaIS1_ELN9__gnu_cxx12_Lock_policyE0EED1Ev>:
      ~_Sp_counted_ptr_inplace() noexcept { }
   b6dbc:	4770      	bx	lr
	...

000b6dc0 <_ZNSt23_Sp_counted_ptr_inplaceIN9TCPClient4DataESaIS1_ELN9__gnu_cxx12_Lock_policyE0EE14_M_get_deleterERKSt9type_info>:
	    ||
   b6dc0:	4b06      	ldr	r3, [pc, #24]	; (b6ddc <_ZNSt23_Sp_counted_ptr_inplaceIN9TCPClient4DataESaIS1_ELN9__gnu_cxx12_Lock_policyE0EE14_M_get_deleterERKSt9type_info+0x1c>)
   b6dc2:	4299      	cmp	r1, r3
      _M_get_deleter(const std::type_info& __ti) noexcept override
   b6dc4:	b510      	push	{r4, lr}
      __aligned_buffer(std::nullptr_t) { }

      void*
      _M_addr() noexcept
      {
        return static_cast<void*>(&_M_storage);
   b6dc6:	f100 040c 	add.w	r4, r0, #12
	    ||
   b6dca:	d005      	beq.n	b6dd8 <_ZNSt23_Sp_counted_ptr_inplaceIN9TCPClient4DataESaIS1_ELN9__gnu_cxx12_Lock_policyE0EE14_M_get_deleterERKSt9type_info+0x18>
	    _Sp_make_shared_tag::_S_eq(__ti)
   b6dcc:	4608      	mov	r0, r1
   b6dce:	f000 fd93 	bl	b78f8 <_ZNSt19_Sp_make_shared_tag5_S_eqERKSt9type_info>
	return nullptr;
   b6dd2:	2800      	cmp	r0, #0
   b6dd4:	bf08      	it	eq
   b6dd6:	2400      	moveq	r4, #0
      }
   b6dd8:	4620      	mov	r0, r4
   b6dda:	bd10      	pop	{r4, pc}
   b6ddc:	000b8de8 	.word	0x000b8de8

000b6de0 <_ZNSt23_Sp_counted_ptr_inplaceIN9TCPClient4DataESaIS1_ELN9__gnu_cxx12_Lock_policyE0EED0Ev>:
      ~_Sp_counted_ptr_inplace() noexcept { }
   b6de0:	b510      	push	{r4, lr}
   b6de2:	21ac      	movs	r1, #172	; 0xac
   b6de4:	4604      	mov	r4, r0
   b6de6:	f7fd f958 	bl	b409a <_ZdlPvj>
   b6dea:	4620      	mov	r0, r4
   b6dec:	bd10      	pop	{r4, pc}

000b6dee <_ZNSt23_Sp_counted_ptr_inplaceIN9TCPClient4DataESaIS1_ELN9__gnu_cxx12_Lock_policyE0EE10_M_destroyEv>:
# endif
			      std::align_val_t(alignof(_Tp)));
	    return;
	  }
#endif
	::operator delete(__p
   b6dee:	21ac      	movs	r1, #172	; 0xac
   b6df0:	f7fd b953 	b.w	b409a <_ZdlPvj>

000b6df4 <_ZN9TCPClient5writeEPKhjm>:
size_t TCPClient::write(const uint8_t *buffer, size_t size, system_tick_t timeout) {
   b6df4:	e92d 41f0 	stmdb	sp!, {r4, r5, r6, r7, r8, lr}
    void setWriteError(int err = 1) { write_error = err; }
   b6df8:	f04f 0800 	mov.w	r8, #0
   b6dfc:	b086      	sub	sp, #24
   b6dfe:	461c      	mov	r4, r3
   b6e00:	f8c0 8004 	str.w	r8, [r0, #4]
   b6e04:	4605      	mov	r5, r0
   b6e06:	460e      	mov	r6, r1
   b6e08:	4617      	mov	r7, r2
    struct timeval tv = {};
   b6e0a:	4641      	mov	r1, r8
   b6e0c:	2210      	movs	r2, #16
   b6e0e:	a802      	add	r0, sp, #8
   b6e10:	f000 fea0 	bl	b7b54 <memset>
    if (timeout != SOCKET_WAIT_FOREVER) {
   b6e14:	1c63      	adds	r3, r4, #1
   b6e16:	d009      	beq.n	b6e2c <_ZN9TCPClient5writeEPKhjm+0x38>
        tv.tv_sec = timeout / 1000;
   b6e18:	f44f 737a 	mov.w	r3, #1000	; 0x3e8
   b6e1c:	fbb4 f2f3 	udiv	r2, r4, r3
        tv.tv_usec = (timeout % 1000) * 1000;
   b6e20:	fb03 4412 	mls	r4, r3, r2, r4
        tv.tv_sec = timeout / 1000;
   b6e24:	e9cd 2802 	strd	r2, r8, [sp, #8]
        tv.tv_usec = (timeout % 1000) * 1000;
   b6e28:	435c      	muls	r4, r3
   b6e2a:	9404      	str	r4, [sp, #16]
    int ret = sock_setsockopt(d_->sock, SOL_SOCKET, SO_SNDTIMEO, &tv, sizeof(tv));
   b6e2c:	6968      	ldr	r0, [r5, #20]
   b6e2e:	2310      	movs	r3, #16
   b6e30:	9300      	str	r3, [sp, #0]
   b6e32:	6800      	ldr	r0, [r0, #0]
   b6e34:	ab02      	add	r3, sp, #8
   b6e36:	f241 0205 	movw	r2, #4101	; 0x1005
   b6e3a:	f640 71ff 	movw	r1, #4095	; 0xfff
   b6e3e:	f7ff fa11 	bl	b6264 <sock_setsockopt>
    if (ret < 0) {
   b6e42:	2800      	cmp	r0, #0
   b6e44:	da07      	bge.n	b6e56 <_ZN9TCPClient5writeEPKhjm+0x62>
        setWriteError(errno);
   b6e46:	f7ff fbc1 	bl	b65cc <__errno>
   b6e4a:	6803      	ldr	r3, [r0, #0]
   b6e4c:	606b      	str	r3, [r5, #4]
        return 0;
   b6e4e:	2000      	movs	r0, #0
}
   b6e50:	b006      	add	sp, #24
   b6e52:	e8bd 81f0 	ldmia.w	sp!, {r4, r5, r6, r7, r8, pc}
    ret = sock_send(d_->sock, buffer, size, 0);
   b6e56:	6968      	ldr	r0, [r5, #20]
   b6e58:	2300      	movs	r3, #0
   b6e5a:	6800      	ldr	r0, [r0, #0]
   b6e5c:	463a      	mov	r2, r7
   b6e5e:	4631      	mov	r1, r6
   b6e60:	f7ff fa20 	bl	b62a4 <sock_send>
    if (ret < 0) {
   b6e64:	1e03      	subs	r3, r0, #0
   b6e66:	dbee      	blt.n	b6e46 <_ZN9TCPClient5writeEPKhjm+0x52>
    return ret;
   b6e68:	4618      	mov	r0, r3
   b6e6a:	e7f1      	b.n	b6e50 <_ZN9TCPClient5writeEPKhjm+0x5c>

000b6e6c <_ZN9TCPClientD1Ev>:
class TCPClient : public Client {

public:
    TCPClient();
    TCPClient(sock_handle_t sock);
    virtual ~TCPClient() {};
   b6e6c:	b538      	push	{r3, r4, r5, lr}
	if (_M_pi != nullptr)
   b6e6e:	6984      	ldr	r4, [r0, #24]
   b6e70:	4b0a      	ldr	r3, [pc, #40]	; (b6e9c <_ZN9TCPClientD1Ev+0x30>)
   b6e72:	6003      	str	r3, [r0, #0]
   b6e74:	4605      	mov	r5, r0
   b6e76:	b17c      	cbz	r4, b6e98 <_ZN9TCPClientD1Ev+0x2c>
      if (--_M_use_count == 0)
   b6e78:	6863      	ldr	r3, [r4, #4]
   b6e7a:	3b01      	subs	r3, #1
   b6e7c:	6063      	str	r3, [r4, #4]
   b6e7e:	b95b      	cbnz	r3, b6e98 <_ZN9TCPClientD1Ev+0x2c>
          _M_dispose();
   b6e80:	6823      	ldr	r3, [r4, #0]
   b6e82:	4620      	mov	r0, r4
   b6e84:	689b      	ldr	r3, [r3, #8]
   b6e86:	4798      	blx	r3
          if (--_M_weak_count == 0)
   b6e88:	68a3      	ldr	r3, [r4, #8]
   b6e8a:	3b01      	subs	r3, #1
   b6e8c:	60a3      	str	r3, [r4, #8]
   b6e8e:	b91b      	cbnz	r3, b6e98 <_ZN9TCPClientD1Ev+0x2c>
            _M_destroy();
   b6e90:	6823      	ldr	r3, [r4, #0]
   b6e92:	4620      	mov	r0, r4
   b6e94:	68db      	ldr	r3, [r3, #12]
   b6e96:	4798      	blx	r3
   b6e98:	4628      	mov	r0, r5
   b6e9a:	bd38      	pop	{r3, r4, r5, pc}
   b6e9c:	000b8eec 	.word	0x000b8eec

000b6ea0 <_ZN9TCPClientD0Ev>:
   b6ea0:	b510      	push	{r4, lr}
   b6ea2:	4604      	mov	r4, r0
   b6ea4:	f7ff ffe2 	bl	b6e6c <_ZN9TCPClientD1Ev>
   b6ea8:	4620      	mov	r0, r4
   b6eaa:	211c      	movs	r1, #28
   b6eac:	f7fd f8f5 	bl	b409a <_ZdlPvj>
   b6eb0:	4620      	mov	r0, r4
   b6eb2:	bd10      	pop	{r4, pc}

000b6eb4 <_ZN9IPAddressaSIPKhEERS_T_.isra.0>:
    IPAddress& operator=(T address) {
   b6eb4:	b530      	push	{r4, r5, lr}
   b6eb6:	b087      	sub	sp, #28
   b6eb8:	4604      	mov	r4, r0
class IPAddress : public Printable {
   b6eba:	ad01      	add	r5, sp, #4
        return *this = IPAddress(address);
   b6ebc:	4668      	mov	r0, sp
   b6ebe:	f7ff fcf3 	bl	b68a8 <_ZN9IPAddressC1EPKh>
class IPAddress : public Printable {
   b6ec2:	cd0f      	ldmia	r5!, {r0, r1, r2, r3}
   b6ec4:	3404      	adds	r4, #4
   b6ec6:	c40f      	stmia	r4!, {r0, r1, r2, r3}
   b6ec8:	682b      	ldr	r3, [r5, #0]
   b6eca:	7023      	strb	r3, [r4, #0]
    }
   b6ecc:	b007      	add	sp, #28
   b6ece:	bd30      	pop	{r4, r5, pc}

000b6ed0 <_ZN9TCPClient8remoteIPEv>:

IPAddress TCPClient::remoteIP() {
   b6ed0:	b570      	push	{r4, r5, r6, lr}
      { return _M_ptr; }
   b6ed2:	694d      	ldr	r5, [r1, #20]
class IPAddress : public Printable {
   b6ed4:	4b05      	ldr	r3, [pc, #20]	; (b6eec <_ZN9TCPClient8remoteIPEv+0x1c>)
   b6ed6:	4604      	mov	r4, r0
   b6ed8:	358c      	adds	r5, #140	; 0x8c
   b6eda:	f844 3b04 	str.w	r3, [r4], #4
   b6ede:	4606      	mov	r6, r0
   b6ee0:	cd0f      	ldmia	r5!, {r0, r1, r2, r3}
   b6ee2:	c40f      	stmia	r4!, {r0, r1, r2, r3}
   b6ee4:	682b      	ldr	r3, [r5, #0]
   b6ee6:	7023      	strb	r3, [r4, #0]
    return d_->remoteIP;
}
   b6ee8:	4630      	mov	r0, r6
   b6eea:	bd70      	pop	{r4, r5, r6, pc}
   b6eec:	000b8e5c 	.word	0x000b8e5c

000b6ef0 <_ZN9TCPClient7connectEPKctm>:
int TCPClient::connect(const char* host, uint16_t port, network_interface_t nif) {
   b6ef0:	e92d 43f0 	stmdb	sp!, {r4, r5, r6, r7, r8, r9, lr}
   b6ef4:	4698      	mov	r8, r3
    stop();
   b6ef6:	6803      	ldr	r3, [r0, #0]
int TCPClient::connect(const char* host, uint16_t port, network_interface_t nif) {
   b6ef8:	b093      	sub	sp, #76	; 0x4c
   b6efa:	460d      	mov	r5, r1
    struct addrinfo* ais = nullptr;
   b6efc:	2400      	movs	r4, #0
    stop();
   b6efe:	6adb      	ldr	r3, [r3, #44]	; 0x2c
int TCPClient::connect(const char* host, uint16_t port, network_interface_t nif) {
   b6f00:	4606      	mov	r6, r0
   b6f02:	4617      	mov	r7, r2
    stop();
   b6f04:	4798      	blx	r3
    CHECK_TRUE(netdb_getaddrinfo(host, nullptr, nullptr, &ais) == 0, 0); // return 0
   b6f06:	4628      	mov	r0, r5
   b6f08:	466b      	mov	r3, sp
   b6f0a:	4622      	mov	r2, r4
   b6f0c:	4621      	mov	r1, r4
    struct addrinfo* ais = nullptr;
   b6f0e:	9400      	str	r4, [sp, #0]
    CHECK_TRUE(netdb_getaddrinfo(host, nullptr, nullptr, &ais) == 0, 0); // return 0
   b6f10:	f7ff f9a0 	bl	b6254 <netdb_getaddrinfo>
   b6f14:	4605      	mov	r5, r0
   b6f16:	2800      	cmp	r0, #0
   b6f18:	d163      	bne.n	b6fe2 <_ZN9TCPClient7connectEPKctm+0xf2>
    if (ais && ais->ai_addr) {
   b6f1a:	9b00      	ldr	r3, [sp, #0]
   b6f1c:	2b00      	cmp	r3, #0
   b6f1e:	d04b      	beq.n	b6fb8 <_ZN9TCPClient7connectEPKctm+0xc8>
   b6f20:	695b      	ldr	r3, [r3, #20]
   b6f22:	2b00      	cmp	r3, #0
   b6f24:	d048      	beq.n	b6fb8 <_ZN9TCPClient7connectEPKctm+0xc8>
        IPAddress addr;
   b6f26:	a806      	add	r0, sp, #24
   b6f28:	f7ff fc6e 	bl	b6808 <_ZN9IPAddressC1Ev>
        detail::sockaddrToIpAddressPort(ais->ai_addr, addr, nullptr);
   b6f2c:	9b00      	ldr	r3, [sp, #0]
   b6f2e:	695c      	ldr	r4, [r3, #20]
namespace spark {

namespace detail {

inline void sockaddrToIpAddressPort(const struct sockaddr* saddr, IPAddress& addr, uint16_t* port) {
    if (saddr->sa_family == AF_INET) {
   b6f30:	7863      	ldrb	r3, [r4, #1]
   b6f32:	2b02      	cmp	r3, #2
   b6f34:	d104      	bne.n	b6f40 <_ZN9TCPClient7connectEPKctm+0x50>
        const struct sockaddr_in* inaddr = (const struct sockaddr_in*)saddr;
        addr = (const uint8_t*)(&inaddr->sin_addr.s_addr);
   b6f36:	1d21      	adds	r1, r4, #4
            memcpy(a.ipv6, in6addr->sin6_addr.s6_addr, sizeof(a.ipv6));
            a.v = 6;
            addr = IPAddress(a);
        } else {
            auto ptr = (const uint32_t*)(in6addr->sin6_addr.s6_addr);
            addr = (const uint8_t*)(&ptr[3]);
   b6f38:	a806      	add	r0, sp, #24
   b6f3a:	f7ff ffbb 	bl	b6eb4 <_ZN9IPAddressaSIPKhEERS_T_.isra.0>
        }
        if (port) {
   b6f3e:	e026      	b.n	b6f8e <_ZN9TCPClient7connectEPKctm+0x9e>
    else if (saddr->sa_family == AF_INET6) {
   b6f40:	2b0a      	cmp	r3, #10
   b6f42:	d124      	bne.n	b6f8e <_ZN9TCPClient7connectEPKctm+0x9e>
        HAL_IPAddress a = {};
   b6f44:	2211      	movs	r2, #17
   b6f46:	4629      	mov	r1, r5
   b6f48:	a801      	add	r0, sp, #4
   b6f4a:	f000 fe03 	bl	b7b54 <memset>
        if (!IN6_IS_ADDR_V4MAPPED(&in6addr->sin6_addr)) {
   b6f4e:	68a3      	ldr	r3, [r4, #8]
   b6f50:	2b00      	cmp	r3, #0
   b6f52:	d038      	beq.n	b6fc6 <_ZN9TCPClient7connectEPKctm+0xd6>
            memcpy(a.ipv6, in6addr->sin6_addr.s6_addr, sizeof(a.ipv6));
   b6f54:	f104 0308 	add.w	r3, r4, #8
   b6f58:	f10d 0c04 	add.w	ip, sp, #4
   b6f5c:	3418      	adds	r4, #24
   b6f5e:	6818      	ldr	r0, [r3, #0]
   b6f60:	6859      	ldr	r1, [r3, #4]
   b6f62:	4662      	mov	r2, ip
   b6f64:	c203      	stmia	r2!, {r0, r1}
   b6f66:	3308      	adds	r3, #8
   b6f68:	42a3      	cmp	r3, r4
   b6f6a:	4694      	mov	ip, r2
   b6f6c:	d1f7      	bne.n	b6f5e <_ZN9TCPClient7connectEPKctm+0x6e>
            a.v = 6;
   b6f6e:	2306      	movs	r3, #6
            addr = IPAddress(a);
   b6f70:	a901      	add	r1, sp, #4
   b6f72:	a80c      	add	r0, sp, #48	; 0x30
            a.v = 6;
   b6f74:	f88d 3014 	strb.w	r3, [sp, #20]
            addr = IPAddress(a);
   b6f78:	f7ff fc54 	bl	b6824 <_ZN9IPAddressC1ERK16_HAL_IPAddress_t>
   b6f7c:	f10d 0c34 	add.w	ip, sp, #52	; 0x34
   b6f80:	e8bc 000f 	ldmia.w	ip!, {r0, r1, r2, r3}
   b6f84:	ac07      	add	r4, sp, #28
   b6f86:	c40f      	stmia	r4!, {r0, r1, r2, r3}
   b6f88:	f8dc 3000 	ldr.w	r3, [ip]
   b6f8c:	7023      	strb	r3, [r4, #0]
        return static_cast<const IPAddress*>(this)->operator bool();
   b6f8e:	a806      	add	r0, sp, #24
   b6f90:	f7ff fc5a 	bl	b6848 <_ZNK9IPAddresscvbEv>
        if (addr) {
   b6f94:	b180      	cbz	r0, b6fb8 <_ZN9TCPClient7connectEPKctm+0xc8>
            return connect(addr, port, nif);
   b6f96:	6833      	ldr	r3, [r6, #0]
class IPAddress : public Printable {
   b6f98:	ad07      	add	r5, sp, #28
   b6f9a:	f8d3 9020 	ldr.w	r9, [r3, #32]
   b6f9e:	4b12      	ldr	r3, [pc, #72]	; (b6fe8 <_ZN9TCPClient7connectEPKctm+0xf8>)
   b6fa0:	930c      	str	r3, [sp, #48]	; 0x30
   b6fa2:	cd0f      	ldmia	r5!, {r0, r1, r2, r3}
   b6fa4:	ac0d      	add	r4, sp, #52	; 0x34
   b6fa6:	c40f      	stmia	r4!, {r0, r1, r2, r3}
   b6fa8:	682b      	ldr	r3, [r5, #0]
   b6faa:	7023      	strb	r3, [r4, #0]
   b6fac:	463a      	mov	r2, r7
   b6fae:	4643      	mov	r3, r8
   b6fb0:	a90c      	add	r1, sp, #48	; 0x30
   b6fb2:	4630      	mov	r0, r6
   b6fb4:	47c8      	blx	r9
   b6fb6:	4605      	mov	r5, r0
    SCOPE_GUARD({
   b6fb8:	9800      	ldr	r0, [sp, #0]
   b6fba:	f7ff f943 	bl	b6244 <netdb_freeaddrinfo>
}
   b6fbe:	4628      	mov	r0, r5
   b6fc0:	b013      	add	sp, #76	; 0x4c
   b6fc2:	e8bd 83f0 	ldmia.w	sp!, {r4, r5, r6, r7, r8, r9, pc}
        if (!IN6_IS_ADDR_V4MAPPED(&in6addr->sin6_addr)) {
   b6fc6:	68e3      	ldr	r3, [r4, #12]
   b6fc8:	2b00      	cmp	r3, #0
   b6fca:	d1c3      	bne.n	b6f54 <_ZN9TCPClient7connectEPKctm+0x64>
   b6fcc:	f64f 70ff 	movw	r0, #65535	; 0xffff
   b6fd0:	f8d4 9010 	ldr.w	r9, [r4, #16]
   b6fd4:	f7ff f926 	bl	b6224 <inet_htonl>
   b6fd8:	4581      	cmp	r9, r0
   b6fda:	d1bb      	bne.n	b6f54 <_ZN9TCPClient7connectEPKctm+0x64>
            addr = (const uint8_t*)(&ptr[3]);
   b6fdc:	f104 0114 	add.w	r1, r4, #20
   b6fe0:	e7aa      	b.n	b6f38 <_ZN9TCPClient7connectEPKctm+0x48>
    CHECK_TRUE(netdb_getaddrinfo(host, nullptr, nullptr, &ais) == 0, 0); // return 0
   b6fe2:	4625      	mov	r5, r4
   b6fe4:	e7e8      	b.n	b6fb8 <_ZN9TCPClient7connectEPKctm+0xc8>
   b6fe6:	bf00      	nop
   b6fe8:	000b8e5c 	.word	0x000b8e5c

000b6fec <_ZN9TCPClient9connectedEv>:
uint8_t TCPClient::connected() {
   b6fec:	b538      	push	{r3, r4, r5, lr}
   b6fee:	6943      	ldr	r3, [r0, #20]
    bool rv = (status() || bufferCount());
   b6ff0:	681a      	ldr	r2, [r3, #0]
   b6ff2:	2a00      	cmp	r2, #0
uint8_t TCPClient::connected() {
   b6ff4:	4605      	mov	r5, r0
    bool rv = (status() || bufferCount());
   b6ff6:	da10      	bge.n	b701a <_ZN9TCPClient9connectedEv+0x2e>
   b6ff8:	f8b3 2086 	ldrh.w	r2, [r3, #134]	; 0x86
   b6ffc:	f8b3 3084 	ldrh.w	r3, [r3, #132]	; 0x84
   b7000:	429a      	cmp	r2, r3
   b7002:	d10a      	bne.n	b701a <_ZN9TCPClient9connectedEv+0x2e>
        rv = available();
   b7004:	6803      	ldr	r3, [r0, #0]
   b7006:	691b      	ldr	r3, [r3, #16]
   b7008:	4798      	blx	r3
        if (!rv) {
   b700a:	4604      	mov	r4, r0
   b700c:	b928      	cbnz	r0, b701a <_ZN9TCPClient9connectedEv+0x2e>
            stop();
   b700e:	682b      	ldr	r3, [r5, #0]
   b7010:	4628      	mov	r0, r5
   b7012:	6adb      	ldr	r3, [r3, #44]	; 0x2c
   b7014:	4798      	blx	r3
        rv = available();
   b7016:	4620      	mov	r0, r4
}
   b7018:	bd38      	pop	{r3, r4, r5, pc}
        rv = available();
   b701a:	2001      	movs	r0, #1
   b701c:	e7fc      	b.n	b7018 <_ZN9TCPClient9connectedEv+0x2c>

000b701e <_ZN9TCPClient4peekEv>:
int TCPClient::peek() {
   b701e:	b510      	push	{r4, lr}
   b7020:	6943      	ldr	r3, [r0, #20]
    return (bufferCount() || available()) ? d_->buffer[d_->offset] : -1;
   b7022:	f8b3 2086 	ldrh.w	r2, [r3, #134]	; 0x86
   b7026:	f8b3 3084 	ldrh.w	r3, [r3, #132]	; 0x84
   b702a:	429a      	cmp	r2, r3
int TCPClient::peek() {
   b702c:	4604      	mov	r4, r0
    return (bufferCount() || available()) ? d_->buffer[d_->offset] : -1;
   b702e:	d005      	beq.n	b703c <_ZN9TCPClient4peekEv+0x1e>
   b7030:	6963      	ldr	r3, [r4, #20]
   b7032:	f8b3 2084 	ldrh.w	r2, [r3, #132]	; 0x84
   b7036:	4413      	add	r3, r2
   b7038:	7918      	ldrb	r0, [r3, #4]
}
   b703a:	bd10      	pop	{r4, pc}
    return (bufferCount() || available()) ? d_->buffer[d_->offset] : -1;
   b703c:	6803      	ldr	r3, [r0, #0]
   b703e:	691b      	ldr	r3, [r3, #16]
   b7040:	4798      	blx	r3
   b7042:	2800      	cmp	r0, #0
   b7044:	d1f4      	bne.n	b7030 <_ZN9TCPClient4peekEv+0x12>
   b7046:	f04f 30ff 	mov.w	r0, #4294967295	; 0xffffffff
   b704a:	e7f6      	b.n	b703a <_ZN9TCPClient4peekEv+0x1c>

000b704c <_ZN9TCPClient4readEPhj>:
int TCPClient::read(uint8_t *buffer, size_t size) {
   b704c:	b5f8      	push	{r3, r4, r5, r6, r7, lr}
   b704e:	6943      	ldr	r3, [r0, #20]
   b7050:	4617      	mov	r7, r2
    if (bufferCount() || available()) {
   b7052:	f8b3 2086 	ldrh.w	r2, [r3, #134]	; 0x86
   b7056:	f8b3 3084 	ldrh.w	r3, [r3, #132]	; 0x84
   b705a:	429a      	cmp	r2, r3
int TCPClient::read(uint8_t *buffer, size_t size) {
   b705c:	4605      	mov	r5, r0
   b705e:	460e      	mov	r6, r1
    if (bufferCount() || available()) {
   b7060:	d016      	beq.n	b7090 <_ZN9TCPClient4readEPhj+0x44>
   b7062:	6969      	ldr	r1, [r5, #20]
    return d_->total - d_->offset;
   b7064:	f8b1 3084 	ldrh.w	r3, [r1, #132]	; 0x84
   b7068:	f8b1 4086 	ldrh.w	r4, [r1, #134]	; 0x86
   b706c:	1ae4      	subs	r4, r4, r3
        read = (size > (size_t) bufferCount()) ? bufferCount() : size;
   b706e:	42bc      	cmp	r4, r7
   b7070:	bf28      	it	cs
   b7072:	463c      	movcs	r4, r7
        memcpy(buffer, &d_->buffer[d_->offset], read);
   b7074:	3304      	adds	r3, #4
   b7076:	4622      	mov	r2, r4
   b7078:	4419      	add	r1, r3
   b707a:	4630      	mov	r0, r6
   b707c:	f000 fd5c 	bl	b7b38 <memcpy>
   b7080:	696a      	ldr	r2, [r5, #20]
        d_->offset += read;
   b7082:	f8b2 3084 	ldrh.w	r3, [r2, #132]	; 0x84
   b7086:	4423      	add	r3, r4
   b7088:	f8a2 3084 	strh.w	r3, [r2, #132]	; 0x84
}
   b708c:	4620      	mov	r0, r4
   b708e:	bdf8      	pop	{r3, r4, r5, r6, r7, pc}
    if (bufferCount() || available()) {
   b7090:	6803      	ldr	r3, [r0, #0]
   b7092:	691b      	ldr	r3, [r3, #16]
   b7094:	4798      	blx	r3
   b7096:	2800      	cmp	r0, #0
   b7098:	d1e3      	bne.n	b7062 <_ZN9TCPClient4readEPhj+0x16>
    int read = -1;
   b709a:	f04f 34ff 	mov.w	r4, #4294967295	; 0xffffffff
   b709e:	e7f5      	b.n	b708c <_ZN9TCPClient4readEPhj+0x40>

000b70a0 <_ZN9TCPClient12flush_bufferEv>:
   b70a0:	6942      	ldr	r2, [r0, #20]
    d_->offset = 0;
   b70a2:	2300      	movs	r3, #0
   b70a4:	f8a2 3084 	strh.w	r3, [r2, #132]	; 0x84
   b70a8:	6942      	ldr	r2, [r0, #20]
    d_->total = 0;
   b70aa:	f8a2 3086 	strh.w	r3, [r2, #134]	; 0x86
}
   b70ae:	4770      	bx	lr

000b70b0 <_ZN9TCPClient7connectE9IPAddresstm>:
int TCPClient::connect(IPAddress ip, uint16_t port, network_interface_t nif) {
   b70b0:	e92d 41f0 	stmdb	sp!, {r4, r5, r6, r7, r8, lr}
   b70b4:	461f      	mov	r7, r3
    stop();
   b70b6:	6803      	ldr	r3, [r0, #0]
int TCPClient::connect(IPAddress ip, uint16_t port, network_interface_t nif) {
   b70b8:	460c      	mov	r4, r1
    stop();
   b70ba:	6adb      	ldr	r3, [r3, #44]	; 0x2c
int TCPClient::connect(IPAddress ip, uint16_t port, network_interface_t nif) {
   b70bc:	b08a      	sub	sp, #40	; 0x28
   b70be:	4605      	mov	r5, r0
   b70c0:	4616      	mov	r6, r2
    stop();
   b70c2:	4798      	blx	r3
    d_->sock = sock_socket(ip.version() == 4 ? AF_INET : AF_INET6, SOCK_STREAM, IPPROTO_TCP);
   b70c4:	7d23      	ldrb	r3, [r4, #20]
   b70c6:	f8d5 8014 	ldr.w	r8, [r5, #20]
   b70ca:	2b04      	cmp	r3, #4
   b70cc:	bf0c      	ite	eq
   b70ce:	2002      	moveq	r0, #2
   b70d0:	200a      	movne	r0, #10
   b70d2:	2206      	movs	r2, #6
   b70d4:	2101      	movs	r1, #1
   b70d6:	f7ff f8ed 	bl	b62b4 <sock_socket>
   b70da:	f8c8 0000 	str.w	r0, [r8]
    CHECK_TRUE(d_->sock >= 0, 0); // return 0
   b70de:	696b      	ldr	r3, [r5, #20]
   b70e0:	681b      	ldr	r3, [r3, #0]
   b70e2:	2b00      	cmp	r3, #0
   b70e4:	da08      	bge.n	b70f8 <_ZN9TCPClient7connectE9IPAddresstm+0x48>
    NAMED_SCOPE_GUARD(done, {
   b70e6:	682b      	ldr	r3, [r5, #0]
   b70e8:	4628      	mov	r0, r5
   b70ea:	6adb      	ldr	r3, [r3, #44]	; 0x2c
        CHECK_TRUE(if_index_to_name(nif, ifr.ifr_name) == 0, 0); // return 0
   b70ec:	2400      	movs	r4, #0
    NAMED_SCOPE_GUARD(done, {
   b70ee:	4798      	blx	r3
}
   b70f0:	4620      	mov	r0, r4
   b70f2:	b00a      	add	sp, #40	; 0x28
   b70f4:	e8bd 81f0 	ldmia.w	sp!, {r4, r5, r6, r7, r8, pc}
    flush_buffer();
   b70f8:	4628      	mov	r0, r5
   b70fa:	f7ff ffd1 	bl	b70a0 <_ZN9TCPClient12flush_bufferEv>
    if (nif != 0) {
   b70fe:	b1b7      	cbz	r7, b712e <_ZN9TCPClient7connectE9IPAddresstm+0x7e>
        struct ifreq ifr = {};
   b7100:	2300      	movs	r3, #0
        CHECK_TRUE(if_index_to_name(nif, ifr.ifr_name) == 0, 0); // return 0
   b7102:	a903      	add	r1, sp, #12
   b7104:	b2f8      	uxtb	r0, r7
        struct ifreq ifr = {};
   b7106:	9303      	str	r3, [sp, #12]
   b7108:	f8ad 3010 	strh.w	r3, [sp, #16]
        CHECK_TRUE(if_index_to_name(nif, ifr.ifr_name) == 0, 0); // return 0
   b710c:	f7ff f87a 	bl	b6204 <if_index_to_name>
   b7110:	2800      	cmp	r0, #0
   b7112:	d1e8      	bne.n	b70e6 <_ZN9TCPClient7connectE9IPAddresstm+0x36>
        CHECK_TRUE(sock_setsockopt(d_->sock, SOL_SOCKET, SO_BINDTODEVICE, &ifr, sizeof(ifr)) == 0, 0); // return 0
   b7114:	6968      	ldr	r0, [r5, #20]
   b7116:	2306      	movs	r3, #6
   b7118:	9300      	str	r3, [sp, #0]
   b711a:	6800      	ldr	r0, [r0, #0]
   b711c:	ab03      	add	r3, sp, #12
   b711e:	f241 020b 	movw	r2, #4107	; 0x100b
   b7122:	f640 71ff 	movw	r1, #4095	; 0xfff
   b7126:	f7ff f89d 	bl	b6264 <sock_setsockopt>
   b712a:	2800      	cmp	r0, #0
   b712c:	d1db      	bne.n	b70e6 <_ZN9TCPClient7connectE9IPAddresstm+0x36>
    sockaddr_storage saddr = {};
   b712e:	221c      	movs	r2, #28
   b7130:	2100      	movs	r1, #0
   b7132:	a803      	add	r0, sp, #12
   b7134:	f000 fd0e 	bl	b7b54 <memset>
    if (ip.version() == 4) {
   b7138:	7d23      	ldrb	r3, [r4, #20]
   b713a:	2b04      	cmp	r3, #4
   b713c:	d11d      	bne.n	b717a <_ZN9TCPClient7connectE9IPAddresstm+0xca>
        s->sin_len = sizeof(saddr);
   b713e:	f44f 7307 	mov.w	r3, #540	; 0x21c
        s->sin_port = htons(port);
   b7142:	4630      	mov	r0, r6
        s->sin_len = sizeof(saddr);
   b7144:	f8ad 300c 	strh.w	r3, [sp, #12]
        s->sin_port = htons(port);
   b7148:	f7ff f874 	bl	b6234 <inet_htons>
   b714c:	f8ad 000e 	strh.w	r0, [sp, #14]
        s->sin_addr.s_addr = htonl(ip.raw().ipv4);
   b7150:	6860      	ldr	r0, [r4, #4]
   b7152:	f7ff f867 	bl	b6224 <inet_htonl>
   b7156:	9004      	str	r0, [sp, #16]
    CHECK_TRUE(sock_connect(d_->sock, (const sockaddr*)&saddr, sizeof(saddr)) == 0, 0); // return 0
   b7158:	696b      	ldr	r3, [r5, #20]
   b715a:	221c      	movs	r2, #28
   b715c:	6818      	ldr	r0, [r3, #0]
   b715e:	a903      	add	r1, sp, #12
   b7160:	f7ff f890 	bl	b6284 <sock_connect>
   b7164:	2800      	cmp	r0, #0
   b7166:	d1be      	bne.n	b70e6 <_ZN9TCPClient7connectE9IPAddresstm+0x36>
   b7168:	3404      	adds	r4, #4
   b716a:	cc0f      	ldmia	r4!, {r0, r1, r2, r3}
   b716c:	696d      	ldr	r5, [r5, #20]
   b716e:	358c      	adds	r5, #140	; 0x8c
   b7170:	c50f      	stmia	r5!, {r0, r1, r2, r3}
   b7172:	6823      	ldr	r3, [r4, #0]
   b7174:	702b      	strb	r3, [r5, #0]
    return 1; // success
   b7176:	2401      	movs	r4, #1
   b7178:	e7ba      	b.n	b70f0 <_ZN9TCPClient7connectE9IPAddresstm+0x40>
        s->sin6_len = sizeof(saddr);
   b717a:	f640 231c 	movw	r3, #2588	; 0xa1c
        s->sin6_port = htons(port);
   b717e:	4630      	mov	r0, r6
        s->sin6_len = sizeof(saddr);
   b7180:	f8ad 300c 	strh.w	r3, [sp, #12]
        s->sin6_port = htons(port);
   b7184:	f7ff f856 	bl	b6234 <inet_htons>
        memcpy(s->sin6_addr.s6_addr, ip.raw().ipv6, sizeof(s->sin6_addr.s6_addr));
   b7188:	ae05      	add	r6, sp, #20
        s->sin6_port = htons(port);
   b718a:	f8ad 000e 	strh.w	r0, [sp, #14]
        memcpy(s->sin6_addr.s6_addr, ip.raw().ipv6, sizeof(s->sin6_addr.s6_addr));
   b718e:	1d23      	adds	r3, r4, #4
   b7190:	f104 0714 	add.w	r7, r4, #20
   b7194:	6818      	ldr	r0, [r3, #0]
   b7196:	6859      	ldr	r1, [r3, #4]
   b7198:	4632      	mov	r2, r6
   b719a:	c203      	stmia	r2!, {r0, r1}
   b719c:	3308      	adds	r3, #8
   b719e:	42bb      	cmp	r3, r7
   b71a0:	4616      	mov	r6, r2
   b71a2:	d1f7      	bne.n	b7194 <_ZN9TCPClient7connectE9IPAddresstm+0xe4>
   b71a4:	e7d8      	b.n	b7158 <_ZN9TCPClient7connectE9IPAddresstm+0xa8>
	...

000b71a8 <_ZN9TCPClient9availableEv>:
{
   b71a8:	b530      	push	{r4, r5, lr}
   b71aa:	6942      	ldr	r2, [r0, #20]
    if (d_->total && (d_->offset == d_->total)) {
   b71ac:	f8b2 3086 	ldrh.w	r3, [r2, #134]	; 0x86
{
   b71b0:	b08b      	sub	sp, #44	; 0x2c
   b71b2:	4604      	mov	r4, r0
    if (d_->total && (d_->offset == d_->total)) {
   b71b4:	b12b      	cbz	r3, b71c2 <_ZN9TCPClient9availableEv+0x1a>
   b71b6:	f8b2 2084 	ldrh.w	r2, [r2, #132]	; 0x84
   b71ba:	429a      	cmp	r2, r3
   b71bc:	d101      	bne.n	b71c2 <_ZN9TCPClient9availableEv+0x1a>
        flush_buffer();
   b71be:	f7ff ff6f 	bl	b70a0 <_ZN9TCPClient12flush_bufferEv>
   b71c2:	6961      	ldr	r1, [r4, #20]
    if (isOpen(d_->sock)) {
   b71c4:	6808      	ldr	r0, [r1, #0]
   b71c6:	2800      	cmp	r0, #0
   b71c8:	db18      	blt.n	b71fc <_ZN9TCPClient9availableEv+0x54>
        if (d_->total < arraySize(d_->buffer)) {
   b71ca:	f8b1 5086 	ldrh.w	r5, [r1, #134]	; 0x86
   b71ce:	2d7f      	cmp	r5, #127	; 0x7f
   b71d0:	d814      	bhi.n	b71fc <_ZN9TCPClient9availableEv+0x54>
            int ret = sock_recv(d_->sock, d_->buffer + d_->total, arraySize(d_->buffer) - d_->total, MSG_DONTWAIT);
   b71d2:	3104      	adds	r1, #4
   b71d4:	2308      	movs	r3, #8
   b71d6:	f1c5 0280 	rsb	r2, r5, #128	; 0x80
   b71da:	4429      	add	r1, r5
   b71dc:	f7ff f85a 	bl	b6294 <sock_recv>
            if (ret > 0) {
   b71e0:	2800      	cmp	r0, #0
   b71e2:	dd13      	ble.n	b720c <_ZN9TCPClient9availableEv+0x64>
   b71e4:	6963      	ldr	r3, [r4, #20]
                if (d_->total == 0) {
   b71e6:	f8b3 2086 	ldrh.w	r2, [r3, #134]	; 0x86
   b71ea:	b90a      	cbnz	r2, b71f0 <_ZN9TCPClient9availableEv+0x48>
                    d_->offset = 0;
   b71ec:	f8a3 2084 	strh.w	r2, [r3, #132]	; 0x84
   b71f0:	6963      	ldr	r3, [r4, #20]
                d_->total += ret;
   b71f2:	f8b3 2086 	ldrh.w	r2, [r3, #134]	; 0x86
   b71f6:	4410      	add	r0, r2
   b71f8:	f8a3 0086 	strh.w	r0, [r3, #134]	; 0x86
   b71fc:	6963      	ldr	r3, [r4, #20]
    return d_->total - d_->offset;
   b71fe:	f8b3 0086 	ldrh.w	r0, [r3, #134]	; 0x86
   b7202:	f8b3 3084 	ldrh.w	r3, [r3, #132]	; 0x84
}
   b7206:	1ac0      	subs	r0, r0, r3
   b7208:	b00b      	add	sp, #44	; 0x2c
   b720a:	bd30      	pop	{r4, r5, pc}
                if (errno != EAGAIN && errno != EWOULDBLOCK) {
   b720c:	f7ff f9de 	bl	b65cc <__errno>
   b7210:	6803      	ldr	r3, [r0, #0]
   b7212:	2b0b      	cmp	r3, #11
   b7214:	d0f2      	beq.n	b71fc <_ZN9TCPClient9availableEv+0x54>
   b7216:	f7ff f9d9 	bl	b65cc <__errno>
   b721a:	6803      	ldr	r3, [r0, #0]
   b721c:	2b0b      	cmp	r3, #11
   b721e:	d0ed      	beq.n	b71fc <_ZN9TCPClient9availableEv+0x54>
                    LOG(ERROR, "recv error = %d", errno);
   b7220:	2320      	movs	r3, #32
   b7222:	2500      	movs	r5, #0
   b7224:	e9cd 3502 	strd	r3, r5, [sp, #8]
   b7228:	f7ff f9d0 	bl	b65cc <__errno>
   b722c:	6803      	ldr	r3, [r0, #0]
   b722e:	9301      	str	r3, [sp, #4]
   b7230:	4b08      	ldr	r3, [pc, #32]	; (b7254 <_ZN9TCPClient9availableEv+0xac>)
   b7232:	4909      	ldr	r1, [pc, #36]	; (b7258 <_ZN9TCPClient9availableEv+0xb0>)
   b7234:	9300      	str	r3, [sp, #0]
   b7236:	aa02      	add	r2, sp, #8
   b7238:	462b      	mov	r3, r5
   b723a:	2032      	movs	r0, #50	; 0x32
   b723c:	f7ff f902 	bl	b6444 <log_message>
                    sock_close(d_->sock);
   b7240:	6963      	ldr	r3, [r4, #20]
   b7242:	6818      	ldr	r0, [r3, #0]
   b7244:	f7ff f816 	bl	b6274 <sock_close>
   b7248:	6963      	ldr	r3, [r4, #20]
                    d_->sock = -1;
   b724a:	f04f 32ff 	mov.w	r2, #4294967295	; 0xffffffff
   b724e:	601a      	str	r2, [r3, #0]
   b7250:	e7d4      	b.n	b71fc <_ZN9TCPClient9availableEv+0x54>
   b7252:	bf00      	nop
   b7254:	000b8eb7 	.word	0x000b8eb7
   b7258:	000b8eb0 	.word	0x000b8eb0

000b725c <_ZN9TCPClient4stopEv>:
void TCPClient::stop() {
   b725c:	b510      	push	{r4, lr}
    if (isOpen(d_->sock)) {
   b725e:	6943      	ldr	r3, [r0, #20]
void TCPClient::stop() {
   b7260:	4604      	mov	r4, r0
    if (isOpen(d_->sock)) {
   b7262:	6818      	ldr	r0, [r3, #0]
   b7264:	2800      	cmp	r0, #0
   b7266:	db01      	blt.n	b726c <_ZN9TCPClient4stopEv+0x10>
        sock_close(d_->sock);
   b7268:	f7ff f804 	bl	b6274 <sock_close>
   b726c:	6963      	ldr	r3, [r4, #20]
    d_->sock = -1;
   b726e:	f04f 32ff 	mov.w	r2, #4294967295	; 0xffffffff
   b7272:	601a      	str	r2, [r3, #0]
    void clear() { memset(&address, 0, sizeof (address)); }
   b7274:	6960      	ldr	r0, [r4, #20]
   b7276:	2211      	movs	r2, #17
   b7278:	2100      	movs	r1, #0
   b727a:	308c      	adds	r0, #140	; 0x8c
   b727c:	f000 fc6a 	bl	b7b54 <memset>
    flush_buffer();
   b7280:	4620      	mov	r0, r4
}
   b7282:	e8bd 4010 	ldmia.w	sp!, {r4, lr}
    flush_buffer();
   b7286:	f7ff bf0b 	b.w	b70a0 <_ZN9TCPClient12flush_bufferEv>

000b728a <_ZN9TCPClient4DataC1Ei>:

TCPClient::Data::Data(sock_handle_t sock)
   b728a:	b510      	push	{r4, lr}
        : sock(sock),
          offset(0),
          total(0) {
   b728c:	2300      	movs	r3, #0
TCPClient::Data::Data(sock_handle_t sock)
   b728e:	4604      	mov	r4, r0
          total(0) {
   b7290:	6001      	str	r1, [r0, #0]
   b7292:	f8c0 3084 	str.w	r3, [r0, #132]	; 0x84
   b7296:	3088      	adds	r0, #136	; 0x88
   b7298:	f7ff fab6 	bl	b6808 <_ZN9IPAddressC1Ev>
}
   b729c:	4620      	mov	r0, r4
   b729e:	bd10      	pop	{r4, pc}

000b72a0 <_ZN9TCPClientC1Ei>:
TCPClient::TCPClient(sock_handle_t sock)
   b72a0:	b573      	push	{r0, r1, r4, r5, r6, lr}
   b72a2:	2300      	movs	r3, #0
   b72a4:	f44f 727a 	mov.w	r2, #1000	; 0x3e8
   b72a8:	e9c0 3201 	strd	r3, r2, [r0, #4]
        : d_(std::make_shared<Data>(sock)) {
   b72ac:	4a0e      	ldr	r2, [pc, #56]	; (b72e8 <_ZN9TCPClientC1Ei+0x48>)
#include "system_network.h"
#include "spark_wiring_print.h"
#include "spark_wiring_stream.h"
#include "spark_wiring_ipaddress.h"

class Client : public Stream {
   b72ae:	6103      	str	r3, [r0, #16]
   b72b0:	6002      	str	r2, [r0, #0]

    protected:
      // This constructor is non-standard, it is used by allocate_shared.
      template<typename _Alloc, typename... _Args>
	__shared_ptr(_Sp_alloc_shared_tag<_Alloc> __tag, _Args&&... __args)
	: _M_ptr(), _M_refcount(_M_ptr, __tag, std::forward<_Args>(__args)...)
   b72b2:	6143      	str	r3, [r0, #20]
TCPClient::TCPClient(sock_handle_t sock)
   b72b4:	4604      	mov	r4, r0
	return static_cast<_Tp*>(::operator new(__n * sizeof(_Tp)));
   b72b6:	20ac      	movs	r0, #172	; 0xac
   b72b8:	9101      	str	r1, [sp, #4]
   b72ba:	f7fc feea 	bl	b4092 <_Znwj>
	  auto __pi = ::new (__mem)
   b72be:	1e05      	subs	r5, r0, #0
   b72c0:	f105 060c 	add.w	r6, r5, #12
   b72c4:	d008      	beq.n	b72d8 <_ZN9TCPClientC1Ei+0x38>
      : _M_use_count(1), _M_weak_count(1) { }
   b72c6:	2301      	movs	r3, #1
   b72c8:	e9c5 3301 	strd	r3, r3, [r5, #4]
	: _M_impl(__a)
   b72cc:	4b07      	ldr	r3, [pc, #28]	; (b72ec <_ZN9TCPClientC1Ei+0x4c>)
#if __cplusplus >= 201103L
      template<typename _Up, typename... _Args>
	void
	construct(_Up* __p, _Args&&... __args)
	noexcept(std::is_nothrow_constructible<_Up, _Args...>::value)
	{ ::new((void *)__p) _Up(std::forward<_Args>(__args)...); }
   b72ce:	9901      	ldr	r1, [sp, #4]
   b72d0:	602b      	str	r3, [r5, #0]
   b72d2:	4630      	mov	r0, r6
   b72d4:	f7ff ffd9 	bl	b728a <_ZN9TCPClient4DataC1Ei>
    flush_buffer();
   b72d8:	4620      	mov	r0, r4
	  __p = __pi->_M_ptr();
   b72da:	e9c4 6505 	strd	r6, r5, [r4, #20]
   b72de:	f7ff fedf 	bl	b70a0 <_ZN9TCPClient12flush_bufferEv>
}
   b72e2:	b002      	add	sp, #8
   b72e4:	bd70      	pop	{r4, r5, r6, pc}
   b72e6:	bf00      	nop
   b72e8:	000b8eec 	.word	0x000b8eec
   b72ec:	000b8ed0 	.word	0x000b8ed0

000b72f0 <_ZN9TCPClientC1Ev>:
TCPClient::TCPClient()
   b72f0:	b510      	push	{r4, lr}
        : TCPClient(-1) {
   b72f2:	f04f 31ff 	mov.w	r1, #4294967295	; 0xffffffff
TCPClient::TCPClient()
   b72f6:	4604      	mov	r4, r0
        : TCPClient(-1) {
   b72f8:	f7ff ffd2 	bl	b72a0 <_ZN9TCPClientC1Ei>
}
   b72fc:	4620      	mov	r0, r4
   b72fe:	bd10      	pop	{r4, pc}

000b7300 <_ZN9TCPClient4DataD1Ev>:

TCPClient::Data::~Data() {
   b7300:	b510      	push	{r4, lr}
   b7302:	4604      	mov	r4, r0
    if (socket_handle_valid(sock)) {
   b7304:	6800      	ldr	r0, [r0, #0]
   b7306:	2800      	cmp	r0, #0
   b7308:	db01      	blt.n	b730e <_ZN9TCPClient4DataD1Ev+0xe>
        sock_close(sock);
   b730a:	f7fe ffb3 	bl	b6274 <sock_close>
    }
}
   b730e:	4620      	mov	r0, r4
   b7310:	bd10      	pop	{r4, pc}

000b7312 <_ZNSt23_Sp_counted_ptr_inplaceIN9TCPClient4DataESaIS1_ELN9__gnu_cxx12_Lock_policyE0EE10_M_disposeEv>:

      template<typename _Up>
	void
	destroy(_Up* __p)
	noexcept(std::is_nothrow_destructible<_Up>::value)
	{ __p->~_Up(); }
   b7312:	300c      	adds	r0, #12
   b7314:	f7ff bff4 	b.w	b7300 <_ZN9TCPClient4DataD1Ev>

000b7318 <_GLOBAL__sub_I_TIME_FORMAT_DEFAULT>:
            calendar_time_cache = Convert_UnixTime_To_CalendarTime(unix_time);
            unix_time_cache = unix_time;
    }
}

const char* TimeClass::format_spec = TIME_FORMAT_DEFAULT;
   b7318:	4b02      	ldr	r3, [pc, #8]	; (b7324 <_GLOBAL__sub_I_TIME_FORMAT_DEFAULT+0xc>)
   b731a:	681a      	ldr	r2, [r3, #0]
   b731c:	4b02      	ldr	r3, [pc, #8]	; (b7328 <_GLOBAL__sub_I_TIME_FORMAT_DEFAULT+0x10>)
   b731e:	601a      	str	r2, [r3, #0]
{
  return isValid();
}


TimeClass Time;
   b7320:	4770      	bx	lr
   b7322:	bf00      	nop
   b7324:	2003e57c 	.word	0x2003e57c
   b7328:	2003e6fc 	.word	0x2003e6fc

000b732c <_ZN11USARTSerialD1Ev>:
private:
  hal_usart_interface_t _serial;
  bool _blocking;
public:
  USARTSerial(hal_usart_interface_t serial, const hal_usart_buffer_config_t& config);
  virtual ~USARTSerial() {};
   b732c:	4770      	bx	lr

000b732e <_ZN11USARTSerial14blockOnOverrunEb>:
    hal_usart_half_duplex(_serial, Enable);
}

void USARTSerial::blockOnOverrun(bool block)
{
  _blocking = block;
   b732e:	7441      	strb	r1, [r0, #17]
}
   b7330:	4770      	bx	lr

000b7332 <_ZN11USARTSerial17availableForWriteEv>:


int USARTSerial::availableForWrite(void)
{
   b7332:	b508      	push	{r3, lr}
  return std::max(0, (int)hal_usart_available_data_for_write(_serial));
   b7334:	7c00      	ldrb	r0, [r0, #16]
   b7336:	f7ff f835 	bl	b63a4 <hal_usart_available_data_for_write>
}
   b733a:	ea20 70e0 	bic.w	r0, r0, r0, asr #31
   b733e:	bd08      	pop	{r3, pc}

000b7340 <_ZN11USARTSerial9availableEv>:

int USARTSerial::available(void)
{
   b7340:	b508      	push	{r3, lr}
  return std::max(0, (int)hal_usart_available(_serial));
   b7342:	7c00      	ldrb	r0, [r0, #16]
   b7344:	f7ff f806 	bl	b6354 <hal_usart_available>
}
   b7348:	ea20 70e0 	bic.w	r0, r0, r0, asr #31
   b734c:	bd08      	pop	{r3, pc}

000b734e <_ZN11USARTSerial4peekEv>:

int USARTSerial::peek(void)
{
   b734e:	b508      	push	{r3, lr}
  return std::max(-1, (int)hal_usart_peek(_serial));
   b7350:	7c00      	ldrb	r0, [r0, #16]
   b7352:	f7ff f80f 	bl	b6374 <hal_usart_peek>
}
   b7356:	ea40 70e0 	orr.w	r0, r0, r0, asr #31
   b735a:	bd08      	pop	{r3, pc}

000b735c <_ZN11USARTSerial4readEv>:

int USARTSerial::read(void)
{
   b735c:	b508      	push	{r3, lr}
  return std::max(-1, (int)hal_usart_read(_serial));
   b735e:	7c00      	ldrb	r0, [r0, #16]
   b7360:	f7ff f800 	bl	b6364 <hal_usart_read>
}
   b7364:	ea40 70e0 	orr.w	r0, r0, r0, asr #31
   b7368:	bd08      	pop	{r3, pc}

000b736a <_ZN11USARTSerial5flushEv>:

void USARTSerial::flush()
{
  hal_usart_flush(_serial);
   b736a:	7c00      	ldrb	r0, [r0, #16]
   b736c:	f7ff b80a 	b.w	b6384 <hal_usart_flush>

000b7370 <_ZN11USARTSerial5writeEh>:
}

size_t USARTSerial::write(uint8_t c)
{
   b7370:	b537      	push	{r0, r1, r2, r4, r5, lr}
  // attempt a write if blocking, or for non-blocking if there is room.
  if (_blocking || hal_usart_available_data_for_write(_serial) > 0) {
   b7372:	7c45      	ldrb	r5, [r0, #17]
{
   b7374:	4604      	mov	r4, r0
  if (_blocking || hal_usart_available_data_for_write(_serial) > 0) {
   b7376:	b12d      	cbz	r5, b7384 <_ZN11USARTSerial5writeEh+0x14>
    // the HAL always blocks.
	  return hal_usart_write(_serial, c);
   b7378:	7c20      	ldrb	r0, [r4, #16]
  }
  return 0;
}
   b737a:	b003      	add	sp, #12
   b737c:	e8bd 4030 	ldmia.w	sp!, {r4, r5, lr}
	  return hal_usart_write(_serial, c);
   b7380:	f7fe bfe0 	b.w	b6344 <hal_usart_write>
  if (_blocking || hal_usart_available_data_for_write(_serial) > 0) {
   b7384:	7c00      	ldrb	r0, [r0, #16]
   b7386:	9101      	str	r1, [sp, #4]
   b7388:	f7ff f80c 	bl	b63a4 <hal_usart_available_data_for_write>
   b738c:	2800      	cmp	r0, #0
   b738e:	9901      	ldr	r1, [sp, #4]
   b7390:	dcf2      	bgt.n	b7378 <_ZN11USARTSerial5writeEh+0x8>
}
   b7392:	4628      	mov	r0, r5
   b7394:	b003      	add	sp, #12
   b7396:	bd30      	pop	{r4, r5, pc}

000b7398 <_ZN11USARTSerialD0Ev>:
   b7398:	b510      	push	{r4, lr}
   b739a:	2114      	movs	r1, #20
   b739c:	4604      	mov	r4, r0
   b739e:	f7fc fe7c 	bl	b409a <_ZdlPvj>
   b73a2:	4620      	mov	r0, r4
   b73a4:	bd10      	pop	{r4, pc}
	...

000b73a8 <_ZN11USARTSerialC1E21hal_usart_interface_tRK25hal_usart_buffer_config_t>:
USARTSerial::USARTSerial(hal_usart_interface_t serial, const hal_usart_buffer_config_t& config)
   b73a8:	b510      	push	{r4, lr}
   b73aa:	f44f 737a 	mov.w	r3, #1000	; 0x3e8
   b73ae:	4604      	mov	r4, r0
   b73b0:	4608      	mov	r0, r1
   b73b2:	4611      	mov	r1, r2
   b73b4:	2200      	movs	r2, #0
   b73b6:	e9c4 2301 	strd	r2, r3, [r4, #4]
   b73ba:	4b04      	ldr	r3, [pc, #16]	; (b73cc <_ZN11USARTSerialC1E21hal_usart_interface_tRK25hal_usart_buffer_config_t+0x24>)
   b73bc:	6023      	str	r3, [r4, #0]
  _blocking = true;
   b73be:	2301      	movs	r3, #1
  _serial = serial;
   b73c0:	7420      	strb	r0, [r4, #16]
  _blocking = true;
   b73c2:	7463      	strb	r3, [r4, #17]
  hal_usart_init_ex(serial, &config, nullptr);
   b73c4:	f7fe fff6 	bl	b63b4 <hal_usart_init_ex>
}
   b73c8:	4620      	mov	r0, r4
   b73ca:	bd10      	pop	{r4, pc}
   b73cc:	000b8f54 	.word	0x000b8f54

000b73d0 <_ZN9USBSerial14blockOnOverrunEb>:
  HAL_USB_USART_Flush_Data(_serial);
}

void USBSerial::blockOnOverrun(bool block)
{
  _blocking = block;
   b73d0:	7441      	strb	r1, [r0, #17]
}
   b73d2:	4770      	bx	lr

000b73d4 <__tcf_0>:
}

USBSerial& _fetch_usbserial()
{
  HAL_USB_USART_Config conf = acquireSerialBuffer();
	static USBSerial _usbserial(HAL_USB_USART_SERIAL, conf);
   b73d4:	4770      	bx	lr

000b73d6 <_ZN9USBSerialD1Ev>:
#include "usb_hal.h"
#include "system_task.h"
#include "spark_wiring_startup.h"
#include "concurrent_hal.h"

class USBSerial : public Stream
   b73d6:	4770      	bx	lr

000b73d8 <_ZN9USBSerial4readEv>:
{
   b73d8:	b508      	push	{r3, lr}
	return std::max(-1, (int)HAL_USB_USART_Receive_Data(_serial, false));
   b73da:	2100      	movs	r1, #0
   b73dc:	7c00      	ldrb	r0, [r0, #16]
   b73de:	f7ff f811 	bl	b6404 <HAL_USB_USART_Receive_Data>
}
   b73e2:	ea40 70e0 	orr.w	r0, r0, r0, asr #31
   b73e6:	bd08      	pop	{r3, pc}

000b73e8 <_ZN9USBSerial4peekEv>:
{
   b73e8:	b508      	push	{r3, lr}
	return std::max(-1, (int)HAL_USB_USART_Receive_Data(_serial, true));
   b73ea:	2101      	movs	r1, #1
   b73ec:	7c00      	ldrb	r0, [r0, #16]
   b73ee:	f7ff f809 	bl	b6404 <HAL_USB_USART_Receive_Data>
}
   b73f2:	ea40 70e0 	orr.w	r0, r0, r0, asr #31
   b73f6:	bd08      	pop	{r3, pc}

000b73f8 <_ZN9USBSerial17availableForWriteEv>:
{
   b73f8:	b508      	push	{r3, lr}
  return std::max(0, (int)HAL_USB_USART_Available_Data_For_Write(_serial));
   b73fa:	7c00      	ldrb	r0, [r0, #16]
   b73fc:	f7fe fffa 	bl	b63f4 <HAL_USB_USART_Available_Data_For_Write>
}
   b7400:	ea20 70e0 	bic.w	r0, r0, r0, asr #31
   b7404:	bd08      	pop	{r3, pc}

000b7406 <_ZN9USBSerial9availableEv>:
{
   b7406:	b508      	push	{r3, lr}
	return std::max(0, (int)HAL_USB_USART_Available_Data(_serial));
   b7408:	7c00      	ldrb	r0, [r0, #16]
   b740a:	f7fe ffeb 	bl	b63e4 <HAL_USB_USART_Available_Data>
}
   b740e:	ea20 70e0 	bic.w	r0, r0, r0, asr #31
   b7412:	bd08      	pop	{r3, pc}

000b7414 <_ZN9USBSerial5writeEh>:
{
   b7414:	b513      	push	{r0, r1, r4, lr}
   b7416:	4604      	mov	r4, r0
  if (HAL_USB_USART_Available_Data_For_Write(_serial) > 0 || _blocking) {
   b7418:	7c00      	ldrb	r0, [r0, #16]
{
   b741a:	9101      	str	r1, [sp, #4]
  if (HAL_USB_USART_Available_Data_For_Write(_serial) > 0 || _blocking) {
   b741c:	f7fe ffea 	bl	b63f4 <HAL_USB_USART_Available_Data_For_Write>
   b7420:	2800      	cmp	r0, #0
   b7422:	9901      	ldr	r1, [sp, #4]
   b7424:	dc01      	bgt.n	b742a <_ZN9USBSerial5writeEh+0x16>
   b7426:	7c60      	ldrb	r0, [r4, #17]
   b7428:	b120      	cbz	r0, b7434 <_ZN9USBSerial5writeEh+0x20>
    return std::max(0, (int)HAL_USB_USART_Send_Data(_serial, byte));
   b742a:	7c20      	ldrb	r0, [r4, #16]
   b742c:	f7fe fff2 	bl	b6414 <HAL_USB_USART_Send_Data>
   b7430:	ea20 70e0 	bic.w	r0, r0, r0, asr #31
}
   b7434:	b002      	add	sp, #8
   b7436:	bd10      	pop	{r4, pc}

000b7438 <_ZN9USBSerial5flushEv>:
  HAL_USB_USART_Flush_Data(_serial);
   b7438:	7c00      	ldrb	r0, [r0, #16]
   b743a:	f7fe bff3 	b.w	b6424 <HAL_USB_USART_Flush_Data>

000b743e <_ZN9USBSerialD0Ev>:
   b743e:	b510      	push	{r4, lr}
   b7440:	2114      	movs	r1, #20
   b7442:	4604      	mov	r4, r0
   b7444:	f7fc fe29 	bl	b409a <_ZdlPvj>
   b7448:	4620      	mov	r0, r4
   b744a:	bd10      	pop	{r4, pc}

000b744c <_ZN9USBSerialC1E20HAL_USB_USART_SerialRK20HAL_USB_USART_Config>:
USBSerial::USBSerial(HAL_USB_USART_Serial serial, const HAL_USB_USART_Config& conf)
   b744c:	b510      	push	{r4, lr}
   b744e:	f44f 737a 	mov.w	r3, #1000	; 0x3e8
   b7452:	4604      	mov	r4, r0
   b7454:	4608      	mov	r0, r1
   b7456:	2100      	movs	r1, #0
   b7458:	e9c4 1301 	strd	r1, r3, [r4, #4]
   b745c:	4b04      	ldr	r3, [pc, #16]	; (b7470 <_ZN9USBSerialC1E20HAL_USB_USART_SerialRK20HAL_USB_USART_Config+0x24>)
   b745e:	6023      	str	r3, [r4, #0]
  _blocking = true;
   b7460:	2301      	movs	r3, #1
  _serial = serial;
   b7462:	7420      	strb	r0, [r4, #16]
  _blocking = true;
   b7464:	7463      	strb	r3, [r4, #17]
  HAL_USB_USART_Init(_serial, &conf);
   b7466:	4611      	mov	r1, r2
   b7468:	f7fe ffac 	bl	b63c4 <HAL_USB_USART_Init>
}
   b746c:	4620      	mov	r0, r4
   b746e:	bd10      	pop	{r4, pc}
   b7470:	000b8f84 	.word	0x000b8f84

000b7474 <_ZN9USBSerial5beginEl>:
    HAL_USB_USART_Begin(_serial, speed, NULL);
   b7474:	7c00      	ldrb	r0, [r0, #16]
   b7476:	2200      	movs	r2, #0
   b7478:	f7fe bfac 	b.w	b63d4 <HAL_USB_USART_Begin>

000b747c <_Z19acquireSerialBufferv>:
{
   b747c:	b510      	push	{r4, lr}
  HAL_USB_USART_Config conf = {};
   b747e:	2214      	movs	r2, #20
{
   b7480:	4604      	mov	r4, r0
  HAL_USB_USART_Config conf = {};
   b7482:	2100      	movs	r1, #0
   b7484:	f000 fb66 	bl	b7b54 <memset>
}
   b7488:	4620      	mov	r0, r4
   b748a:	bd10      	pop	{r4, pc}

000b748c <_Z16_fetch_usbserialv>:
{
   b748c:	b510      	push	{r4, lr}
	static USBSerial _usbserial(HAL_USB_USART_SERIAL, conf);
   b748e:	4c0f      	ldr	r4, [pc, #60]	; (b74cc <_Z16_fetch_usbserialv+0x40>)
{
   b7490:	b088      	sub	sp, #32
  HAL_USB_USART_Config conf = acquireSerialBuffer();
   b7492:	a803      	add	r0, sp, #12
   b7494:	f7ff fff2 	bl	b747c <_Z19acquireSerialBufferv>
	static USBSerial _usbserial(HAL_USB_USART_SERIAL, conf);
   b7498:	7821      	ldrb	r1, [r4, #0]
   b749a:	f3bf 8f5b 	dmb	ish
   b749e:	f011 0101 	ands.w	r1, r1, #1
   b74a2:	d10f      	bne.n	b74c4 <_Z16_fetch_usbserialv+0x38>
   b74a4:	4620      	mov	r0, r4
   b74a6:	9101      	str	r1, [sp, #4]
   b74a8:	f7fc fe06 	bl	b40b8 <__cxa_guard_acquire>
   b74ac:	9901      	ldr	r1, [sp, #4]
   b74ae:	b148      	cbz	r0, b74c4 <_Z16_fetch_usbserialv+0x38>
   b74b0:	aa03      	add	r2, sp, #12
   b74b2:	4807      	ldr	r0, [pc, #28]	; (b74d0 <_Z16_fetch_usbserialv+0x44>)
   b74b4:	f7ff ffca 	bl	b744c <_ZN9USBSerialC1E20HAL_USB_USART_SerialRK20HAL_USB_USART_Config>
   b74b8:	4620      	mov	r0, r4
   b74ba:	f7fc fe02 	bl	b40c2 <__cxa_guard_release>
   b74be:	4805      	ldr	r0, [pc, #20]	; (b74d4 <_Z16_fetch_usbserialv+0x48>)
   b74c0:	f000 fb2c 	bl	b7b1c <atexit>
	return _usbserial;
}
   b74c4:	4802      	ldr	r0, [pc, #8]	; (b74d0 <_Z16_fetch_usbserialv+0x44>)
   b74c6:	b008      	add	sp, #32
   b74c8:	bd10      	pop	{r4, pc}
   b74ca:	bf00      	nop
   b74cc:	2003e700 	.word	0x2003e700
   b74d0:	2003e704 	.word	0x2003e704
   b74d4:	000b73d5 	.word	0x000b73d5

000b74d8 <_ZN5spark9WiFiClass5readyEv>:
    bool connecting(void) {
        return network_connecting(*this, 0, NULL);
    }

    bool ready(void) {
        return network_ready(*this, 0, NULL);
   b74d8:	2200      	movs	r2, #0
   b74da:	6840      	ldr	r0, [r0, #4]
   b74dc:	4611      	mov	r1, r2
   b74de:	f7ff b80d 	b.w	b64fc <network_ready>

000b74e2 <_ZN5spark9WiFiClass9listeningEv>:
    uint16_t getListenTimeout(void) {
        return network_get_listen_timeout(*this, 0, NULL);
    }

    bool listening(void) {
        return network_listening(*this, 0, NULL);
   b74e2:	2200      	movs	r2, #0
   b74e4:	6840      	ldr	r0, [r0, #4]
   b74e6:	4611      	mov	r1, r2
   b74e8:	f7ff b828 	b.w	b653c <network_listening>

000b74ec <_ZN5spark9WiFiClass16getListenTimeoutEv>:
        return network_get_listen_timeout(*this, 0, NULL);
   b74ec:	2200      	movs	r2, #0
   b74ee:	6840      	ldr	r0, [r0, #4]
   b74f0:	4611      	mov	r1, r2
   b74f2:	f7ff b833 	b.w	b655c <network_get_listen_timeout>

000b74f6 <_ZN5spark9WiFiClass16setListenTimeoutEt>:
        network_set_listen_timeout(*this, timeout, NULL);
   b74f6:	6840      	ldr	r0, [r0, #4]
   b74f8:	2200      	movs	r2, #0
   b74fa:	f7ff b827 	b.w	b654c <network_set_listen_timeout>

000b74fe <_ZN5spark9WiFiClass6listenEb>:
        network_listen(*this, begin ? 0 : 1, NULL);
   b74fe:	6840      	ldr	r0, [r0, #4]
   b7500:	2200      	movs	r2, #0
   b7502:	f081 0101 	eor.w	r1, r1, #1
   b7506:	f7ff b811 	b.w	b652c <network_listen>

000b750a <_ZN5spark9WiFiClass3offEv>:
        network_off(*this, 0, 0, NULL);
   b750a:	2300      	movs	r3, #0
   b750c:	6840      	ldr	r0, [r0, #4]
   b750e:	461a      	mov	r2, r3
   b7510:	4619      	mov	r1, r3
   b7512:	f7ff b803 	b.w	b651c <network_off>

000b7516 <_ZN5spark9WiFiClass2onEv>:
        network_on(*this, 0, 0, NULL);
   b7516:	2300      	movs	r3, #0
   b7518:	6840      	ldr	r0, [r0, #4]
   b751a:	461a      	mov	r2, r3
   b751c:	4619      	mov	r1, r3
   b751e:	f7fe bff5 	b.w	b650c <network_on>

000b7522 <_ZN5spark9WiFiClass10connectingEv>:
        return network_connecting(*this, 0, NULL);
   b7522:	2200      	movs	r2, #0
   b7524:	6840      	ldr	r0, [r0, #4]
   b7526:	4611      	mov	r1, r2
   b7528:	f7fe bfd8 	b.w	b64dc <network_connecting>

000b752c <_ZN5spark9WiFiClass10disconnectEv>:
        network_disconnect(*this, NETWORK_DISCONNECT_REASON_USER, NULL);
   b752c:	6840      	ldr	r0, [r0, #4]
   b752e:	2200      	movs	r2, #0
   b7530:	2102      	movs	r1, #2
   b7532:	f7fe bfdb 	b.w	b64ec <network_disconnect>

000b7536 <_ZN5spark9WiFiClass7connectEj>:
        network_connect(*this, flags, 0, NULL);
   b7536:	2300      	movs	r3, #0
   b7538:	6840      	ldr	r0, [r0, #4]
   b753a:	461a      	mov	r2, r3
   b753c:	f7fe bfc6 	b.w	b64cc <network_connect>

000b7540 <_GLOBAL__sub_I__ZN10WiFiSignalC2ERK21wlan_connected_info_t>:
   b7540:	4b02      	ldr	r3, [pc, #8]	; (b754c <_GLOBAL__sub_I__ZN10WiFiSignalC2ERK21wlan_connected_info_t+0xc>)
   b7542:	2204      	movs	r2, #4
   b7544:	605a      	str	r2, [r3, #4]
            NetworkClass(NETWORK_INTERFACE_WIFI_STA) {
   b7546:	4a02      	ldr	r2, [pc, #8]	; (b7550 <_GLOBAL__sub_I__ZN10WiFiSignalC2ERK21wlan_connected_info_t+0x10>)
   b7548:	601a      	str	r2, [r3, #0]
the same way.
*****************************************************************************/

    WiFiClass WiFi;
    // NetworkClass& Network = WiFi;
}
   b754a:	4770      	bx	lr
   b754c:	2003e718 	.word	0x2003e718
   b7550:	000b8fb4 	.word	0x000b8fb4

000b7554 <_ZZ21module_user_init_hookENUlP6_reentjmPvE_4_FUNES0_jmS1_>:

void module_user_init_hook()
{
#if HAL_PLATFORM_NEWLIB
    newlib_impure_ptr_callback([](struct _reent* r, size_t size, uint32_t version, void* ctx) -> void {
        _impure_ptr = r;
   b7554:	4b01      	ldr	r3, [pc, #4]	; (b755c <_ZZ21module_user_init_hookENUlP6_reentjmPvE_4_FUNES0_jmS1_+0x8>)
   b7556:	6018      	str	r0, [r3, #0]
    }, nullptr);
   b7558:	4770      	bx	lr
   b755a:	bf00      	nop
   b755c:	2003e580 	.word	0x2003e580

000b7560 <serialEventRun>:
{
   b7560:	b508      	push	{r3, lr}
    if (serialEvent && Serial.available()>0)
   b7562:	4b0b      	ldr	r3, [pc, #44]	; (b7590 <serialEventRun+0x30>)
   b7564:	b143      	cbz	r3, b7578 <serialEventRun+0x18>
   b7566:	f7ff ff91 	bl	b748c <_Z16_fetch_usbserialv>
   b756a:	6803      	ldr	r3, [r0, #0]
   b756c:	691b      	ldr	r3, [r3, #16]
   b756e:	4798      	blx	r3
   b7570:	2800      	cmp	r0, #0
   b7572:	dd01      	ble.n	b7578 <serialEventRun+0x18>
        serialEvent();
   b7574:	f3af 8000 	nop.w
    if (serialEvent1 && Serial1.available()>0)
   b7578:	4b06      	ldr	r3, [pc, #24]	; (b7594 <serialEventRun+0x34>)
   b757a:	b143      	cbz	r3, b758e <serialEventRun+0x2e>
   b757c:	f000 f996 	bl	b78ac <_Z22__fetch_global_Serial1v>
   b7580:	6803      	ldr	r3, [r0, #0]
   b7582:	691b      	ldr	r3, [r3, #16]
   b7584:	4798      	blx	r3
   b7586:	2800      	cmp	r0, #0
   b7588:	dd01      	ble.n	b758e <serialEventRun+0x2e>
        serialEvent1();
   b758a:	f3af 8000 	nop.w
}
   b758e:	bd08      	pop	{r3, pc}
	...

000b7598 <_post_loop>:
{
   b7598:	b508      	push	{r3, lr}
	serialEventRun();
   b759a:	f7ff ffe1 	bl	b7560 <serialEventRun>
		return !timeout_fn;
	}

	static inline system_tick_t current_time()
	{
		return HAL_Timer_Get_Milli_Seconds();
   b759e:	f7fe fd89 	bl	b60b4 <HAL_Timer_Get_Milli_Seconds>
	/**
	 * Lifesign that the application is still working normally.
	 */
	static void checkin()
	{
		last_checkin = current_time();
   b75a2:	4b01      	ldr	r3, [pc, #4]	; (b75a8 <_post_loop+0x10>)
   b75a4:	6018      	str	r0, [r3, #0]
}
   b75a6:	bd08      	pop	{r3, pc}
   b75a8:	2003e728 	.word	0x2003e728

000b75ac <_Z33system_initialize_user_backup_ramv>:
    memcpy(&link_global_retained_start, &link_global_retained_initial_values, len);
   b75ac:	4805      	ldr	r0, [pc, #20]	; (b75c4 <_Z33system_initialize_user_backup_ramv+0x18>)
   b75ae:	4a06      	ldr	r2, [pc, #24]	; (b75c8 <_Z33system_initialize_user_backup_ramv+0x1c>)
   b75b0:	4906      	ldr	r1, [pc, #24]	; (b75cc <_Z33system_initialize_user_backup_ramv+0x20>)
{
   b75b2:	b508      	push	{r3, lr}
    memcpy(&link_global_retained_start, &link_global_retained_initial_values, len);
   b75b4:	1a12      	subs	r2, r2, r0
   b75b6:	f000 fabf 	bl	b7b38 <memcpy>
    __backup_sram_signature = signature;
   b75ba:	4b05      	ldr	r3, [pc, #20]	; (b75d0 <_Z33system_initialize_user_backup_ramv+0x24>)
   b75bc:	4a05      	ldr	r2, [pc, #20]	; (b75d4 <_Z33system_initialize_user_backup_ramv+0x28>)
   b75be:	601a      	str	r2, [r3, #0]
}
   b75c0:	bd08      	pop	{r3, pc}
   b75c2:	bf00      	nop
   b75c4:	2003f400 	.word	0x2003f400
   b75c8:	2003f404 	.word	0x2003f404
   b75cc:	000b92a4 	.word	0x000b92a4
   b75d0:	2003f400 	.word	0x2003f400
   b75d4:	9a271c1e 	.word	0x9a271c1e

000b75d8 <_Z27ctrl_request_custom_handlerP12ctrl_request>:
void __attribute((weak)) ctrl_request_custom_handler(ctrl_request* req) {
   b75d8:	b507      	push	{r0, r1, r2, lr}
    system_ctrl_set_result(req, SYSTEM_ERROR_NOT_SUPPORTED, nullptr, nullptr, nullptr);
   b75da:	2300      	movs	r3, #0
   b75dc:	9300      	str	r3, [sp, #0]
   b75de:	461a      	mov	r2, r3
   b75e0:	f06f 0177 	mvn.w	r1, #119	; 0x77
   b75e4:	f7fe ff58 	bl	b6498 <system_ctrl_set_result>
}
   b75e8:	b003      	add	sp, #12
   b75ea:	f85d fb04 	ldr.w	pc, [sp], #4
	...

000b75f0 <_ZL20ctrl_request_handlerP12ctrl_request>:
static void ctrl_request_handler(ctrl_request* req) {
   b75f0:	b507      	push	{r0, r1, r2, lr}
    switch (req->type) {
   b75f2:	8843      	ldrh	r3, [r0, #2]
   b75f4:	2b0a      	cmp	r3, #10
   b75f6:	d008      	beq.n	b760a <_ZL20ctrl_request_handlerP12ctrl_request+0x1a>
   b75f8:	2b50      	cmp	r3, #80	; 0x50
   b75fa:	d10b      	bne.n	b7614 <_ZL20ctrl_request_handlerP12ctrl_request+0x24>
        if (log_process_ctrl_request_callback) {
   b75fc:	4b09      	ldr	r3, [pc, #36]	; (b7624 <_ZL20ctrl_request_handlerP12ctrl_request+0x34>)
   b75fe:	681b      	ldr	r3, [r3, #0]
   b7600:	b14b      	cbz	r3, b7616 <_ZL20ctrl_request_handlerP12ctrl_request+0x26>
}
   b7602:	b003      	add	sp, #12
   b7604:	f85d eb04 	ldr.w	lr, [sp], #4
            log_process_ctrl_request_callback(req);
   b7608:	4718      	bx	r3
        ctrl_request_custom_handler(req);
   b760a:	f7ff ffe5 	bl	b75d8 <_Z27ctrl_request_custom_handlerP12ctrl_request>
}
   b760e:	b003      	add	sp, #12
   b7610:	f85d fb04 	ldr.w	pc, [sp], #4
        system_ctrl_set_result(req, SYSTEM_ERROR_NOT_SUPPORTED, nullptr, nullptr, nullptr);
   b7614:	2300      	movs	r3, #0
   b7616:	9300      	str	r3, [sp, #0]
   b7618:	461a      	mov	r2, r3
   b761a:	f06f 0177 	mvn.w	r1, #119	; 0x77
   b761e:	f7fe ff3b 	bl	b6498 <system_ctrl_set_result>
}
   b7622:	e7f4      	b.n	b760e <_ZL20ctrl_request_handlerP12ctrl_request+0x1e>
   b7624:	2003e724 	.word	0x2003e724

000b7628 <module_user_init_hook>:
{
   b7628:	b510      	push	{r4, lr}
    newlib_impure_ptr_callback([](struct _reent* r, size_t size, uint32_t version, void* ctx) -> void {
   b762a:	4812      	ldr	r0, [pc, #72]	; (b7674 <module_user_init_hook+0x4c>)
   b762c:	2100      	movs	r1, #0
   b762e:	f7fe ffdd 	bl	b65ec <newlib_impure_ptr_callback>
#endif // HAL_PLATFORM_NEWLIB

#if HAL_PLATFORM_BACKUP_RAM
    backup_ram_was_valid_ = __backup_sram_signature == signature;
   b7632:	4b11      	ldr	r3, [pc, #68]	; (b7678 <module_user_init_hook+0x50>)
   b7634:	681a      	ldr	r2, [r3, #0]
   b7636:	4b11      	ldr	r3, [pc, #68]	; (b767c <module_user_init_hook+0x54>)
   b7638:	429a      	cmp	r2, r3
   b763a:	4b11      	ldr	r3, [pc, #68]	; (b7680 <module_user_init_hook+0x58>)
   b763c:	bf0c      	ite	eq
   b763e:	2201      	moveq	r2, #1
   b7640:	2200      	movne	r2, #0
   b7642:	701a      	strb	r2, [r3, #0]
    if (!backup_ram_was_valid_) {
   b7644:	d001      	beq.n	b764a <module_user_init_hook+0x22>
        system_initialize_user_backup_ram();
   b7646:	f7ff ffb1 	bl	b75ac <_Z33system_initialize_user_backup_ramv>
    }
#endif

#if HAL_PLATFORM_RNG
    // Initialize the default stdlib PRNG using hardware RNG as a seed
    const uint32_t seed = HAL_RNG_GetRandomNumber();
   b764a:	f7fe fd23 	bl	b6094 <HAL_RNG_GetRandomNumber>
   b764e:	4604      	mov	r4, r0
    srand(seed);
   b7650:	f000 fa88 	bl	b7b64 <srand>

    // If the user defines random_seed_from_cloud, call it with a seed value
    // generated by a hardware RNG as well.
    if (random_seed_from_cloud) {
   b7654:	4b0b      	ldr	r3, [pc, #44]	; (b7684 <module_user_init_hook+0x5c>)
   b7656:	b113      	cbz	r3, b765e <module_user_init_hook+0x36>
        random_seed_from_cloud(seed);
   b7658:	4620      	mov	r0, r4
   b765a:	f3af 8000 	nop.w
    }
#endif
    // Register the random_seed_from_cloud handler
    spark_set_random_seed_from_cloud_handler(&random_seed_from_cloud, nullptr);
   b765e:	2100      	movs	r1, #0
   b7660:	4808      	ldr	r0, [pc, #32]	; (b7684 <module_user_init_hook+0x5c>)
   b7662:	f7fe ff2b 	bl	b64bc <spark_set_random_seed_from_cloud_handler>

    // Register application handler for the control requests
    system_ctrl_set_app_request_handler(ctrl_request_handler, nullptr);
}
   b7666:	e8bd 4010 	ldmia.w	sp!, {r4, lr}
    system_ctrl_set_app_request_handler(ctrl_request_handler, nullptr);
   b766a:	4807      	ldr	r0, [pc, #28]	; (b7688 <module_user_init_hook+0x60>)
   b766c:	2100      	movs	r1, #0
   b766e:	f7fe bf09 	b.w	b6484 <system_ctrl_set_app_request_handler>
   b7672:	bf00      	nop
   b7674:	000b7555 	.word	0x000b7555
   b7678:	2003f400 	.word	0x2003f400
   b767c:	9a271c1e 	.word	0x9a271c1e
   b7680:	2003e720 	.word	0x2003e720
   b7684:	00000000 	.word	0x00000000
   b7688:	000b75f1 	.word	0x000b75f1

000b768c <pinAvailable>:
/*
 * @brief Perform safety check on desired pin to see if it's already
 * being used.  Return 0 if used, otherwise return 1 if available.
 */
bool pinAvailable(uint16_t pin) {
  if (pin >= TOTAL_PINS) {
   b768c:	2823      	cmp	r0, #35	; 0x23
bool pinAvailable(uint16_t pin) {
   b768e:	b513      	push	{r0, r1, r4, lr}
  if (pin >= TOTAL_PINS) {
   b7690:	d902      	bls.n	b7698 <pinAvailable+0xc>
    return false;
   b7692:	2000      	movs	r0, #0
    return false; // 'pin' is used
  }
#endif

  return true; // 'pin' is available
}
   b7694:	b002      	add	sp, #8
   b7696:	bd10      	pop	{r4, pc}
  if((pin == SCK || pin == MOSI || pin == MISO) && hal_spi_is_enabled(SPI.interface()) == true)
   b7698:	f1a0 030b 	sub.w	r3, r0, #11
   b769c:	2b02      	cmp	r3, #2
   b769e:	d81a      	bhi.n	b76d6 <pinAvailable+0x4a>

template <hal_spi_interface_t Interface>
class SpiProxy {
public:
    static SPIClass& instance() {
        static SPIClass instance(Interface);
   b76a0:	4c17      	ldr	r4, [pc, #92]	; (b7700 <pinAvailable+0x74>)
   b76a2:	7821      	ldrb	r1, [r4, #0]
   b76a4:	f3bf 8f5b 	dmb	ish
   b76a8:	f011 0101 	ands.w	r1, r1, #1
   b76ac:	d10b      	bne.n	b76c6 <pinAvailable+0x3a>
   b76ae:	4620      	mov	r0, r4
   b76b0:	9101      	str	r1, [sp, #4]
   b76b2:	f7fc fd01 	bl	b40b8 <__cxa_guard_acquire>
   b76b6:	9901      	ldr	r1, [sp, #4]
   b76b8:	b128      	cbz	r0, b76c6 <pinAvailable+0x3a>
   b76ba:	4812      	ldr	r0, [pc, #72]	; (b7704 <pinAvailable+0x78>)
   b76bc:	f7ff fa54 	bl	b6b68 <_ZN8SPIClassC1E19hal_spi_interface_t>
   b76c0:	4620      	mov	r0, r4
   b76c2:	f7fc fcfe 	bl	b40c2 <__cxa_guard_release>
   b76c6:	4b0f      	ldr	r3, [pc, #60]	; (b7704 <pinAvailable+0x78>)
   b76c8:	7818      	ldrb	r0, [r3, #0]
   b76ca:	f7fe fe13 	bl	b62f4 <hal_spi_is_enabled>
   b76ce:	2800      	cmp	r0, #0
   b76d0:	d1df      	bne.n	b7692 <pinAvailable+0x6>
  return true; // 'pin' is available
   b76d2:	2001      	movs	r0, #1
   b76d4:	e7de      	b.n	b7694 <pinAvailable+0x8>
  if((pin == SCL || pin == SDA) && hal_i2c_is_enabled(Wire.interface(), nullptr) == true)
   b76d6:	2801      	cmp	r0, #1
   b76d8:	d809      	bhi.n	b76ee <pinAvailable+0x62>
   b76da:	f000 f8a7 	bl	b782c <_Z19__fetch_global_Wirev>
   b76de:	2100      	movs	r1, #0
   b76e0:	7c00      	ldrb	r0, [r0, #16]
   b76e2:	f7fe fd77 	bl	b61d4 <hal_i2c_is_enabled>
  if((pin == RX || pin == TX) && hal_usart_is_enabled(Serial1.interface()) == true)
   b76e6:	f080 0001 	eor.w	r0, r0, #1
   b76ea:	b2c0      	uxtb	r0, r0
   b76ec:	e7d2      	b.n	b7694 <pinAvailable+0x8>
   b76ee:	3809      	subs	r0, #9
   b76f0:	2801      	cmp	r0, #1
   b76f2:	d8ee      	bhi.n	b76d2 <pinAvailable+0x46>
   b76f4:	f000 f8da 	bl	b78ac <_Z22__fetch_global_Serial1v>
   b76f8:	7c00      	ldrb	r0, [r0, #16]
   b76fa:	f7fe fe4b 	bl	b6394 <hal_usart_is_enabled>
   b76fe:	e7f2      	b.n	b76e6 <pinAvailable+0x5a>
   b7700:	2003e6b8 	.word	0x2003e6b8
   b7704:	2003e6bc 	.word	0x2003e6bc

000b7708 <pinMode>:
  if(pin >= TOTAL_PINS || setMode == PIN_MODE_NONE )
   b7708:	2823      	cmp	r0, #35	; 0x23
{
   b770a:	b538      	push	{r3, r4, r5, lr}
   b770c:	4604      	mov	r4, r0
   b770e:	460d      	mov	r5, r1
  if(pin >= TOTAL_PINS || setMode == PIN_MODE_NONE )
   b7710:	d80a      	bhi.n	b7728 <pinMode+0x20>
   b7712:	29ff      	cmp	r1, #255	; 0xff
   b7714:	d008      	beq.n	b7728 <pinMode+0x20>
  if( !pinAvailable(pin) ) {
   b7716:	f7ff ffb9 	bl	b768c <pinAvailable>
   b771a:	b128      	cbz	r0, b7728 <pinMode+0x20>
  HAL_Pin_Mode(pin, setMode);
   b771c:	4629      	mov	r1, r5
   b771e:	4620      	mov	r0, r4
}
   b7720:	e8bd 4038 	ldmia.w	sp!, {r3, r4, r5, lr}
  HAL_Pin_Mode(pin, setMode);
   b7724:	f7fe bcd6 	b.w	b60d4 <HAL_Pin_Mode>
}
   b7728:	bd38      	pop	{r3, r4, r5, pc}

000b772a <digitalWrite>:

/*
 * @brief Sets a GPIO pin to HIGH or LOW.
 */
void digitalWrite(pin_t pin, uint8_t value)
{
   b772a:	b538      	push	{r3, r4, r5, lr}
   b772c:	4604      	mov	r4, r0
   b772e:	460d      	mov	r5, r1
    PinMode mode = HAL_Get_Pin_Mode(pin);
   b7730:	f7fe fcd8 	bl	b60e4 <HAL_Get_Pin_Mode>
    if (mode==PIN_MODE_NONE || is_input_mode(mode))
   b7734:	28ff      	cmp	r0, #255	; 0xff
   b7736:	d010      	beq.n	b775a <digitalWrite+0x30>
            mode == INPUT_PULLDOWN ||
   b7738:	2806      	cmp	r0, #6
   b773a:	d804      	bhi.n	b7746 <digitalWrite+0x1c>
   b773c:	234d      	movs	r3, #77	; 0x4d
   b773e:	fa23 f000 	lsr.w	r0, r3, r0
   b7742:	07c3      	lsls	r3, r0, #31
   b7744:	d409      	bmi.n	b775a <digitalWrite+0x30>
        return;
  // Safety check
  if( !pinAvailable(pin) ) {
   b7746:	4620      	mov	r0, r4
   b7748:	f7ff ffa0 	bl	b768c <pinAvailable>
   b774c:	b128      	cbz	r0, b775a <digitalWrite+0x30>
    return;
  }

  HAL_GPIO_Write(pin, value);
   b774e:	4629      	mov	r1, r5
   b7750:	4620      	mov	r0, r4
}
   b7752:	e8bd 4038 	ldmia.w	sp!, {r3, r4, r5, lr}
  HAL_GPIO_Write(pin, value);
   b7756:	f7fe bccd 	b.w	b60f4 <HAL_GPIO_Write>
}
   b775a:	bd38      	pop	{r3, r4, r5, pc}

000b775c <digitalRead>:

/*
 * @brief Reads the value of a GPIO pin. Should return either 1 (HIGH) or 0 (LOW).
 */
int32_t digitalRead(pin_t pin)
{
   b775c:	b510      	push	{r4, lr}
   b775e:	4604      	mov	r4, r0
    PinMode mode = HAL_Get_Pin_Mode(pin);
   b7760:	f7fe fcc0 	bl	b60e4 <HAL_Get_Pin_Mode>
    return mode == AF_OUTPUT_PUSHPULL ||
   b7764:	1f03      	subs	r3, r0, #4
    if (is_af_output_mode(mode))
   b7766:	b2db      	uxtb	r3, r3
   b7768:	2b01      	cmp	r3, #1
   b776a:	d908      	bls.n	b777e <digitalRead+0x22>
        return LOW;

    // Safety check
    if( !pinAvailable(pin) ) {
   b776c:	4620      	mov	r0, r4
   b776e:	f7ff ff8d 	bl	b768c <pinAvailable>
   b7772:	b120      	cbz	r0, b777e <digitalRead+0x22>
      return LOW;
    }

    return HAL_GPIO_Read(pin);
   b7774:	4620      	mov	r0, r4
}
   b7776:	e8bd 4010 	ldmia.w	sp!, {r4, lr}
    return HAL_GPIO_Read(pin);
   b777a:	f7fe bcc3 	b.w	b6104 <HAL_GPIO_Read>
}
   b777e:	2000      	movs	r0, #0
   b7780:	bd10      	pop	{r4, pc}

000b7782 <analogRead>:
 */
int32_t analogRead(pin_t pin)
{
  // Allow people to use 0-7 to define analog pins by checking to see if the values are too low.
#if defined(FIRST_ANALOG_PIN) && FIRST_ANALOG_PIN > 0
  if(pin < FIRST_ANALOG_PIN)
   b7782:	280d      	cmp	r0, #13
{
   b7784:	b510      	push	{r4, lr}
   b7786:	4604      	mov	r4, r0
  {
    pin = pin + FIRST_ANALOG_PIN;
   b7788:	bf9c      	itt	ls
   b778a:	340e      	addls	r4, #14
   b778c:	b2a4      	uxthls	r4, r4
  }
#endif // defined(FIRST_ANALOG_PIN) && FIRST_ANALOG_PIN > 0

  // Safety check
  if( !pinAvailable(pin) ) {
   b778e:	4620      	mov	r0, r4
   b7790:	f7ff ff7c 	bl	b768c <pinAvailable>
   b7794:	b150      	cbz	r0, b77ac <analogRead+0x2a>
    return LOW;
  }

  if(HAL_Validate_Pin_Function(pin, PF_ADC)!=PF_ADC)
   b7796:	2103      	movs	r1, #3
   b7798:	4620      	mov	r0, r4
   b779a:	f7fe fc93 	bl	b60c4 <HAL_Validate_Pin_Function>
   b779e:	2803      	cmp	r0, #3
   b77a0:	d104      	bne.n	b77ac <analogRead+0x2a>
  {
    return LOW;
  }

  return hal_adc_read(pin);
   b77a2:	4620      	mov	r0, r4
}
   b77a4:	e8bd 4010 	ldmia.w	sp!, {r4, lr}
  return hal_adc_read(pin);
   b77a8:	f7fe bcbc 	b.w	b6124 <hal_adc_read>
}
   b77ac:	2000      	movs	r0, #0
   b77ae:	bd10      	pop	{r4, pc}

000b77b0 <_Z11analogWritetm>:
/*
 * @brief Should take an integer 0-255 and create a 500Hz PWM signal with a duty cycle from 0-100%.
 * On Photon, DAC1 and DAC2 act as true analog outputs(values: 0 to 4095) using onchip DAC peripheral
 */
void analogWrite(pin_t pin, uint32_t value)
{
   b77b0:	b538      	push	{r3, r4, r5, lr}
   b77b2:	4604      	mov	r4, r0
   b77b4:	460d      	mov	r5, r1
    // Safety check
    if (!pinAvailable(pin))
   b77b6:	f7ff ff69 	bl	b768c <pinAvailable>
   b77ba:	b1f0      	cbz	r0, b77fa <_Z11analogWritetm+0x4a>
    {
        return;
    }

    if (HAL_Validate_Pin_Function(pin, PF_DAC) == PF_DAC)
   b77bc:	2104      	movs	r1, #4
   b77be:	4620      	mov	r0, r4
   b77c0:	f7fe fc80 	bl	b60c4 <HAL_Validate_Pin_Function>
   b77c4:	2804      	cmp	r0, #4
   b77c6:	d105      	bne.n	b77d4 <_Z11analogWritetm+0x24>
    {
        HAL_DAC_Write(pin, value);
   b77c8:	b2a9      	uxth	r1, r5
   b77ca:	4620      	mov	r0, r4
            return;
        }

        hal_pwm_write_ext(pin, value);
    }
}
   b77cc:	e8bd 4038 	ldmia.w	sp!, {r3, r4, r5, lr}
        HAL_DAC_Write(pin, value);
   b77d0:	f7fe bca0 	b.w	b6114 <HAL_DAC_Write>
    else if (HAL_Validate_Pin_Function(pin, PF_TIMER) == PF_TIMER)
   b77d4:	2102      	movs	r1, #2
   b77d6:	4620      	mov	r0, r4
   b77d8:	f7fe fc74 	bl	b60c4 <HAL_Validate_Pin_Function>
   b77dc:	2802      	cmp	r0, #2
   b77de:	d10c      	bne.n	b77fa <_Z11analogWritetm+0x4a>
        PinMode mode = HAL_Get_Pin_Mode(pin);
   b77e0:	4620      	mov	r0, r4
   b77e2:	f7fe fc7f 	bl	b60e4 <HAL_Get_Pin_Mode>
        if (mode != OUTPUT && mode != AF_OUTPUT_PUSHPULL)
   b77e6:	2801      	cmp	r0, #1
   b77e8:	d001      	beq.n	b77ee <_Z11analogWritetm+0x3e>
   b77ea:	2804      	cmp	r0, #4
   b77ec:	d105      	bne.n	b77fa <_Z11analogWritetm+0x4a>
        hal_pwm_write_ext(pin, value);
   b77ee:	4629      	mov	r1, r5
   b77f0:	4620      	mov	r0, r4
}
   b77f2:	e8bd 4038 	ldmia.w	sp!, {r3, r4, r5, lr}
        hal_pwm_write_ext(pin, value);
   b77f6:	f7fe bc9d 	b.w	b6134 <hal_pwm_write_ext>
}
   b77fa:	bd38      	pop	{r3, r4, r5, pc}

000b77fc <__tcf_0>:
}
#endif

TwoWire& __fetch_global_Wire()
{
	static TwoWire wire(HAL_I2C_INTERFACE1, acquireWireBuffer());
   b77fc:	4770      	bx	lr
	...

000b7800 <_Z17acquireWireBufferv>:
{
   b7800:	b538      	push	{r3, r4, r5, lr}
	hal_i2c_config_t config = {
   b7802:	2520      	movs	r5, #32
   b7804:	2314      	movs	r3, #20
{
   b7806:	4604      	mov	r4, r0
	hal_i2c_config_t config = {
   b7808:	6003      	str	r3, [r0, #0]
   b780a:	6085      	str	r5, [r0, #8]
   b780c:	6105      	str	r5, [r0, #16]
		.rx_buffer = new (std::nothrow) uint8_t[I2C_BUFFER_LENGTH],
   b780e:	4906      	ldr	r1, [pc, #24]	; (b7828 <_Z17acquireWireBufferv+0x28>)
   b7810:	4628      	mov	r0, r5
   b7812:	f000 f86f 	bl	b78f4 <_ZnajRKSt9nothrow_t>
		.tx_buffer = new (std::nothrow) uint8_t[I2C_BUFFER_LENGTH],
   b7816:	4904      	ldr	r1, [pc, #16]	; (b7828 <_Z17acquireWireBufferv+0x28>)
	};
   b7818:	6060      	str	r0, [r4, #4]
		.tx_buffer = new (std::nothrow) uint8_t[I2C_BUFFER_LENGTH],
   b781a:	4628      	mov	r0, r5
   b781c:	f000 f86a 	bl	b78f4 <_ZnajRKSt9nothrow_t>
	};
   b7820:	60e0      	str	r0, [r4, #12]
}
   b7822:	4620      	mov	r0, r4
   b7824:	bd38      	pop	{r3, r4, r5, pc}
   b7826:	bf00      	nop
   b7828:	000b8fe8 	.word	0x000b8fe8

000b782c <_Z19__fetch_global_Wirev>:
{
   b782c:	b530      	push	{r4, r5, lr}
	static TwoWire wire(HAL_I2C_INTERFACE1, acquireWireBuffer());
   b782e:	4d0e      	ldr	r5, [pc, #56]	; (b7868 <_Z19__fetch_global_Wirev+0x3c>)
   b7830:	7829      	ldrb	r1, [r5, #0]
   b7832:	f3bf 8f5b 	dmb	ish
   b7836:	f011 0401 	ands.w	r4, r1, #1
{
   b783a:	b087      	sub	sp, #28
	static TwoWire wire(HAL_I2C_INTERFACE1, acquireWireBuffer());
   b783c:	d111      	bne.n	b7862 <_Z19__fetch_global_Wirev+0x36>
   b783e:	4628      	mov	r0, r5
   b7840:	f7fc fc3a 	bl	b40b8 <__cxa_guard_acquire>
   b7844:	b168      	cbz	r0, b7862 <_Z19__fetch_global_Wirev+0x36>
   b7846:	a801      	add	r0, sp, #4
   b7848:	f7ff ffda 	bl	b7800 <_Z17acquireWireBufferv>
   b784c:	aa01      	add	r2, sp, #4
   b784e:	4621      	mov	r1, r4
   b7850:	4806      	ldr	r0, [pc, #24]	; (b786c <_Z19__fetch_global_Wirev+0x40>)
   b7852:	f7fe ff49 	bl	b66e8 <_ZN7TwoWireC1E19hal_i2c_interface_tRK16hal_i2c_config_t>
   b7856:	4628      	mov	r0, r5
   b7858:	f7fc fc33 	bl	b40c2 <__cxa_guard_release>
   b785c:	4804      	ldr	r0, [pc, #16]	; (b7870 <_Z19__fetch_global_Wirev+0x44>)
   b785e:	f000 f95d 	bl	b7b1c <atexit>
	return wire;
}
   b7862:	4802      	ldr	r0, [pc, #8]	; (b786c <_Z19__fetch_global_Wirev+0x40>)
   b7864:	b007      	add	sp, #28
   b7866:	bd30      	pop	{r4, r5, pc}
   b7868:	2003e72c 	.word	0x2003e72c
   b786c:	2003e730 	.word	0x2003e730
   b7870:	000b77fd 	.word	0x000b77fd

000b7874 <__tcf_0>:
}
#endif

USARTSerial& __fetch_global_Serial1()
{
    static USARTSerial serial1(HAL_USART_SERIAL1, acquireSerial1Buffer());
   b7874:	4770      	bx	lr
	...

000b7878 <_Z20acquireSerial1Bufferv>:
{
   b7878:	b538      	push	{r3, r4, r5, lr}
   b787a:	4604      	mov	r4, r0
    hal_usart_buffer_config_t config = {
   b787c:	2514      	movs	r5, #20
   b787e:	462a      	mov	r2, r5
   b7880:	2100      	movs	r1, #0
   b7882:	f000 f967 	bl	b7b54 <memset>
   b7886:	8025      	strh	r5, [r4, #0]
   b7888:	2540      	movs	r5, #64	; 0x40
        .rx_buffer = new (std::nothrow) uint8_t[bufferSize],
   b788a:	4907      	ldr	r1, [pc, #28]	; (b78a8 <_Z20acquireSerial1Bufferv+0x30>)
    hal_usart_buffer_config_t config = {
   b788c:	8125      	strh	r5, [r4, #8]
        .rx_buffer = new (std::nothrow) uint8_t[bufferSize],
   b788e:	4628      	mov	r0, r5
    hal_usart_buffer_config_t config = {
   b7890:	8225      	strh	r5, [r4, #16]
        .rx_buffer = new (std::nothrow) uint8_t[bufferSize],
   b7892:	f000 f82f 	bl	b78f4 <_ZnajRKSt9nothrow_t>
        .tx_buffer = new (std::nothrow) uint8_t[bufferSize],
   b7896:	4904      	ldr	r1, [pc, #16]	; (b78a8 <_Z20acquireSerial1Bufferv+0x30>)
    };
   b7898:	6060      	str	r0, [r4, #4]
        .tx_buffer = new (std::nothrow) uint8_t[bufferSize],
   b789a:	4628      	mov	r0, r5
   b789c:	f000 f82a 	bl	b78f4 <_ZnajRKSt9nothrow_t>
    };
   b78a0:	60e0      	str	r0, [r4, #12]
}
   b78a2:	4620      	mov	r0, r4
   b78a4:	bd38      	pop	{r3, r4, r5, pc}
   b78a6:	bf00      	nop
   b78a8:	000b8fe8 	.word	0x000b8fe8

000b78ac <_Z22__fetch_global_Serial1v>:
{
   b78ac:	b530      	push	{r4, r5, lr}
    static USARTSerial serial1(HAL_USART_SERIAL1, acquireSerial1Buffer());
   b78ae:	4d0e      	ldr	r5, [pc, #56]	; (b78e8 <_Z22__fetch_global_Serial1v+0x3c>)
   b78b0:	7829      	ldrb	r1, [r5, #0]
   b78b2:	f3bf 8f5b 	dmb	ish
   b78b6:	f011 0401 	ands.w	r4, r1, #1
{
   b78ba:	b087      	sub	sp, #28
    static USARTSerial serial1(HAL_USART_SERIAL1, acquireSerial1Buffer());
   b78bc:	d111      	bne.n	b78e2 <_Z22__fetch_global_Serial1v+0x36>
   b78be:	4628      	mov	r0, r5
   b78c0:	f7fc fbfa 	bl	b40b8 <__cxa_guard_acquire>
   b78c4:	b168      	cbz	r0, b78e2 <_Z22__fetch_global_Serial1v+0x36>
   b78c6:	a801      	add	r0, sp, #4
   b78c8:	f7ff ffd6 	bl	b7878 <_Z20acquireSerial1Bufferv>
   b78cc:	aa01      	add	r2, sp, #4
   b78ce:	4621      	mov	r1, r4
   b78d0:	4806      	ldr	r0, [pc, #24]	; (b78ec <_Z22__fetch_global_Serial1v+0x40>)
   b78d2:	f7ff fd69 	bl	b73a8 <_ZN11USARTSerialC1E21hal_usart_interface_tRK25hal_usart_buffer_config_t>
   b78d6:	4628      	mov	r0, r5
   b78d8:	f7fc fbf3 	bl	b40c2 <__cxa_guard_release>
   b78dc:	4804      	ldr	r0, [pc, #16]	; (b78f0 <_Z22__fetch_global_Serial1v+0x44>)
   b78de:	f000 f91d 	bl	b7b1c <atexit>
    return serial1;
}
   b78e2:	4802      	ldr	r0, [pc, #8]	; (b78ec <_Z22__fetch_global_Serial1v+0x40>)
   b78e4:	b007      	add	sp, #28
   b78e6:	bd30      	pop	{r4, r5, pc}
   b78e8:	2003e744 	.word	0x2003e744
   b78ec:	2003e748 	.word	0x2003e748
   b78f0:	000b7875 	.word	0x000b7875

000b78f4 <_ZnajRKSt9nothrow_t>:
   b78f4:	f7fc bbcf 	b.w	b4096 <_Znaj>

000b78f8 <_ZNSt19_Sp_make_shared_tag5_S_eqERKSt9type_info>:
   b78f8:	4901      	ldr	r1, [pc, #4]	; (b7900 <_ZNSt19_Sp_make_shared_tag5_S_eqERKSt9type_info+0x8>)
   b78fa:	f000 b8f9 	b.w	b7af0 <_ZNKSt9type_infoeqERKS_>
   b78fe:	bf00      	nop
   b7900:	000b9004 	.word	0x000b9004

000b7904 <_ZNK10__cxxabiv117__class_type_info11__do_upcastEPKS0_PPv>:
   b7904:	b57f      	push	{r0, r1, r2, r3, r4, r5, r6, lr}
   b7906:	2400      	movs	r4, #0
   b7908:	2310      	movs	r3, #16
   b790a:	e9cd 3402 	strd	r3, r4, [sp, #8]
   b790e:	6803      	ldr	r3, [r0, #0]
   b7910:	4615      	mov	r5, r2
   b7912:	699e      	ldr	r6, [r3, #24]
   b7914:	6812      	ldr	r2, [r2, #0]
   b7916:	466b      	mov	r3, sp
   b7918:	e9cd 4400 	strd	r4, r4, [sp]
   b791c:	47b0      	blx	r6
   b791e:	f89d 3004 	ldrb.w	r3, [sp, #4]
   b7922:	f003 0306 	and.w	r3, r3, #6
   b7926:	2b06      	cmp	r3, #6
   b7928:	bf03      	ittte	eq
   b792a:	9b00      	ldreq	r3, [sp, #0]
   b792c:	602b      	streq	r3, [r5, #0]
   b792e:	2001      	moveq	r0, #1
   b7930:	4620      	movne	r0, r4
   b7932:	b004      	add	sp, #16
   b7934:	bd70      	pop	{r4, r5, r6, pc}

000b7936 <_ZNK10__cxxabiv117__class_type_info20__do_find_public_srcEiPKvPKS0_S2_>:
   b7936:	9800      	ldr	r0, [sp, #0]
   b7938:	4290      	cmp	r0, r2
   b793a:	bf14      	ite	ne
   b793c:	2001      	movne	r0, #1
   b793e:	2006      	moveq	r0, #6
   b7940:	4770      	bx	lr
	...

000b7944 <_ZN10__cxxabiv117__class_type_infoD1Ev>:
   b7944:	b510      	push	{r4, lr}
   b7946:	4b03      	ldr	r3, [pc, #12]	; (b7954 <_ZN10__cxxabiv117__class_type_infoD1Ev+0x10>)
   b7948:	6003      	str	r3, [r0, #0]
   b794a:	4604      	mov	r4, r0
   b794c:	f000 f8cd 	bl	b7aea <_ZNSt9type_infoD1Ev>
   b7950:	4620      	mov	r0, r4
   b7952:	bd10      	pop	{r4, pc}
   b7954:	000b9044 	.word	0x000b9044

000b7958 <_ZN10__cxxabiv117__class_type_infoD0Ev>:
   b7958:	b510      	push	{r4, lr}
   b795a:	4604      	mov	r4, r0
   b795c:	f7ff fff2 	bl	b7944 <_ZN10__cxxabiv117__class_type_infoD1Ev>
   b7960:	4620      	mov	r0, r4
   b7962:	2108      	movs	r1, #8
   b7964:	f7fc fb99 	bl	b409a <_ZdlPvj>
   b7968:	4620      	mov	r0, r4
   b796a:	bd10      	pop	{r4, pc}

000b796c <_ZNK10__cxxabiv117__class_type_info12__do_dyncastEiNS0_10__sub_kindEPKS0_PKvS3_S5_RNS0_16__dyncast_resultE>:
   b796c:	e92d 41f0 	stmdb	sp!, {r4, r5, r6, r7, r8, lr}
   b7970:	461f      	mov	r7, r3
   b7972:	e9dd 3408 	ldrd	r3, r4, [sp, #32]
   b7976:	f8dd 8018 	ldr.w	r8, [sp, #24]
   b797a:	4598      	cmp	r8, r3
   b797c:	4606      	mov	r6, r0
   b797e:	4615      	mov	r5, r2
   b7980:	d107      	bne.n	b7992 <_ZNK10__cxxabiv117__class_type_info12__do_dyncastEiNS0_10__sub_kindEPKS0_PKvS3_S5_RNS0_16__dyncast_resultE+0x26>
   b7982:	9907      	ldr	r1, [sp, #28]
   b7984:	f000 f8b4 	bl	b7af0 <_ZNKSt9type_infoeqERKS_>
   b7988:	b118      	cbz	r0, b7992 <_ZNK10__cxxabiv117__class_type_info12__do_dyncastEiNS0_10__sub_kindEPKS0_PKvS3_S5_RNS0_16__dyncast_resultE+0x26>
   b798a:	7165      	strb	r5, [r4, #5]
   b798c:	2000      	movs	r0, #0
   b798e:	e8bd 81f0 	ldmia.w	sp!, {r4, r5, r6, r7, r8, pc}
   b7992:	4639      	mov	r1, r7
   b7994:	4630      	mov	r0, r6
   b7996:	f000 f8ab 	bl	b7af0 <_ZNKSt9type_infoeqERKS_>
   b799a:	2800      	cmp	r0, #0
   b799c:	d0f6      	beq.n	b798c <_ZNK10__cxxabiv117__class_type_info12__do_dyncastEiNS0_10__sub_kindEPKS0_PKvS3_S5_RNS0_16__dyncast_resultE+0x20>
   b799e:	2301      	movs	r3, #1
   b79a0:	f8c4 8000 	str.w	r8, [r4]
   b79a4:	7125      	strb	r5, [r4, #4]
   b79a6:	71a3      	strb	r3, [r4, #6]
   b79a8:	e7f0      	b.n	b798c <_ZNK10__cxxabiv117__class_type_info12__do_dyncastEiNS0_10__sub_kindEPKS0_PKvS3_S5_RNS0_16__dyncast_resultE+0x20>

000b79aa <_ZNK10__cxxabiv117__class_type_info11__do_upcastEPKS0_PKvRNS0_15__upcast_resultE>:
   b79aa:	b538      	push	{r3, r4, r5, lr}
   b79ac:	4615      	mov	r5, r2
   b79ae:	461c      	mov	r4, r3
   b79b0:	f000 f89e 	bl	b7af0 <_ZNKSt9type_infoeqERKS_>
   b79b4:	b120      	cbz	r0, b79c0 <_ZNK10__cxxabiv117__class_type_info11__do_upcastEPKS0_PKvRNS0_15__upcast_resultE+0x16>
   b79b6:	2308      	movs	r3, #8
   b79b8:	60e3      	str	r3, [r4, #12]
   b79ba:	2306      	movs	r3, #6
   b79bc:	6025      	str	r5, [r4, #0]
   b79be:	7123      	strb	r3, [r4, #4]
   b79c0:	bd38      	pop	{r3, r4, r5, pc}

000b79c2 <_ZNK10__cxxabiv117__class_type_info10__do_catchEPKSt9type_infoPPvj>:
   b79c2:	b573      	push	{r0, r1, r4, r5, r6, lr}
   b79c4:	4605      	mov	r5, r0
   b79c6:	460c      	mov	r4, r1
   b79c8:	9201      	str	r2, [sp, #4]
   b79ca:	461e      	mov	r6, r3
   b79cc:	f000 f890 	bl	b7af0 <_ZNKSt9type_infoeqERKS_>
   b79d0:	b950      	cbnz	r0, b79e8 <_ZNK10__cxxabiv117__class_type_info10__do_catchEPKSt9type_infoPPvj+0x26>
   b79d2:	2e03      	cmp	r6, #3
   b79d4:	d808      	bhi.n	b79e8 <_ZNK10__cxxabiv117__class_type_info10__do_catchEPKSt9type_infoPPvj+0x26>
   b79d6:	6823      	ldr	r3, [r4, #0]
   b79d8:	9a01      	ldr	r2, [sp, #4]
   b79da:	695b      	ldr	r3, [r3, #20]
   b79dc:	4629      	mov	r1, r5
   b79de:	4620      	mov	r0, r4
   b79e0:	b002      	add	sp, #8
   b79e2:	e8bd 4070 	ldmia.w	sp!, {r4, r5, r6, lr}
   b79e6:	4718      	bx	r3
   b79e8:	b002      	add	sp, #8
   b79ea:	bd70      	pop	{r4, r5, r6, pc}

000b79ec <_ZN10__cxxabiv120__si_class_type_infoD1Ev>:
   b79ec:	b510      	push	{r4, lr}
   b79ee:	4b03      	ldr	r3, [pc, #12]	; (b79fc <_ZN10__cxxabiv120__si_class_type_infoD1Ev+0x10>)
   b79f0:	6003      	str	r3, [r0, #0]
   b79f2:	4604      	mov	r4, r0
   b79f4:	f7ff ffa6 	bl	b7944 <_ZN10__cxxabiv117__class_type_infoD1Ev>
   b79f8:	4620      	mov	r0, r4
   b79fa:	bd10      	pop	{r4, pc}
   b79fc:	000b90a4 	.word	0x000b90a4

000b7a00 <_ZN10__cxxabiv120__si_class_type_infoD0Ev>:
   b7a00:	b510      	push	{r4, lr}
   b7a02:	4604      	mov	r4, r0
   b7a04:	f7ff fff2 	bl	b79ec <_ZN10__cxxabiv120__si_class_type_infoD1Ev>
   b7a08:	4620      	mov	r0, r4
   b7a0a:	210c      	movs	r1, #12
   b7a0c:	f7fc fb45 	bl	b409a <_ZdlPvj>
   b7a10:	4620      	mov	r0, r4
   b7a12:	bd10      	pop	{r4, pc}

000b7a14 <_ZNK10__cxxabiv120__si_class_type_info20__do_find_public_srcEiPKvPKNS_17__class_type_infoES2_>:
   b7a14:	b5f7      	push	{r0, r1, r2, r4, r5, r6, r7, lr}
   b7a16:	9f08      	ldr	r7, [sp, #32]
   b7a18:	4297      	cmp	r7, r2
   b7a1a:	4605      	mov	r5, r0
   b7a1c:	460e      	mov	r6, r1
   b7a1e:	4614      	mov	r4, r2
   b7a20:	d00a      	beq.n	b7a38 <_ZNK10__cxxabiv120__si_class_type_info20__do_find_public_srcEiPKvPKNS_17__class_type_infoES2_+0x24>
   b7a22:	68a8      	ldr	r0, [r5, #8]
   b7a24:	6802      	ldr	r2, [r0, #0]
   b7a26:	9708      	str	r7, [sp, #32]
   b7a28:	6a15      	ldr	r5, [r2, #32]
   b7a2a:	4631      	mov	r1, r6
   b7a2c:	4622      	mov	r2, r4
   b7a2e:	46ac      	mov	ip, r5
   b7a30:	b003      	add	sp, #12
   b7a32:	e8bd 40f0 	ldmia.w	sp!, {r4, r5, r6, r7, lr}
   b7a36:	4760      	bx	ip
   b7a38:	4619      	mov	r1, r3
   b7a3a:	9301      	str	r3, [sp, #4]
   b7a3c:	f000 f858 	bl	b7af0 <_ZNKSt9type_infoeqERKS_>
   b7a40:	9b01      	ldr	r3, [sp, #4]
   b7a42:	2800      	cmp	r0, #0
   b7a44:	d0ed      	beq.n	b7a22 <_ZNK10__cxxabiv120__si_class_type_info20__do_find_public_srcEiPKvPKNS_17__class_type_infoES2_+0xe>
   b7a46:	2006      	movs	r0, #6
   b7a48:	b003      	add	sp, #12
   b7a4a:	bdf0      	pop	{r4, r5, r6, r7, pc}

000b7a4c <_ZNK10__cxxabiv120__si_class_type_info12__do_dyncastEiNS_17__class_type_info10__sub_kindEPKS1_PKvS4_S6_RNS1_16__dyncast_resultE>:
   b7a4c:	e92d 4ff1 	stmdb	sp!, {r0, r4, r5, r6, r7, r8, r9, sl, fp, lr}
   b7a50:	460d      	mov	r5, r1
   b7a52:	4619      	mov	r1, r3
   b7a54:	e9dd 4b0a 	ldrd	r4, fp, [sp, #40]	; 0x28
   b7a58:	e9dd a60c 	ldrd	sl, r6, [sp, #48]	; 0x30
   b7a5c:	4681      	mov	r9, r0
   b7a5e:	4617      	mov	r7, r2
   b7a60:	4698      	mov	r8, r3
   b7a62:	f000 f845 	bl	b7af0 <_ZNKSt9type_infoeqERKS_>
   b7a66:	b190      	cbz	r0, b7a8e <_ZNK10__cxxabiv120__si_class_type_info12__do_dyncastEiNS_17__class_type_info10__sub_kindEPKS1_PKvS4_S6_RNS1_16__dyncast_resultE+0x42>
   b7a68:	2d00      	cmp	r5, #0
   b7a6a:	6034      	str	r4, [r6, #0]
   b7a6c:	7137      	strb	r7, [r6, #4]
   b7a6e:	db09      	blt.n	b7a84 <_ZNK10__cxxabiv120__si_class_type_info12__do_dyncastEiNS_17__class_type_info10__sub_kindEPKS1_PKvS4_S6_RNS1_16__dyncast_resultE+0x38>
   b7a70:	1961      	adds	r1, r4, r5
   b7a72:	458a      	cmp	sl, r1
   b7a74:	bf0c      	ite	eq
   b7a76:	2106      	moveq	r1, #6
   b7a78:	2101      	movne	r1, #1
   b7a7a:	71b1      	strb	r1, [r6, #6]
   b7a7c:	2000      	movs	r0, #0
   b7a7e:	b001      	add	sp, #4
   b7a80:	e8bd 8ff0 	ldmia.w	sp!, {r4, r5, r6, r7, r8, r9, sl, fp, pc}
   b7a84:	3502      	adds	r5, #2
   b7a86:	d1f9      	bne.n	b7a7c <_ZNK10__cxxabiv120__si_class_type_info12__do_dyncastEiNS_17__class_type_info10__sub_kindEPKS1_PKvS4_S6_RNS1_16__dyncast_resultE+0x30>
   b7a88:	2301      	movs	r3, #1
   b7a8a:	71b3      	strb	r3, [r6, #6]
   b7a8c:	e7f6      	b.n	b7a7c <_ZNK10__cxxabiv120__si_class_type_info12__do_dyncastEiNS_17__class_type_info10__sub_kindEPKS1_PKvS4_S6_RNS1_16__dyncast_resultE+0x30>
   b7a8e:	4554      	cmp	r4, sl
   b7a90:	d106      	bne.n	b7aa0 <_ZNK10__cxxabiv120__si_class_type_info12__do_dyncastEiNS_17__class_type_info10__sub_kindEPKS1_PKvS4_S6_RNS1_16__dyncast_resultE+0x54>
   b7a92:	4659      	mov	r1, fp
   b7a94:	4648      	mov	r0, r9
   b7a96:	f000 f82b 	bl	b7af0 <_ZNKSt9type_infoeqERKS_>
   b7a9a:	b108      	cbz	r0, b7aa0 <_ZNK10__cxxabiv120__si_class_type_info12__do_dyncastEiNS_17__class_type_info10__sub_kindEPKS1_PKvS4_S6_RNS1_16__dyncast_resultE+0x54>
   b7a9c:	7177      	strb	r7, [r6, #5]
   b7a9e:	e7ed      	b.n	b7a7c <_ZNK10__cxxabiv120__si_class_type_info12__do_dyncastEiNS_17__class_type_info10__sub_kindEPKS1_PKvS4_S6_RNS1_16__dyncast_resultE+0x30>
   b7aa0:	f8d9 0008 	ldr.w	r0, [r9, #8]
   b7aa4:	6803      	ldr	r3, [r0, #0]
   b7aa6:	e9cd a60c 	strd	sl, r6, [sp, #48]	; 0x30
   b7aaa:	e9cd 4b0a 	strd	r4, fp, [sp, #40]	; 0x28
   b7aae:	69dc      	ldr	r4, [r3, #28]
   b7ab0:	463a      	mov	r2, r7
   b7ab2:	4643      	mov	r3, r8
   b7ab4:	4629      	mov	r1, r5
   b7ab6:	46a4      	mov	ip, r4
   b7ab8:	b001      	add	sp, #4
   b7aba:	e8bd 4ff0 	ldmia.w	sp!, {r4, r5, r6, r7, r8, r9, sl, fp, lr}
   b7abe:	4760      	bx	ip

000b7ac0 <_ZNK10__cxxabiv120__si_class_type_info11__do_upcastEPKNS_17__class_type_infoEPKvRNS1_15__upcast_resultE>:
   b7ac0:	e92d 41f0 	stmdb	sp!, {r4, r5, r6, r7, r8, lr}
   b7ac4:	4607      	mov	r7, r0
   b7ac6:	460c      	mov	r4, r1
   b7ac8:	4615      	mov	r5, r2
   b7aca:	461e      	mov	r6, r3
   b7acc:	f7ff ff6d 	bl	b79aa <_ZNK10__cxxabiv117__class_type_info11__do_upcastEPKS0_PKvRNS0_15__upcast_resultE>
   b7ad0:	b948      	cbnz	r0, b7ae6 <_ZNK10__cxxabiv120__si_class_type_info11__do_upcastEPKNS_17__class_type_infoEPKvRNS1_15__upcast_resultE+0x26>
   b7ad2:	68b8      	ldr	r0, [r7, #8]
   b7ad4:	6803      	ldr	r3, [r0, #0]
   b7ad6:	699f      	ldr	r7, [r3, #24]
   b7ad8:	462a      	mov	r2, r5
   b7ada:	4633      	mov	r3, r6
   b7adc:	4621      	mov	r1, r4
   b7ade:	46bc      	mov	ip, r7
   b7ae0:	e8bd 41f0 	ldmia.w	sp!, {r4, r5, r6, r7, r8, lr}
   b7ae4:	4760      	bx	ip
   b7ae6:	e8bd 81f0 	ldmia.w	sp!, {r4, r5, r6, r7, r8, pc}

000b7aea <_ZNSt9type_infoD1Ev>:
   b7aea:	4770      	bx	lr

000b7aec <_ZNKSt9type_info14__is_pointer_pEv>:
   b7aec:	2000      	movs	r0, #0
   b7aee:	4770      	bx	lr

000b7af0 <_ZNKSt9type_infoeqERKS_>:
   b7af0:	4281      	cmp	r1, r0
   b7af2:	b508      	push	{r3, lr}
   b7af4:	d00e      	beq.n	b7b14 <_ZNKSt9type_infoeqERKS_+0x24>
   b7af6:	6840      	ldr	r0, [r0, #4]
   b7af8:	7803      	ldrb	r3, [r0, #0]
   b7afa:	2b2a      	cmp	r3, #42	; 0x2a
   b7afc:	d00c      	beq.n	b7b18 <_ZNKSt9type_infoeqERKS_+0x28>
   b7afe:	6849      	ldr	r1, [r1, #4]
   b7b00:	780b      	ldrb	r3, [r1, #0]
   b7b02:	2b2a      	cmp	r3, #42	; 0x2a
   b7b04:	bf08      	it	eq
   b7b06:	3101      	addeq	r1, #1
   b7b08:	f000 f85a 	bl	b7bc0 <strcmp>
   b7b0c:	fab0 f080 	clz	r0, r0
   b7b10:	0940      	lsrs	r0, r0, #5
   b7b12:	bd08      	pop	{r3, pc}
   b7b14:	2001      	movs	r0, #1
   b7b16:	e7fc      	b.n	b7b12 <_ZNKSt9type_infoeqERKS_+0x22>
   b7b18:	2000      	movs	r0, #0
   b7b1a:	e7fa      	b.n	b7b12 <_ZNKSt9type_infoeqERKS_+0x22>

000b7b1c <atexit>:
   b7b1c:	2300      	movs	r3, #0
   b7b1e:	4601      	mov	r1, r0
   b7b20:	461a      	mov	r2, r3
   b7b22:	4618      	mov	r0, r3
   b7b24:	f000 b8fe 	b.w	b7d24 <__register_exitproc>

000b7b28 <atoi>:
   b7b28:	220a      	movs	r2, #10
   b7b2a:	2100      	movs	r1, #0
   b7b2c:	f000 b8f0 	b.w	b7d10 <strtol>

000b7b30 <atol>:
   b7b30:	220a      	movs	r2, #10
   b7b32:	2100      	movs	r1, #0
   b7b34:	f000 b8ec 	b.w	b7d10 <strtol>

000b7b38 <memcpy>:
   b7b38:	440a      	add	r2, r1
   b7b3a:	4291      	cmp	r1, r2
   b7b3c:	f100 33ff 	add.w	r3, r0, #4294967295	; 0xffffffff
   b7b40:	d100      	bne.n	b7b44 <memcpy+0xc>
   b7b42:	4770      	bx	lr
   b7b44:	b510      	push	{r4, lr}
   b7b46:	f811 4b01 	ldrb.w	r4, [r1], #1
   b7b4a:	f803 4f01 	strb.w	r4, [r3, #1]!
   b7b4e:	4291      	cmp	r1, r2
   b7b50:	d1f9      	bne.n	b7b46 <memcpy+0xe>
   b7b52:	bd10      	pop	{r4, pc}

000b7b54 <memset>:
   b7b54:	4402      	add	r2, r0
   b7b56:	4603      	mov	r3, r0
   b7b58:	4293      	cmp	r3, r2
   b7b5a:	d100      	bne.n	b7b5e <memset+0xa>
   b7b5c:	4770      	bx	lr
   b7b5e:	f803 1b01 	strb.w	r1, [r3], #1
   b7b62:	e7f9      	b.n	b7b58 <memset+0x4>

000b7b64 <srand>:
   b7b64:	b538      	push	{r3, r4, r5, lr}
   b7b66:	4b10      	ldr	r3, [pc, #64]	; (b7ba8 <srand+0x44>)
   b7b68:	681d      	ldr	r5, [r3, #0]
   b7b6a:	6bab      	ldr	r3, [r5, #56]	; 0x38
   b7b6c:	4604      	mov	r4, r0
   b7b6e:	b9b3      	cbnz	r3, b7b9e <srand+0x3a>
   b7b70:	2018      	movs	r0, #24
   b7b72:	f7fe fd0b 	bl	b658c <malloc>
   b7b76:	4602      	mov	r2, r0
   b7b78:	63a8      	str	r0, [r5, #56]	; 0x38
   b7b7a:	b920      	cbnz	r0, b7b86 <srand+0x22>
   b7b7c:	4b0b      	ldr	r3, [pc, #44]	; (b7bac <srand+0x48>)
   b7b7e:	480c      	ldr	r0, [pc, #48]	; (b7bb0 <srand+0x4c>)
   b7b80:	2142      	movs	r1, #66	; 0x42
   b7b82:	f7fe fd2b 	bl	b65dc <__assert_func>
   b7b86:	490b      	ldr	r1, [pc, #44]	; (b7bb4 <srand+0x50>)
   b7b88:	4b0b      	ldr	r3, [pc, #44]	; (b7bb8 <srand+0x54>)
   b7b8a:	e9c0 1300 	strd	r1, r3, [r0]
   b7b8e:	4b0b      	ldr	r3, [pc, #44]	; (b7bbc <srand+0x58>)
   b7b90:	6083      	str	r3, [r0, #8]
   b7b92:	230b      	movs	r3, #11
   b7b94:	8183      	strh	r3, [r0, #12]
   b7b96:	2100      	movs	r1, #0
   b7b98:	2001      	movs	r0, #1
   b7b9a:	e9c2 0104 	strd	r0, r1, [r2, #16]
   b7b9e:	6bab      	ldr	r3, [r5, #56]	; 0x38
   b7ba0:	2200      	movs	r2, #0
   b7ba2:	611c      	str	r4, [r3, #16]
   b7ba4:	615a      	str	r2, [r3, #20]
   b7ba6:	bd38      	pop	{r3, r4, r5, pc}
   b7ba8:	2003e580 	.word	0x2003e580
   b7bac:	000b90dd 	.word	0x000b90dd
   b7bb0:	000b90f4 	.word	0x000b90f4
   b7bb4:	abcd330e 	.word	0xabcd330e
   b7bb8:	e66d1234 	.word	0xe66d1234
   b7bbc:	0005deec 	.word	0x0005deec

000b7bc0 <strcmp>:
   b7bc0:	f810 2b01 	ldrb.w	r2, [r0], #1
   b7bc4:	f811 3b01 	ldrb.w	r3, [r1], #1
   b7bc8:	2a01      	cmp	r2, #1
   b7bca:	bf28      	it	cs
   b7bcc:	429a      	cmpcs	r2, r3
   b7bce:	d0f7      	beq.n	b7bc0 <strcmp>
   b7bd0:	1ad0      	subs	r0, r2, r3
   b7bd2:	4770      	bx	lr

000b7bd4 <strlen>:
   b7bd4:	4603      	mov	r3, r0
   b7bd6:	f813 2b01 	ldrb.w	r2, [r3], #1
   b7bda:	2a00      	cmp	r2, #0
   b7bdc:	d1fb      	bne.n	b7bd6 <strlen+0x2>
   b7bde:	1a18      	subs	r0, r3, r0
   b7be0:	3801      	subs	r0, #1
   b7be2:	4770      	bx	lr

000b7be4 <strncpy>:
   b7be4:	b510      	push	{r4, lr}
   b7be6:	3901      	subs	r1, #1
   b7be8:	4603      	mov	r3, r0
   b7bea:	b132      	cbz	r2, b7bfa <strncpy+0x16>
   b7bec:	f811 4f01 	ldrb.w	r4, [r1, #1]!
   b7bf0:	f803 4b01 	strb.w	r4, [r3], #1
   b7bf4:	3a01      	subs	r2, #1
   b7bf6:	2c00      	cmp	r4, #0
   b7bf8:	d1f7      	bne.n	b7bea <strncpy+0x6>
   b7bfa:	441a      	add	r2, r3
   b7bfc:	2100      	movs	r1, #0
   b7bfe:	4293      	cmp	r3, r2
   b7c00:	d100      	bne.n	b7c04 <strncpy+0x20>
   b7c02:	bd10      	pop	{r4, pc}
   b7c04:	f803 1b01 	strb.w	r1, [r3], #1
   b7c08:	e7f9      	b.n	b7bfe <strncpy+0x1a>
	...

000b7c0c <_strtol_l.constprop.0>:
   b7c0c:	2b01      	cmp	r3, #1
   b7c0e:	e92d 47f0 	stmdb	sp!, {r4, r5, r6, r7, r8, r9, sl, lr}
   b7c12:	d001      	beq.n	b7c18 <_strtol_l.constprop.0+0xc>
   b7c14:	2b24      	cmp	r3, #36	; 0x24
   b7c16:	d906      	bls.n	b7c26 <_strtol_l.constprop.0+0x1a>
   b7c18:	f7fe fcd8 	bl	b65cc <__errno>
   b7c1c:	2316      	movs	r3, #22
   b7c1e:	6003      	str	r3, [r0, #0]
   b7c20:	2000      	movs	r0, #0
   b7c22:	e8bd 87f0 	ldmia.w	sp!, {r4, r5, r6, r7, r8, r9, sl, pc}
   b7c26:	f8df c0e4 	ldr.w	ip, [pc, #228]	; b7d0c <_strtol_l.constprop.0+0x100>
   b7c2a:	460d      	mov	r5, r1
   b7c2c:	462e      	mov	r6, r5
   b7c2e:	f815 4b01 	ldrb.w	r4, [r5], #1
   b7c32:	f814 700c 	ldrb.w	r7, [r4, ip]
   b7c36:	f017 0708 	ands.w	r7, r7, #8
   b7c3a:	d1f7      	bne.n	b7c2c <_strtol_l.constprop.0+0x20>
   b7c3c:	2c2d      	cmp	r4, #45	; 0x2d
   b7c3e:	d132      	bne.n	b7ca6 <_strtol_l.constprop.0+0x9a>
   b7c40:	782c      	ldrb	r4, [r5, #0]
   b7c42:	2701      	movs	r7, #1
   b7c44:	1cb5      	adds	r5, r6, #2
   b7c46:	2b00      	cmp	r3, #0
   b7c48:	d05b      	beq.n	b7d02 <_strtol_l.constprop.0+0xf6>
   b7c4a:	2b10      	cmp	r3, #16
   b7c4c:	d109      	bne.n	b7c62 <_strtol_l.constprop.0+0x56>
   b7c4e:	2c30      	cmp	r4, #48	; 0x30
   b7c50:	d107      	bne.n	b7c62 <_strtol_l.constprop.0+0x56>
   b7c52:	782c      	ldrb	r4, [r5, #0]
   b7c54:	f004 04df 	and.w	r4, r4, #223	; 0xdf
   b7c58:	2c58      	cmp	r4, #88	; 0x58
   b7c5a:	d14d      	bne.n	b7cf8 <_strtol_l.constprop.0+0xec>
   b7c5c:	786c      	ldrb	r4, [r5, #1]
   b7c5e:	2310      	movs	r3, #16
   b7c60:	3502      	adds	r5, #2
   b7c62:	f107 4800 	add.w	r8, r7, #2147483648	; 0x80000000
   b7c66:	f108 38ff 	add.w	r8, r8, #4294967295	; 0xffffffff
   b7c6a:	f04f 0c00 	mov.w	ip, #0
   b7c6e:	fbb8 f9f3 	udiv	r9, r8, r3
   b7c72:	4666      	mov	r6, ip
   b7c74:	fb03 8a19 	mls	sl, r3, r9, r8
   b7c78:	f1a4 0e30 	sub.w	lr, r4, #48	; 0x30
   b7c7c:	f1be 0f09 	cmp.w	lr, #9
   b7c80:	d816      	bhi.n	b7cb0 <_strtol_l.constprop.0+0xa4>
   b7c82:	4674      	mov	r4, lr
   b7c84:	42a3      	cmp	r3, r4
   b7c86:	dd24      	ble.n	b7cd2 <_strtol_l.constprop.0+0xc6>
   b7c88:	f1bc 0f00 	cmp.w	ip, #0
   b7c8c:	db1e      	blt.n	b7ccc <_strtol_l.constprop.0+0xc0>
   b7c8e:	45b1      	cmp	r9, r6
   b7c90:	d31c      	bcc.n	b7ccc <_strtol_l.constprop.0+0xc0>
   b7c92:	d101      	bne.n	b7c98 <_strtol_l.constprop.0+0x8c>
   b7c94:	45a2      	cmp	sl, r4
   b7c96:	db19      	blt.n	b7ccc <_strtol_l.constprop.0+0xc0>
   b7c98:	fb06 4603 	mla	r6, r6, r3, r4
   b7c9c:	f04f 0c01 	mov.w	ip, #1
   b7ca0:	f815 4b01 	ldrb.w	r4, [r5], #1
   b7ca4:	e7e8      	b.n	b7c78 <_strtol_l.constprop.0+0x6c>
   b7ca6:	2c2b      	cmp	r4, #43	; 0x2b
   b7ca8:	bf04      	itt	eq
   b7caa:	782c      	ldrbeq	r4, [r5, #0]
   b7cac:	1cb5      	addeq	r5, r6, #2
   b7cae:	e7ca      	b.n	b7c46 <_strtol_l.constprop.0+0x3a>
   b7cb0:	f1a4 0e41 	sub.w	lr, r4, #65	; 0x41
   b7cb4:	f1be 0f19 	cmp.w	lr, #25
   b7cb8:	d801      	bhi.n	b7cbe <_strtol_l.constprop.0+0xb2>
   b7cba:	3c37      	subs	r4, #55	; 0x37
   b7cbc:	e7e2      	b.n	b7c84 <_strtol_l.constprop.0+0x78>
   b7cbe:	f1a4 0e61 	sub.w	lr, r4, #97	; 0x61
   b7cc2:	f1be 0f19 	cmp.w	lr, #25
   b7cc6:	d804      	bhi.n	b7cd2 <_strtol_l.constprop.0+0xc6>
   b7cc8:	3c57      	subs	r4, #87	; 0x57
   b7cca:	e7db      	b.n	b7c84 <_strtol_l.constprop.0+0x78>
   b7ccc:	f04f 3cff 	mov.w	ip, #4294967295	; 0xffffffff
   b7cd0:	e7e6      	b.n	b7ca0 <_strtol_l.constprop.0+0x94>
   b7cd2:	f1bc 0f00 	cmp.w	ip, #0
   b7cd6:	da05      	bge.n	b7ce4 <_strtol_l.constprop.0+0xd8>
   b7cd8:	2322      	movs	r3, #34	; 0x22
   b7cda:	6003      	str	r3, [r0, #0]
   b7cdc:	4646      	mov	r6, r8
   b7cde:	b942      	cbnz	r2, b7cf2 <_strtol_l.constprop.0+0xe6>
   b7ce0:	4630      	mov	r0, r6
   b7ce2:	e79e      	b.n	b7c22 <_strtol_l.constprop.0+0x16>
   b7ce4:	b107      	cbz	r7, b7ce8 <_strtol_l.constprop.0+0xdc>
   b7ce6:	4276      	negs	r6, r6
   b7ce8:	2a00      	cmp	r2, #0
   b7cea:	d0f9      	beq.n	b7ce0 <_strtol_l.constprop.0+0xd4>
   b7cec:	f1bc 0f00 	cmp.w	ip, #0
   b7cf0:	d000      	beq.n	b7cf4 <_strtol_l.constprop.0+0xe8>
   b7cf2:	1e69      	subs	r1, r5, #1
   b7cf4:	6011      	str	r1, [r2, #0]
   b7cf6:	e7f3      	b.n	b7ce0 <_strtol_l.constprop.0+0xd4>
   b7cf8:	2430      	movs	r4, #48	; 0x30
   b7cfa:	2b00      	cmp	r3, #0
   b7cfc:	d1b1      	bne.n	b7c62 <_strtol_l.constprop.0+0x56>
   b7cfe:	2308      	movs	r3, #8
   b7d00:	e7af      	b.n	b7c62 <_strtol_l.constprop.0+0x56>
   b7d02:	2c30      	cmp	r4, #48	; 0x30
   b7d04:	d0a5      	beq.n	b7c52 <_strtol_l.constprop.0+0x46>
   b7d06:	230a      	movs	r3, #10
   b7d08:	e7ab      	b.n	b7c62 <_strtol_l.constprop.0+0x56>
   b7d0a:	bf00      	nop
   b7d0c:	000b914e 	.word	0x000b914e

000b7d10 <strtol>:
   b7d10:	4613      	mov	r3, r2
   b7d12:	460a      	mov	r2, r1
   b7d14:	4601      	mov	r1, r0
   b7d16:	4802      	ldr	r0, [pc, #8]	; (b7d20 <strtol+0x10>)
   b7d18:	6800      	ldr	r0, [r0, #0]
   b7d1a:	f7ff bf77 	b.w	b7c0c <_strtol_l.constprop.0>
   b7d1e:	bf00      	nop
   b7d20:	2003e580 	.word	0x2003e580

000b7d24 <__register_exitproc>:
   b7d24:	e92d 43f8 	stmdb	sp!, {r3, r4, r5, r6, r7, r8, r9, lr}
   b7d28:	f8df 80b8 	ldr.w	r8, [pc, #184]	; b7de4 <__register_exitproc+0xc0>
   b7d2c:	4606      	mov	r6, r0
   b7d2e:	f8d8 0000 	ldr.w	r0, [r8]
   b7d32:	461f      	mov	r7, r3
   b7d34:	460d      	mov	r5, r1
   b7d36:	4691      	mov	r9, r2
   b7d38:	f000 f856 	bl	b7de8 <__retarget_lock_acquire_recursive>
   b7d3c:	4b25      	ldr	r3, [pc, #148]	; (b7dd4 <__register_exitproc+0xb0>)
   b7d3e:	681c      	ldr	r4, [r3, #0]
   b7d40:	b934      	cbnz	r4, b7d50 <__register_exitproc+0x2c>
   b7d42:	4c25      	ldr	r4, [pc, #148]	; (b7dd8 <__register_exitproc+0xb4>)
   b7d44:	601c      	str	r4, [r3, #0]
   b7d46:	4b25      	ldr	r3, [pc, #148]	; (b7ddc <__register_exitproc+0xb8>)
   b7d48:	b113      	cbz	r3, b7d50 <__register_exitproc+0x2c>
   b7d4a:	681b      	ldr	r3, [r3, #0]
   b7d4c:	f8c4 3088 	str.w	r3, [r4, #136]	; 0x88
   b7d50:	6863      	ldr	r3, [r4, #4]
   b7d52:	2b1f      	cmp	r3, #31
   b7d54:	dd07      	ble.n	b7d66 <__register_exitproc+0x42>
   b7d56:	f8d8 0000 	ldr.w	r0, [r8]
   b7d5a:	f000 f847 	bl	b7dec <__retarget_lock_release_recursive>
   b7d5e:	f04f 30ff 	mov.w	r0, #4294967295	; 0xffffffff
   b7d62:	e8bd 83f8 	ldmia.w	sp!, {r3, r4, r5, r6, r7, r8, r9, pc}
   b7d66:	b34e      	cbz	r6, b7dbc <__register_exitproc+0x98>
   b7d68:	f8d4 0088 	ldr.w	r0, [r4, #136]	; 0x88
   b7d6c:	b988      	cbnz	r0, b7d92 <__register_exitproc+0x6e>
   b7d6e:	4b1c      	ldr	r3, [pc, #112]	; (b7de0 <__register_exitproc+0xbc>)
   b7d70:	b923      	cbnz	r3, b7d7c <__register_exitproc+0x58>
   b7d72:	f8d8 0000 	ldr.w	r0, [r8]
   b7d76:	f000 f838 	bl	b7dea <__retarget_lock_release>
   b7d7a:	e7f0      	b.n	b7d5e <__register_exitproc+0x3a>
   b7d7c:	f44f 7084 	mov.w	r0, #264	; 0x108
   b7d80:	f7fe fc04 	bl	b658c <malloc>
   b7d84:	2800      	cmp	r0, #0
   b7d86:	d0f4      	beq.n	b7d72 <__register_exitproc+0x4e>
   b7d88:	2300      	movs	r3, #0
   b7d8a:	e9c0 3340 	strd	r3, r3, [r0, #256]	; 0x100
   b7d8e:	f8c4 0088 	str.w	r0, [r4, #136]	; 0x88
   b7d92:	6863      	ldr	r3, [r4, #4]
   b7d94:	f840 9023 	str.w	r9, [r0, r3, lsl #2]
   b7d98:	2201      	movs	r2, #1
   b7d9a:	409a      	lsls	r2, r3
   b7d9c:	eb00 0183 	add.w	r1, r0, r3, lsl #2
   b7da0:	f8d0 3100 	ldr.w	r3, [r0, #256]	; 0x100
   b7da4:	4313      	orrs	r3, r2
   b7da6:	f8c0 3100 	str.w	r3, [r0, #256]	; 0x100
   b7daa:	2e02      	cmp	r6, #2
   b7dac:	f8c1 7080 	str.w	r7, [r1, #128]	; 0x80
   b7db0:	bf02      	ittt	eq
   b7db2:	f8d0 3104 	ldreq.w	r3, [r0, #260]	; 0x104
   b7db6:	4313      	orreq	r3, r2
   b7db8:	f8c0 3104 	streq.w	r3, [r0, #260]	; 0x104
   b7dbc:	6863      	ldr	r3, [r4, #4]
   b7dbe:	f8d8 0000 	ldr.w	r0, [r8]
   b7dc2:	1c5a      	adds	r2, r3, #1
   b7dc4:	3302      	adds	r3, #2
   b7dc6:	6062      	str	r2, [r4, #4]
   b7dc8:	f844 5023 	str.w	r5, [r4, r3, lsl #2]
   b7dcc:	f000 f80e 	bl	b7dec <__retarget_lock_release_recursive>
   b7dd0:	2000      	movs	r0, #0
   b7dd2:	e7c6      	b.n	b7d62 <__register_exitproc+0x3e>
   b7dd4:	2003e7e8 	.word	0x2003e7e8
   b7dd8:	2003e75c 	.word	0x2003e75c
   b7ddc:	00000000 	.word	0x00000000
   b7de0:	000b658d 	.word	0x000b658d
   b7de4:	2003e5e4 	.word	0x2003e5e4

000b7de8 <__retarget_lock_acquire_recursive>:
   b7de8:	4770      	bx	lr

000b7dea <__retarget_lock_release>:
   b7dea:	4770      	bx	lr

000b7dec <__retarget_lock_release_recursive>:
   b7dec:	4770      	bx	lr

000b7dee <link_code_end>:
	...

000b7df0 <dynalib_user>:
   b7df0:	401d 000b 4059 000b 4081 000b 4085 000b     .@..Y@...@...@..
   b7e00:	0000 0000 6143 6c6c 6f20 206e 7570 6572     ....Call on pure
   b7e10:	7620 7269 7574 6c61 2500 0069 6c25 0069      virtual.%i.%li.
   b7e20:	6e69 6f00 7475 7000 6d77 6400 0077 7761     in.out.pwm.dw.aw
   b7e30:	7600 0077 7525 6700 7665 5539 576c 7548     .vw.%u.gev9UlWHu
   b7e40:	5370 7938 4243 324a 7077 5844 4e44 366d     pS8yCBJ2wpDXDNm6
   b7e50:	4854 754d 6f30 0053                         THMu0oS.

000b7e58 <_ZZN8BlynkApiI13BlynkProtocolI22BlynkTransportParticleEE8sendInfoEvE7profile>:
   b7e58:	6c62 6b6e 6e69 0066 6576 0072 2e31 2e31     blnkinf.ver.1.1.
   b7e68:	0030 2d68 6562 7461 3400 0035 7562 6666     0.h-beat.45.buff
   b7e78:	692d 006e 3031 3432 6400 7665 5000 7261     -in.1024.dev.Par
   b7e88:	6974 6c63 2065 7241 6f67 006e 7562 6c69     ticle Argon.buil
   b7e98:	0064 754a 206e 3033 3220 3230 2032 3831     d.Jun 30 2022 18
   b7ea8:	333a 3a33 3030 0000                          :33:00...

000b7eb1 <_ZL4font>:
   b7eb1:	0000 0000 3e00 4f5b 3e5b 6b3e 6b4f 1c3e     .....>[O[>>kOk>.
   b7ec1:	7c3e 1c3e 3c18 3c7e 1c18 7d57 1c57 5e1c     >|>..<~<..W}W..^
   b7ed1:	5e7f 001c 3c18 0018 e7ff e7c3 00ff 2418     .^...<.........$
   b7ee1:	0018 e7ff e7db 30ff 3a48 0e06 2926 2979     .......0H:..&)y)
   b7ef1:	4026 057f 0705 7f40 2505 5a3f e73c 5a3c     &@....@..%?Z<.<Z
   b7f01:	3e7f 1c1c 0808 1c1c 7f3e 2214 227f 5f14     .>......>.."."._
   b7f11:	005f 5f5f 0906 017f 007f 8966 6a95 6060     _.__......f..j``
   b7f21:	6060 9460 ffa2 94a2 0408 047e 1008 7e20     ```.......~... ~
   b7f31:	1020 0808 1c2a 0808 2a1c 0808 101e 1010      ...*....*......
   b7f41:	0c10 0c1e 0c1e 3830 383e 0630 3e0e 060e     ......08>80..>..
   b7f51:	0000 0000 0000 5f00 0000 0700 0700 1400     ......._........
   b7f61:	147f 147f 2a24 2a7f 2312 0813 6264 4936     ....$*.*.#..db6I
   b7f71:	2056 0050 0708 0003 1c00 4122 0000 2241     V P......."A..A"
   b7f81:	001c 1c2a 1c7f 082a 3e08 0808 8000 3070     ..*...*..>....p0
   b7f91:	0800 0808 0808 0000 6060 2000 0810 0204     ........``. ....
   b7fa1:	513e 4549 003e 7f42 0040 4972 4949 2146     >QIE>.B.@.rIIIF!
   b7fb1:	4941 334d 1418 7f12 2710 4545 3945 4a3c     AIM3.....'EEE9<J
   b7fc1:	4949 4131 1121 0709 4936 4949 4636 4949     II1A!...6III6FII
   b7fd1:	1e29 0000 0014 0000 3440 0000 0800 2214     ).......@4....."
   b7fe1:	1441 1414 1414 4100 1422 0208 5901 0609     A......A"....Y..
   b7ff1:	413e 595d 7c4e 1112 7c12 497f 4949 3e36     >A]YN|...|.III6>
   b8001:	4141 2241 417f 4141 7f3e 4949 4149 097f     AAA".AAA>.IIIA..
   b8011:	0909 3e01 4141 7351 087f 0808 007f 7f41     ...>AAQs......A.
   b8021:	0041 4020 3f41 7f01 1408 4122 407f 4040     A. @A?...."A.@@@
   b8031:	7f40 1c02 7f02 047f 1008 3e7f 4141 3e41     @..........>AAA>
   b8041:	097f 0909 3e06 5141 5e21 097f 2919 2646     .....>AQ!^...)F&
   b8051:	4949 3249 0103 017f 3f03 4040 3f40 201f     III2.....?@@@?. 
   b8061:	2040 3f1f 3840 3f40 1463 1408 0363 7804     @ .?@8@?c...c..x
   b8071:	0304 5961 4d49 0043 417f 4141 0402 1008     ..aYIMC..AAA....
   b8081:	0020 4141 7f41 0204 0201 4004 4040 4040      .AAA......@@@@@
   b8091:	0300 0807 2000 5454 4078 287f 4444 3838     ..... TTx@.(DD88
   b80a1:	4444 2844 4438 2844 387f 5454 1854 0800     DDD(8DD(.8TTT...
   b80b1:	097e 1802 a4a4 789c 087f 0404 0078 7d44     ~......x....x.D}
   b80c1:	0040 4020 3d40 7f00 2810 0044 4100 407f     @. @@=...(D..A.@
   b80d1:	7c00 7804 7804 087c 0404 3878 4444 3844     .|.x.x|...x8DDD8
   b80e1:	18fc 2424 1818 2424 fc18 087c 0404 4808     ..$$..$$..|....H
   b80f1:	5454 2454 0404 443f 3c24 4040 7c20 201c     TTT$..?D$<@@ |. 
   b8101:	2040 3c1c 3040 3c40 2844 2810 4c44 9090     @ .<@0@<D(.(DL..
   b8111:	7c90 6444 4c54 0044 3608 0041 0000 0077     .|DdTLD..6A...w.
   b8121:	0000 3641 0008 0102 0402 3c02 2326 3c26     ..A6.......<&#&<
   b8131:	a11e 61a1 3a12 4040 7a20 5438 5554 2159     ...a.:@@ z8TTUY!
   b8141:	5555 4179 5422 7854 2142 5455 4078 5420     UUyA"TTxB!UTx@ T
   b8151:	7955 0c40 521e 1272 5539 5555 3959 5454     Uy@..Rr.9UUUY9TT
   b8161:	5954 5539 5454 0058 4500 417c 0200 7d45     TY9UTTX..E|A..E}
   b8171:	0042 4501 407c 127d 1211 f07d 2528 f028     B..E|@}...}.(%(.
   b8181:	547c 4555 2000 5454 547c 0a7c 7f09 3249     |TUE. TT|T|...I2
   b8191:	4949 3249 443a 4444 323a 484a 3048 413a     III2:DDD:2JHH0:A
   b81a1:	2141 3a7a 4042 7820 9d00 a0a0 3d7d 4242     A!z:B@ x....}=BB
   b81b1:	3d42 403d 4040 3c3d ff24 2424 7e48 4349     B==@@@=<$.$$H~IC
   b81c1:	2b66 fc2f 2b2f 09ff f629 c020 7e88 0309     f+/./+..). ..~..
   b81d1:	5420 7954 0041 4400 417d 4830 4a48 3832      TTyA..D}A0HHJ28
   b81e1:	4040 7a22 7a00 0a0a 7d72 190d 7d31 2926     @@"z.z..r}..1}&)
   b81f1:	2f29 2628 2929 2629 4830 404d 3820 0808     )/(&)))&0HM@ 8..
   b8201:	0808 0808 0808 2f38 c810 baac 102f 3428     ......8/..../.(4
   b8211:	00fa 7b00 0000 1408 142a 2222 2a14 0814     ...{....*."".*..
   b8221:	0055 0055 aa55 aa55 aa55 55ff 55ff 00ff     U.U.U.U.U..U.U..
   b8231:	0000 00ff 1010 ff10 1400 1414 00ff 1010     ................
   b8241:	00ff 10ff f010 f010 1414 fc14 1400 f714     ................
   b8251:	ff00 0000 00ff 14ff f414 fc04 1414 1017     ................
   b8261:	101f 1f10 1f10 1414 1f14 1000 1010 00f0     ................
   b8271:	0000 1f00 1010 1010 101f 1010 f010 0010     ................
   b8281:	0000 10ff 1010 1010 1010 1010 10ff 0000     ................
   b8291:	ff00 0014 ff00 ff00 0000 101f 0017 fc00     ................
   b82a1:	f404 1414 1017 1417 f414 f404 0000 00ff     ................
   b82b1:	14f7 1414 1414 1414 00f7 14f7 1414 1417     ................
   b82c1:	1010 101f 141f 1414 14f4 1010 10f0 00f0     ................
   b82d1:	1f00 1f10 0000 1f00 0014 0000 14fc 0000     ................
   b82e1:	10f0 10f0 ff10 ff10 1414 ff14 1014 1010     ................
   b82f1:	001f 0000 f000 ff10 ffff ffff f0f0 f0f0     ................
   b8301:	fff0 ffff 0000 0000 ff00 0fff 0f0f 0f0f     ................
   b8311:	4438 3844 fc44 4a4a 344a 027e 0602 0206     8DD8D.JJJ4~.....
   b8321:	027e 027e 5563 4149 3863 4444 043c 7e40     ~.~.cUIAc8DD<.@~
   b8331:	1e20 0620 7e02 0202 a599 a5e7 1c99 492a      . ..~........*I
   b8341:	1c2a 724c 7201 304c 4d4a 304d 4830 4878     *.Lr.rL0JMM00HxH
   b8351:	bc30 5a62 3d46 493e 4949 7e00 0101 7e01     0.bZF=>III.~...~
   b8361:	2a2a 2a2a 442a 5f44 4444 5140 444a 4040     *****DD_DD@QJD@@
   b8371:	4a44 4051 0000 01ff e003 ff80 0000 0808     DJQ@............
   b8381:	6b6b 3608 3612 3624 0f06 0f09 0006 1800     kk.6.6$6........
   b8391:	0018 0000 1010 3000 ff40 0101 1f00 0101     .......0@.......
   b83a1:	001e 1d19 1217 3c00 3c3c 003c 0000 0000     .......<<<<.....
   b83b1:	0000                                         ...

000b83b4 <_ZTV12Adafruit_GFX>:
	...
   b83c4:	53a9 000b 6a3d 000b 40a1 000b 4daf 000b     .S..=j...@...M..
   b83d4:	4db1 000b 4de3 000b 4dbf 000b 4dd1 000b     .M...M...M...M..
   b83e4:	4cf1 000b 4daf 000b 4fdb 000b 4fd9 000b     .L...M...O...O..
   b83f4:	4dfb 000b 4e39 000b 4e73 000b 4eb9 000b     .M..9N..sN...N..
   b8404:	4ed5 000b 4f59 000b 6564 6166 6c75 2074     .N..YO..default 
   b8414:	4d00 4253 4c00 4253 3c00 5053 5349 7465     .MSB.LSB.<SPISet
   b8424:	6974 676e 2073 6564 6166 6c75 3e74 3c00     tings default>.<
   b8434:	5053 5349 7465 6974 676e 2073 7325 7525     SPISettings %s%u
   b8444:	2520 2073 4f4d 4544 7525 003e                %s MODE%u>.

000b8450 <_ZTVN8particle11SPISettingsE>:
	...
   b8458:	54e5 000b 54b7 000b 54b9 000b               .T...T...T..

000b8464 <_ZL12splash1_data>:
   b8464:	0000 0000 0100 0080 0000 0000 0000 0000     ................
   b8474:	8003 0000 0000 0000 0000 0700 00c0 0000     ................
   b8484:	0000 0000 0000 c007 0000 0000 0000 0000     ................
   b8494:	0f00 00c0 0000 0000 0000 0000 e01f 0000     ................
   b84a4:	0000 0000 0000 1f00 00e0 0000 0000 0000     ................
   b84b4:	0000 e03f 0000 0000 0000 0000 3f00 00f0     ..?..........?..
	...
   b84cc:	f07f 0000 0000 0000 1f00 7ff8 00f0 0000     ................
   b84dc:	0000 0000 fe3f f07f 0000 0000 0000 3f00     ....?..........?
   b84ec:	7fff 00f0 0000 0000 0000 ff1f e0fb 0000     ................
   b84fc:	0000 0000 0f00 f9ff c0ff 0000 0000 0000     ................
   b850c:	ff0f fff9 00f8 0000 0000 0700 f1ff ffff     ................
   b851c:	0000 0000 0000 fc03 ff73 80ff 0000 0000     ........s.......
   b852c:	0100 3ffe ffff 0080 0000 0000 ff00 0f1e     ...?............
   b853c:	00ff 0000 0000 0000 fe7f fc1f 0000 0000     ................
   b854c:	0000 3f00 ffff 00f8 0000 0000 0000 df0f     ...?............
   b855c:	e0ff 0000 0000 0000 1f00 ff19 00c0 0000     ................
   b856c:	0000 0000 3c3f 00ff 0000 0000 0000 7e00     ....?<.........~
   b857c:	f87c 0000 0000 0000 0000 fe7f 007c 0000     |...........|...
   b858c:	0000 0000 ff00 fcff 0000 0000 0000 0000     ................
   b859c:	ffff 00fe 0000 0000 0000 ff00 feff 0000     ................
   b85ac:	0000 0000 0100 efff 00fe 0000 0000 0000     ................
   b85bc:	ff01 fecf 0000 0000 0000 0300 07ff 00fe     ................
   b85cc:	0000 0000 0000 fc03 fe07 0000 0000 0000     ................
   b85dc:	0300 03f0 00fe 0000 0000 0000 8001 fe00     ................
	...
   b85f4:	0000 007e 0000 0000 0000 0000 3e00 0000     ..~..........>..
	...
   b860c:	000c 0000 0000 0700 0080 00fc 0300 00c0     ................
   b861c:	0000 8007 fc01 0000 c003 0000 0700 0180     ................
   b862c:	00fc 0300 00c0 0000 8007 e001 0000 1e00     ................
   b863c:	0000 0700 0180 00e0 0000 001e e37f 9ff7     ................
   b864c:	fdf9 78e7 df7b ffc0 fff7 fdbf fffd 7b78     ...x{.........x{
   b865c:	c0df f7ff bfff fdfd 78ff df7b f0c0 87f7     .........x{.....
   b866c:	3dbc ffe1 7b78 00de f7f0 bc87 e13d 78f0     .=..x{......=..x
   b867c:	de7b 0000 87f7 3d80 e0e1 7b78 00de f77f     {......=..x{....
   b868c:	9f87 e1fd 78e0 de7b ff00 87f7 fdbf e0e1     .....x{.........
   b869c:	7b78 00de f7f0 bc87 e13d 78e0 de7b f000     x{......=..x{...
   b86ac:	87f7 3dbc e0e1 7b78 00de f7f0 bc87 e13d     ...=..x{......=.
   b86bc:	78e0 de7b ff00 fff7 fdbf e0e1 fb7f c0df     .x{.............
   b86cc:	f7ff bfff e1fd 7fe0 dffb 7cc0 f3f3 3d9f     ...........|...=
   b86dc:	e0e1 7b3e c0cf 0000 0000 0000 0000 0000     ..>{............
   b86ec:	ff00 ffff ffff ffff ffff c0ff ffff ffff     ................
   b86fc:	68fd 11db 311a ffc0 ffff fdff 5a2b 6afb     .h...1......+Z.j
   b870c:	c0ef ffff ffff 4bfd 3b5b 331a ffc0 ffff     .......K[;.3....
   b871c:	fdff 5b6b 6adb c0fd                         ..k[.j..

000b8724 <_ZL12splash2_data>:
   b8724:	0000 0060 0000 0000 0000 0000 0000 0000     ..`.............
   b8734:	e000 0000 0000 0000 0000 0000 0000 0100     ................
   b8744:	00e0 0000 0000 0000 0000 0000 0000 f001     ................
	...
   b8760:	0300 00f0 0000 0000 0000 0000 0000 0000     ................
   b8770:	f007 0000 0000 0000 0000 0000 0000 0700     ................
   b8780:	00f8 0000 0000 0000 0000 0000 0000 f80f     ................
   b8790:	0000 0300 00c0 007e 0100 00e0 0f7f 00f8     ......~.........
   b87a0:	0000 c003 fe00 0000 e001 ff00 f8ef 0000     ................
   b87b0:	0300 00c0 00fe 0100 00e0 ffff 00f8 0000     ................
   b87c0:	c003 f000 0000 0f00 7f00 7ffe 00c0 0300     ................
   b87d0:	00c0 00f0 0000 000f fe3f f87f f13f cffb     ........?...?...
   b87e0:	fefc bcf3 ef3d 1fe0 7ffe 7fff fffb fedf     ....=...........
   b87f0:	fffe 3dbc e0ef c61f ffff fb7f dfff fefe     ...=............
   b8800:	bcff ef3d 0fe0 c7e3 78fe c37b 1ede fff0     ..=......x{.....
   b8810:	3dbc 00ef ff07 fc87 7b78 dec3 f01e 3cf8     .=......x{.....<
   b8820:	ef3d 0100 ffff 00f0 c37b 1ec0 f0f0 3d3c     =.......{.....<=
   b8830:	00ef f301 e07f fb3f cfc3 f0fe 3cf0 ef3d     ......?......<=.
   b8840:	0300 3fe3 7f80 c3fb fedf f0f0 3d3c 00ef     ...?........<=..
   b8850:	e707 003c 7b78 dec3 f01e 3cf0 ef3d 0700     ..<.x{.....<=...
   b8860:	beff 7800 c37b 1ede f0f0 3d3c 00ef ff07     ...x{.....<=....
   b8870:	00fe 7b78 dec3 f01e 3cf0 ef3d 0f00 feff     ..x{.....<=.....
   b8880:	7f00 fffb fedf f0f0 fd3f e0ef ff0f 00ff     ........?.......
   b8890:	fb7f dfff f0fe 3ff0 effd 0fe0 fff9 3e00     .......?.......>
   b88a0:	f979 9ecf f0f0 3d1f e0e7 f11f 00ff 0000     y......=........
	...
   b88b8:	1f00 ff80 7f00 ffff ffff ffff ffff e0ff     ................
   b88c8:	001c 007f ff7f ffff b4fe 886d 188d 00e0     ..........m.....
   b88d8:	1f00 7f00 ffff feff ad95 b57d e077 0000     ..........}.w...
   b88e8:	000f ff7f ffff a5fe 9dad 198d 00e0 0600     ................
   b88f8:	7f00 ffff feff adb5 b5ed e07e               ..........~.

000b8904 <_ZTV16Adafruit_SSD1306>:
	...
   b890c:	5539 000b 5551 000b 53a9 000b 6a3d 000b     9U..QU...S..=j..
   b891c:	5565 000b 4daf 000b 4db1 000b 4de3 000b     eU...M...M...M..
   b892c:	4dbf 000b 4dd1 000b 4cf1 000b 4daf 000b     .M...M...L...M..
   b893c:	4fdb 000b 5703 000b 5cab 000b 5c5d 000b     .O...W...\..]\..
   b894c:	4e73 000b 4eb9 000b 4ed5 000b 4f59 000b     sN...N...N..YO..

000b895c <_ZZN16Adafruit_SSD130621drawFastVLineInternalEssstE7premask>:
   b895c:	8000 e0c0 f8f0 fefc                         ........

000b8964 <_ZZN16Adafruit_SSD130621drawFastVLineInternalEssstE8postmask>:
   b8964:	0100 0703 1f0f 7f3f                         ......?.

000b896c <_ZZN16Adafruit_SSD13065beginEhhbbE5init1>:
   b896c:	d5ae a880                                   ....

000b8970 <_ZZN16Adafruit_SSD13065beginEhhbbE5init2>:
   b8970:	00d3 8d40                                   ..@.

000b8974 <_ZZN16Adafruit_SSD13065beginEhhbbE5init3>:
   b8974:	0020 c8a1                                    ...

000b8978 <_ZZN16Adafruit_SSD13065beginEhhbbE5init5>:
   b8978:	40db a6a4 af2e                              .@....

000b897e <_ZZN16Adafruit_SSD13065beginEhhbbE6init4a>:
   b897e:	02da 8f81                                   ....

000b8982 <_ZZN16Adafruit_SSD13065beginEhhbbE6init4b>:
   b8982:	12da                                         ...

000b8985 <_ZZN16Adafruit_SSD13065beginEhhbbE6init4c>:
   b8985:	02da                                         ...

000b8988 <_ZZN16Adafruit_SSD13067displayEvE6dlist1>:
   b8988:	0022 21ff 0000 0000                         "..!....

000b8990 <_ZL22BlynkReadHandlerVector>:
   b8990:	5ee7 000b 5ee7 000b 5ee7 000b 5ee7 000b     .^...^...^...^..
   b89a0:	5ee7 000b 5ee7 000b 5ee7 000b 5ee7 000b     .^...^...^...^..
   b89b0:	5ee7 000b 5ee7 000b 5ee7 000b 5ee7 000b     .^...^...^...^..
   b89c0:	5ee7 000b 5ee7 000b 5ee7 000b 5ee7 000b     .^...^...^...^..
   b89d0:	5ee7 000b 5ee7 000b 5ee7 000b 5ee7 000b     .^...^...^...^..
   b89e0:	5ee7 000b 5ee7 000b 5ee7 000b 5ee7 000b     .^...^...^...^..
   b89f0:	5ee7 000b 5ee7 000b 5ee7 000b 5ee7 000b     .^...^...^...^..
   b8a00:	5ee7 000b 5ee7 000b 5ee7 000b 5ee7 000b     .^...^...^...^..
   b8a10:	5ee7 000b 5ee7 000b 5ee7 000b 5ee7 000b     .^...^...^...^..
   b8a20:	5ee7 000b 5ee7 000b 5ee7 000b 5ee7 000b     .^...^...^...^..
   b8a30:	5ee7 000b 5ee7 000b 5ee7 000b 5ee7 000b     .^...^...^...^..
   b8a40:	5ee7 000b 5ee7 000b 5ee7 000b 5ee7 000b     .^...^...^...^..
   b8a50:	5ee7 000b 5ee7 000b 5ee7 000b 5ee7 000b     .^...^...^...^..
   b8a60:	5ee7 000b 5ee7 000b 5ee7 000b 5ee7 000b     .^...^...^...^..
   b8a70:	5ee7 000b 5ee7 000b 5ee7 000b 5ee7 000b     .^...^...^...^..
   b8a80:	5ee7 000b 5ee7 000b 5ee7 000b 5ee7 000b     .^...^...^...^..
   b8a90:	5ee7 000b 5ee7 000b 5ee7 000b 5ee7 000b     .^...^...^...^..
   b8aa0:	5ee7 000b 5ee7 000b 5ee7 000b 5ee7 000b     .^...^...^...^..
   b8ab0:	5ee7 000b 5ee7 000b 5ee7 000b 5ee7 000b     .^...^...^...^..
   b8ac0:	5ee7 000b 5ee7 000b 5ee7 000b 5ee7 000b     .^...^...^...^..
   b8ad0:	5ee7 000b 5ee7 000b 5ee7 000b 5ee7 000b     .^...^...^...^..
   b8ae0:	5ee7 000b 5ee7 000b 5ee7 000b 5ee7 000b     .^...^...^...^..
   b8af0:	5ee7 000b 5ee7 000b 5ee7 000b 5ee7 000b     .^...^...^...^..
   b8b00:	5ee7 000b 5ee7 000b 5ee7 000b 5ee7 000b     .^...^...^...^..
   b8b10:	5ee7 000b 5ee7 000b 5ee7 000b 5ee7 000b     .^...^...^...^..
   b8b20:	5ee7 000b 5ee7 000b 5ee7 000b 5ee7 000b     .^...^...^...^..
   b8b30:	5ee7 000b 5ee7 000b 5ee7 000b 5ee7 000b     .^...^...^...^..
   b8b40:	5ee7 000b 5ee7 000b 5ee7 000b 5ee7 000b     .^...^...^...^..
   b8b50:	5ee7 000b 5ee7 000b 5ee7 000b 5ee7 000b     .^...^...^...^..
   b8b60:	5ee7 000b 5ee7 000b 5ee7 000b 5ee7 000b     .^...^...^...^..
   b8b70:	5ee7 000b 5ee7 000b 5ee7 000b 5ee7 000b     .^...^...^...^..
   b8b80:	5ee7 000b 5ee7 000b 5ee7 000b 5ee7 000b     .^...^...^...^..

000b8b90 <_ZL23BlynkWriteHandlerVector>:
   b8b90:	5ee9 000b 5ee9 000b 5ee9 000b 5ee9 000b     .^...^...^...^..
   b8ba0:	5ee9 000b 5ee9 000b 5ee9 000b 5ee9 000b     .^...^...^...^..
   b8bb0:	5ee9 000b 5ee9 000b 5ee9 000b 5ee9 000b     .^...^...^...^..
   b8bc0:	5ee9 000b 5ee9 000b 5ee9 000b 5ee9 000b     .^...^...^...^..
   b8bd0:	5ee9 000b 5ee9 000b 5ee9 000b 5ee9 000b     .^...^...^...^..
   b8be0:	5ee9 000b 5ee9 000b 5ee9 000b 5ee9 000b     .^...^...^...^..
   b8bf0:	5ee9 000b 5ee9 000b 5ee9 000b 5ee9 000b     .^...^...^...^..
   b8c00:	5ee9 000b 5ee9 000b 5ee9 000b 5ee9 000b     .^...^...^...^..
   b8c10:	5ee9 000b 5ee9 000b 5ee9 000b 5ee9 000b     .^...^...^...^..
   b8c20:	5ee9 000b 5ee9 000b 5ee9 000b 5ee9 000b     .^...^...^...^..
   b8c30:	5ee9 000b 5ee9 000b 5ee9 000b 5ee9 000b     .^...^...^...^..
   b8c40:	5ee9 000b 5ee9 000b 5ee9 000b 5ee9 000b     .^...^...^...^..
   b8c50:	5ee9 000b 5ee9 000b 5ee9 000b 5ee9 000b     .^...^...^...^..
   b8c60:	5ee9 000b 5ee9 000b 5ee9 000b 5ee9 000b     .^...^...^...^..
   b8c70:	5ee9 000b 5ee9 000b 5ee9 000b 5ee9 000b     .^...^...^...^..
   b8c80:	5ee9 000b 5ee9 000b 5ee9 000b 5ee9 000b     .^...^...^...^..
   b8c90:	5ee9 000b 5ee9 000b 5ee9 000b 5ee9 000b     .^...^...^...^..
   b8ca0:	5ee9 000b 5ee9 000b 5ee9 000b 5ee9 000b     .^...^...^...^..
   b8cb0:	5ee9 000b 5ee9 000b 5ee9 000b 5ee9 000b     .^...^...^...^..
   b8cc0:	5ee9 000b 5ee9 000b 5ee9 000b 5ee9 000b     .^...^...^...^..
   b8cd0:	5ee9 000b 5ee9 000b 5ee9 000b 5ee9 000b     .^...^...^...^..
   b8ce0:	5ee9 000b 5ee9 000b 5ee9 000b 5ee9 000b     .^...^...^...^..
   b8cf0:	5ee9 000b 5ee9 000b 5ee9 000b 5ee9 000b     .^...^...^...^..
   b8d00:	5ee9 000b 5ee9 000b 5ee9 000b 5ee9 000b     .^...^...^...^..
   b8d10:	5ee9 000b 5ee9 000b 5ee9 000b 5ee9 000b     .^...^...^...^..
   b8d20:	5ee9 000b 5ee9 000b 5ee9 000b 5ee9 000b     .^...^...^...^..
   b8d30:	5ee9 000b 5ee9 000b 5ee9 000b 5ee9 000b     .^...^...^...^..
   b8d40:	5ee9 000b 5ee9 000b 5ee9 000b 5ee9 000b     .^...^...^...^..
   b8d50:	5ee9 000b 5ee9 000b 5ee9 000b 5ee9 000b     .^...^...^...^..
   b8d60:	5ee9 000b 5ee9 000b 5ee9 000b 5ee9 000b     .^...^...^...^..
   b8d70:	5ee9 000b 5ee9 000b 5ee9 000b 5ee9 000b     .^...^...^...^..
   b8d80:	5ee9 000b 5ee9 000b 5ee9 000b 5ee9 000b     .^...^...^...^..

000b8d90 <_ZTV16OledWingAdafruit>:
	...
   b8d98:	5f15 000b 5f35 000b 53a9 000b 6a3d 000b     ._..5_...S..=j..
   b8da8:	5565 000b 4daf 000b 4db1 000b 4de3 000b     eU...M...M...M..
   b8db8:	4dbf 000b 4dd1 000b 4cf1 000b 4daf 000b     .M...M...L...M..
   b8dc8:	4fdb 000b 5703 000b 5cab 000b 5c5d 000b     .O...W...\..]\..
   b8dd8:	4e73 000b 4eb9 000b 4ed5 000b 4f59 000b     sN...N...N..YO..

000b8de8 <_ZZNSt19_Sp_make_shared_tag5_S_tiEvE5__tag>:
	...

000b8df0 <_ZTVN5spark13EthernetClassE>:
	...
   b8df8:	6673 000b 6669 000b 665f 000b 6655 000b     sf..if.._f..Uf..
   b8e08:	6649 000b 663d 000b 6919 000b 6921 000b     If..=f...i..!i..
   b8e18:	6631 000b 6629 000b 661f 000b 6615 000b     1f..)f...f...f..
   b8e28:	6951 000b                                   Qi..

000b8e2c <_ZTV7TwoWire>:
	...
   b8e34:	6691 000b 66db 000b 66b3 000b 6693 000b     .f...f...f...f..
   b8e44:	66bb 000b 66c3 000b 66cb 000b 66d3 000b     .f...f...f...f..

000b8e54 <_ZTV9IPAddress>:
	...
   b8e5c:	67a5 000b 6795 000b 6797 000b 7061 0070     .g...g...g..app.

000b8e6c <_ZTVN5spark12NetworkClassE>:
	...
   b8e74:	68d9 000b 68e3 000b 68ed 000b 68f7 000b     .h...h...h...h..
   b8e84:	6901 000b 690d 000b 6919 000b 6921 000b     .i...i...i..!i..
   b8e94:	6929 000b 6935 000b 693d 000b 6947 000b     )i..5i..=i..Gi..
   b8ea4:	6951 000b                                   Qi..

000b8ea8 <_ZN12_GLOBAL__N_1L14clock_divisorsE>:
   b8ea8:	0800 1810 2820 3830 6977 6972 676e 7200     .... (08wiring.r
   b8eb8:	6365 2076 7265 6f72 2072 203d 6425 0000     ecv error = %d..

000b8ec8 <_ZTVSt23_Sp_counted_ptr_inplaceIN9TCPClient4DataESaIS1_ELN9__gnu_cxx12_Lock_policyE0EE>:
	...
   b8ed0:	6dbd 000b 6de1 000b 7313 000b 6def 000b     .m...m...s...m..
   b8ee0:	6dc1 000b                                   .m..

000b8ee4 <_ZTV9TCPClient>:
	...
   b8eec:	6e6d 000b 6ea1 000b 6d39 000b 6d53 000b     mn...n..9m..Sm..
   b8efc:	71a9 000b 6d7d 000b 701f 000b 6db1 000b     .q..}m...p...m..
   b8f0c:	70b1 000b 6ef1 000b 704d 000b 725d 000b     .p...n..Mp..]r..
   b8f1c:	6fed 000b 6db3 000b 6d65 000b 6df5 000b     .o...m..em...m..
   b8f2c:	6ed1 000b 5925 252d 2d6d 6425 2554 3a48     .n..%Y-%m-%dT%H:
   b8f3c:	4d25 253a 2553 007a 7361 7463 6d69 0065     %M:%S%z.asctime.

000b8f4c <_ZTV11USARTSerial>:
	...
   b8f54:	732d 000b 7399 000b 7371 000b 6a3d 000b     -s...s..qs..=j..
   b8f64:	7341 000b 735d 000b 734f 000b 736b 000b     As..]s..Os..ks..
   b8f74:	732f 000b 7333 000b                         /s..3s..

000b8f7c <_ZTV9USBSerial>:
	...
   b8f84:	73d7 000b 743f 000b 7415 000b 6a3d 000b     .s..?t...t..=j..
   b8f94:	7407 000b 73d9 000b 73e9 000b 7439 000b     .t...s...s..9t..
   b8fa4:	73f9 000b 73d1 000b                         .s...s..

000b8fac <_ZTVN5spark9WiFiClassE>:
	...
   b8fb4:	7537 000b 752d 000b 7523 000b 74d9 000b     7u..-u..#u...t..
   b8fc4:	7517 000b 750b 000b 6919 000b 6921 000b     .u...u...i..!i..
   b8fd4:	74ff 000b 74f7 000b 74ed 000b 74e3 000b     .t...t...t...t..
   b8fe4:	6951 000b                                   Qi..

000b8fe8 <_ZSt7nothrow>:
	...

000b8fe9 <_ZTSSt19_Sp_make_shared_tag>:
   b8fe9:	7453 3931 535f 5f70 616d 656b 735f 6168     St19_Sp_make_sha
   b8ff9:	6572 5f64 6174 0067 0000                     red_tag....

000b9004 <_ZTISt19_Sp_make_shared_tag>:
   b9004:	9044 000b 8fe9 000b                         D.......

000b900c <_ZTIN10__cxxabiv117__class_type_infoE>:
   b900c:	90a4 000b 9018 000b 90c8 000b               ............

000b9018 <_ZTSN10__cxxabiv117__class_type_infoE>:
   b9018:	314e 5f30 635f 7878 6261 7669 3131 5f37     N10__cxxabiv117_
   b9028:	635f 616c 7373 745f 7079 5f65 6e69 6f66     _class_type_info
   b9038:	0045 0000                                   E...

000b903c <_ZTVN10__cxxabiv117__class_type_infoE>:
   b903c:	0000 0000 900c 000b 7945 000b 7959 000b     ........Ey..Yy..
   b904c:	7aed 000b 7aed 000b 79c3 000b 7905 000b     .z...z...y...y..
   b905c:	79ab 000b 796d 000b 7937 000b               .y..my..7y..

000b9068 <_ZTIN10__cxxabiv120__si_class_type_infoE>:
   b9068:	90a4 000b 9074 000b 900c 000b               ....t.......

000b9074 <_ZTSN10__cxxabiv120__si_class_type_infoE>:
   b9074:	314e 5f30 635f 7878 6261 7669 3231 5f30     N10__cxxabiv120_
   b9084:	735f 5f69 6c63 7361 5f73 7974 6570 695f     _si_class_type_i
   b9094:	666e 456f 0000 0000                         nfoE....

000b909c <_ZTVN10__cxxabiv120__si_class_type_infoE>:
   b909c:	0000 0000 9068 000b 79ed 000b 7a01 000b     ....h....y...z..
   b90ac:	7aed 000b 7aed 000b 79c3 000b 7905 000b     .z...z...y...y..
   b90bc:	7ac1 000b 7a4d 000b 7a15 000b               .z..Mz...z..

000b90c8 <_ZTISt9type_info>:
   b90c8:	9044 000b 90d0 000b                         D.......

000b90d0 <_ZTSSt9type_info>:
   b90d0:	7453 7439 7079 5f65 6e69 6f66 5200 4545     St9type_info.REE
   b90e0:	544e 6d20 6c61 6f6c 2063 7573 6363 6565     NT malloc succee
   b90f0:	6564 0064 742f 706d 6a2f 6e65 696b 736e     ded./tmp/jenkins
   b9100:	472d 4343 312d 2d30 6970 6570 696c 656e     -GCC-10-pipeline
   b9110:	342d 5f38 3032 3032 3131 3432 315f 3036     -48_20201124_160
   b9120:	3136 3038 3336 2f39 7273 2f63 656e 6c77     6180639/src/newl
   b9130:	6269 6e2f 7765 696c 2f62 696c 6362 732f     ib/newlib/libc/s
   b9140:	6474 696c 2f62 6172 646e 632e                tdlib/rand.c.

000b914d <_ctype_>:
   b914d:	2000 2020 2020 2020 2020 2828 2828 2028     .         ((((( 
   b915d:	2020 2020 2020 2020 2020 2020 2020 2020                     
   b916d:	8820 1010 1010 1010 1010 1010 1010 1010      ...............
   b917d:	0410 0404 0404 0404 0404 1004 1010 1010     ................
   b918d:	1010 4141 4141 4141 0101 0101 0101 0101     ..AAAAAA........
   b919d:	0101 0101 0101 0101 0101 0101 1010 1010     ................
   b91ad:	1010 4242 4242 4242 0202 0202 0202 0202     ..BBBBBB........
   b91bd:	0202 0202 0202 0202 0202 0202 1010 1010     ................
   b91cd:	0020 0000 0000 0000 0000 0000 0000 0000      ...............
	...

000b924e <link_const_variable_data_end>:
	...

000b9250 <link_constructors_location>:
   b9250:	000b4ca9 	.word	0x000b4ca9
   b9254:	000b6605 	.word	0x000b6605
   b9258:	000b667d 	.word	0x000b667d
   b925c:	000b68c9 	.word	0x000b68c9
   b9260:	000b6a29 	.word	0x000b6a29
   b9264:	000b6b51 	.word	0x000b6b51
   b9268:	000b6d15 	.word	0x000b6d15
   b926c:	000b7319 	.word	0x000b7319
   b9270:	000b7541 	.word	0x000b7541

000b9274 <link_constructors_end>:
	...
